
KF32Fxxx_StdPeriph_Lib_V2.3.elf:     file format elf32-kungfu32-little


Disassembly of section .text:

00000000 <_start>:
__vector_entry__:
       0:	00 00 02 10 	.long     0x10020000
       4:	5c 0a 00 00 	.long     0x00000a5c
       8:	b8 0c 00 00 	.long     0x00000cb8
       c:	bc 0c 00 00 	.long     0x00000cbc
      10:	00 00 00 00 	.long     0x00000000
      14:	c0 0c 00 00 	.long     0x00000cc0
      18:	00 00 00 00 	.long     0x00000000
      1c:	70 cf fd ef 	.long     0xeffdcf70
	...
      2c:	c4 0c 00 00 	.long     0x00000cc4
	...
      38:	c8 0c 00 00 	.long     0x00000cc8
      3c:	cc 0c 00 00 	.long     0x00000ccc
	...

00000200 <SFR_Config>:
SFR_Config():
KF32F_BASIC.h:12950
   -- 痕方協吶
   ---------------------------------------------------------------------------- */
/* 亟蒙歩孔嬬篠贋匂 */
static inline uint32_t
SFR_Config (uint32_t SfrMem, uint32_t SfrMask, uint32_t WriteVal)
{
     200:	ec 30       	SUB       SP, #12
     202:	e0 85       	ST.W      [SP], R0
     204:	01 21       	ST.W      [SP + #1], R1
     206:	02 22       	ST.W      [SP + #2], R2
KF32F_BASIC.h:12951
    return ((SfrMem & SfrMask) | (WriteVal));
     208:	5e 82       	LD.W      R5, [SP]
     20a:	01 0c       	LD.W      R4, [SP + #1]
     20c:	25 d5       	ANL       R4, R5, R4
     20e:	02 0d       	LD.W      R5, [SP + #2]
     210:	6c d7       	ORL       R5, R4, R5
KF32F_BASIC.h:12952
}
     212:	05 58       	MOV       R0, R5
     214:	ec 28       	ADD       SP, #12
     216:	1d 5c       	JMP       LR

00000218 <FLASH_Clear_NonVolatile_Memory_Unlock_Status>:
FLASH_Clear_NonVolatile_Memory_Unlock_Status():
..\src\kf32f_basic_flash.c:106
  * 補秘  涙。
  * 卦指  涙。
  */
void
FLASH_Clear_NonVolatile_Memory_Unlock_Status (void)
{
     218:	81 5f       	PUSH      {R6,LR}
     21a:	e4 30       	SUB       SP, #4
..\src\kf32f_basic_flash.c:107
    uint32_t tmpreg = 0;
     21c:	50 10       	MOV       R5, #0
     21e:	e5 85       	ST.W      [SP], R5
..\src\kf32f_basic_flash.c:110

    /*---------------- 塘崔FLASH_ISPCON0篠贋匂NVMLOCK了 ----------------*/
    tmpreg = FLASH_ISPCON0_HIGH | FLASH_ISPCON0_NVMLOCK;
     220:	07 45       	LD        R5, [PC + #7]         ;->0x23c  :=0x50af0001
     222:	e5 85       	ST.W      [SP], R5
..\src\kf32f_basic_flash.c:111
    FLASH_ISPCON0 = SFR_Config (FLASH_ISPCON0,
     224:	07 46       	LD        R6, [PC + #7]         ;->0x240  :=0x40200100
     226:	07 45       	LD        R5, [PC + #7]         ;->0x240  :=0x40200100
     228:	55 82       	LD.W      R5, [R5]
     22a:	05 58       	MOV       R0, R5
     22c:	06 41       	LD        R1, [PC + #6]         ;->0x244  :=0xfffe
     22e:	2e 82       	LD.W      R2, [SP]
     230:	06 45       	LD        R5, [PC + #6]         ;->0x248  :=0x200
     232:	05 5c       	LJMP      R5
     234:	a0 58       	MOV       R5, R0
     236:	65 85       	ST.W      [R6], R5
..\src\kf32f_basic_flash.c:114
                        ~(FLASH_ISPCON0_HIGH_MSK | FLASH_ISPCON0_NVMLOCK),
                        tmpreg);
}
     238:	e4 28       	ADD       SP, #4
     23a:	81 5e       	POP       {R6,PC}
     23c:	01 00 af 50 	.long     0x50af0001 ->1353646081
     240:	00 01 20 40 	.long     0x40200100 ->1075839232
     244:	fe ff 00 00 	.long     0x0000fffe ->65534
     248:	00 02 00 00 	.long     0x00000200 ->512

0000024c <FLASH_Clear_Flash_Unlock_Status>:
FLASH_Clear_Flash_Unlock_Status():
..\src\kf32f_basic_flash.c:183
  * 補秘  涙。
  * 卦指  涙。
  */
void
FLASH_Clear_Flash_Unlock_Status (void)
{
     24c:	81 5f       	PUSH      {R6,LR}
     24e:	e4 30       	SUB       SP, #4
..\src\kf32f_basic_flash.c:184
    uint32_t tmpreg = 0;
     250:	50 10       	MOV       R5, #0
     252:	e5 85       	ST.W      [SP], R5
..\src\kf32f_basic_flash.c:187

    /*---------------- 塘崔FLASH_ISPCON0篠贋匂FLASHLOCK了 ----------------*/
    tmpreg = FLASH_ISPCON0_HIGH | FLASH_ISPCON0_FLASHLOCK;
     254:	07 45       	LD        R5, [PC + #7]         ;->0x270  :=0x50af0002
     256:	e5 85       	ST.W      [SP], R5
..\src\kf32f_basic_flash.c:188
    FLASH_ISPCON0 = SFR_Config (FLASH_ISPCON0,
     258:	07 46       	LD        R6, [PC + #7]         ;->0x274  :=0x40200100
     25a:	07 45       	LD        R5, [PC + #7]         ;->0x274  :=0x40200100
     25c:	55 82       	LD.W      R5, [R5]
     25e:	05 58       	MOV       R0, R5
     260:	06 41       	LD        R1, [PC + #6]         ;->0x278  :=0xfffd
     262:	2e 82       	LD.W      R2, [SP]
     264:	06 45       	LD        R5, [PC + #6]         ;->0x27c  :=0x200
     266:	05 5c       	LJMP      R5
     268:	a0 58       	MOV       R5, R0
     26a:	65 85       	ST.W      [R6], R5
..\src\kf32f_basic_flash.c:191
                        ~(FLASH_ISPCON0_HIGH_MSK | FLASH_ISPCON0_FLASHLOCK),
                        tmpreg);
}
     26c:	e4 28       	ADD       SP, #4
     26e:	81 5e       	POP       {R6,PC}
     270:	02 00 af 50 	.long     0x50af0002 ->1353646082
     274:	00 01 20 40 	.long     0x40200100 ->1075839232
     278:	fd ff 00 00 	.long     0x0000fffd ->65533
     27c:	00 02 00 00 	.long     0x00000200 ->512

00000280 <FLASH_Clear_Config_Unlock_Status>:
FLASH_Clear_Config_Unlock_Status():
..\src\kf32f_basic_flash.c:260
  * 補秘  涙。
  * 卦指  涙。
  */
void
FLASH_Clear_Config_Unlock_Status (void)
{
     280:	81 5f       	PUSH      {R6,LR}
     282:	e4 30       	SUB       SP, #4
..\src\kf32f_basic_flash.c:261
    uint32_t tmpreg = 0;
     284:	50 10       	MOV       R5, #0
     286:	e5 85       	ST.W      [SP], R5
..\src\kf32f_basic_flash.c:264

    /*---------------- 塘崔FLASH_ISPCON0篠贋匂CFGLOCK了 ----------------*/
    tmpreg = FLASH_ISPCON0_HIGH | FLASH_ISPCON0_CFGLOCK;
     288:	07 45       	LD        R5, [PC + #7]         ;->0x2a4  :=0x50af0004
     28a:	e5 85       	ST.W      [SP], R5
..\src\kf32f_basic_flash.c:265
    FLASH_ISPCON0 = SFR_Config (FLASH_ISPCON0,
     28c:	07 46       	LD        R6, [PC + #7]         ;->0x2a8  :=0x40200100
     28e:	07 45       	LD        R5, [PC + #7]         ;->0x2a8  :=0x40200100
     290:	55 82       	LD.W      R5, [R5]
     292:	05 58       	MOV       R0, R5
     294:	06 41       	LD        R1, [PC + #6]         ;->0x2ac  :=0xfffb
     296:	2e 82       	LD.W      R2, [SP]
     298:	06 45       	LD        R5, [PC + #6]         ;->0x2b0  :=0x200
     29a:	05 5c       	LJMP      R5
     29c:	a0 58       	MOV       R5, R0
     29e:	65 85       	ST.W      [R6], R5
..\src\kf32f_basic_flash.c:268
                        ~(FLASH_ISPCON0_HIGH_MSK | FLASH_ISPCON0_CFGLOCK),
                        tmpreg);
}
     2a0:	e4 28       	ADD       SP, #4
     2a2:	81 5e       	POP       {R6,PC}
     2a4:	04 00 af 50 	.long     0x50af0004 ->1353646084
     2a8:	00 01 20 40 	.long     0x40200100 ->1075839232
     2ac:	fb ff 00 00 	.long     0x0000fffb ->65531
     2b0:	00 02 00 00 	.long     0x00000200 ->512

000002b4 <FLASH_Data_Write_Enable_RAM>:
FLASH_Data_Write_Enable_RAM():
..\src\kf32f_basic_flash.c:301
  * 補秘  NewState: FLASH亟産贋聞嬬彜蓑⇧函峙葎TRUE 賜 FALSE。
  * 卦指  涙。
  */
void
FLASH_Data_Write_Enable_RAM (FunctionalState NewState)
{
     2b4:	2d 5d       	PUSH      LR
     2b6:	e4 30       	SUB       SP, #4
     2b8:	e0 85       	ST.W      [SP], R0
..\src\kf32f_basic_flash.c:303
    /* 歌方丕刮 */
    CHECK_RESTRICTION_RAM(CHECK_FUNCTIONAL_STATE(NewState));
     2ba:	5e 82       	LD.W      R5, [SP]
     2bc:	50 38       	CMP       R5, #0
     2be:	04 f0       	JZ        $+4                   ;->0x2c6
     2c0:	5e 82       	LD.W      R5, [SP]
     2c2:	51 38       	CMP       R5, #1
     2c4:	03 f1       	JNZ       $+3                   ;->0x2ca
     2c6:	51 10       	MOV       R5, #1
     2c8:	02 04       	SJMP      $+2                   ;->0x2cc
     2ca:	50 10       	MOV       R5, #0
     2cc:	05 58       	MOV       R0, R5
     2ce:	07 45       	LD        R5, [PC + #7]         ;->0x2e8  :=0x10000000
     2d0:	05 5c       	LJMP      R5
..\src\kf32f_basic_flash.c:306

    /*---------------- 塘崔FLASH_ISPCON0篠贋匂DWEN了 ----------------*/
    if (NewState != FALSE)
     2d2:	5e 82       	LD.W      R5, [SP]
     2d4:	50 38       	CMP       R5, #0
     2d6:	04 f0       	JZ        $+4                   ;->0x2de
..\src\kf32f_basic_flash.c:309
    {
        /* FLASH亟産贋辛參瓜亟秘方象 */
        __asm volatile("SET [%0], #%1"::"r"(&(FLASH_ISPCON0)),"i"(FLASH_ISPCON0_DWEN_POS));
     2d8:	05 45       	LD        R5, [PC + #5]         ;->0x2ec  :=0x40200100
     2da:	2b 4c       	SET       [R5], #3
     2dc:	03 04       	SJMP      $+3                   ;->0x2e2
..\src\kf32f_basic_flash.c:314
    }
    else
    {
        /* FLASH亟産贋鋤峭瓜亟秘方象 */
        __asm volatile("CLR [%0], #%1"::"r"(&(FLASH_ISPCON0)),"i"(FLASH_ISPCON0_DWEN_POS));
     2de:	04 45       	LD        R5, [PC + #4]         ;->0x2ec  :=0x40200100
     2e0:	2b 4e       	CLR       [R5], #3
..\src\kf32f_basic_flash.c:316
    }
}
     2e2:	e4 28       	ADD       SP, #4
     2e4:	0d 5d       	POP       LR
     2e6:	1d 5c       	JMP       LR
     2e8:	00 00 00 10 	.long     0x10000000 ->268435456
     2ec:	00 01 20 40 	.long     0x40200100 ->1075839232

000002f0 <GPIO_Pin_Lock_Config>:
GPIO_Pin_Lock_Config():
..\src\kf32f_basic_gpio.c:209
  * 卦指  涙。
  */
void
GPIO_Pin_Lock_Config (GPIO_SFRmap* GPIOx,
                    uint16_t GpioPin, FunctionalState NewState)
{
     2f0:	e0 31       	SUB       SP, #16
     2f2:	01 20       	ST.W      [SP + #1], R0
     2f4:	a1 58       	MOV       R5, R1
     2f6:	03 22       	ST.W      [SP + #3], R2
     2f8:	a4 e2       	ST.H      [SP + #4], R5
..\src\kf32f_basic_gpio.c:210
    uint32_t tmpreg = 0x5C5A0000;
     2fa:	0d 45       	LD        R5, [PC + #13]        ;->0x32c  :=0x5c5a0000
     2fc:	e5 85       	ST.W      [SP], R5
..\src\kf32f_basic_gpio.c:218
    CHECK_RESTRICTION(CHECK_GPIO_ALL_PERIPH(GPIOx));
    CHECK_RESTRICTION(CHECK_GPIO_PIN_MASK(GpioPin));
    CHECK_RESTRICTION(CHECK_FUNCTIONAL_STATE(NewState));

    /* 隠贋圻兵迄協彜蓑 */
    tmpreg |= GPIOx->LOCK;
     2fe:	01 0d       	LD.W      R5, [SP + #1]
     300:	e5 99       	LD.W      R4, [R5 + #7]
     302:	5e 82       	LD.W      R5, [SP]
     304:	2d d7       	ORL       R5, R5, R4
     306:	e5 85       	ST.W      [SP], R5
..\src\kf32f_basic_gpio.c:221

    /* 塘崔迄協/盾迄彜蓑 */
    if (NewState != FALSE)
     308:	03 0d       	LD.W      R5, [SP + #3]
     30a:	50 38       	CMP       R5, #0
     30c:	06 f0       	JZ        $+6                   ;->0x318
..\src\kf32f_basic_gpio.c:224
    {
        /* 迄協 */
        tmpreg |= (uint32_t)GpioPin;
     30e:	84 e0       	LD.H      R4, [SP + #4]
     310:	5e 82       	LD.W      R5, [SP]
     312:	2d d7       	ORL       R5, R5, R4
     314:	e5 85       	ST.W      [SP], R5
     316:	06 04       	SJMP      $+6                   ;->0x322
..\src\kf32f_basic_gpio.c:229
    }
    else
    {
        /* 盾迄 */
        tmpreg &= ~((uint32_t)GpioPin);
     318:	a4 e0       	LD.H      R5, [SP + #4]
     31a:	55 68       	NOT       R5, R5
     31c:	4e 82       	LD.W      R4, [SP]
     31e:	6c d5       	ANL       R5, R4, R5
     320:	e5 85       	ST.W      [SP], R5
..\src\kf32f_basic_gpio.c:233
    }

    /*----------- 譜崔GPIOx_LOCK篠贋匂 -----------*/
    GPIOx->LOCK = tmpreg;
     322:	01 0d       	LD.W      R5, [SP + #1]
     324:	4e 82       	LD.W      R4, [SP]
     326:	ec a1       	ST.W      [R5 + #7], R4
..\src\kf32f_basic_gpio.c:234
}
     328:	e0 29       	ADD       SP, #16
     32a:	1d 5c       	JMP       LR
     32c:	00 00 5a 5c 	.long     0x5c5a0000 ->1549402112

00000330 <GPIO_Write_Mode_Bits>:
GPIO_Write_Mode_Bits():
..\src\kf32f_basic_gpio.c:397
  * 卦指  涙。
  */
void
GPIO_Write_Mode_Bits (GPIO_SFRmap* GPIOx,
                    uint16_t GpioPin, GPIOMode_TypeDef NewState)
{
     330:	e4 31       	SUB       SP, #20
     332:	02 20       	ST.W      [SP + #2], R0
     334:	a1 58       	MOV       R5, R1
     336:	04 22       	ST.W      [SP + #4], R2
     338:	a6 e2       	ST.H      [SP + #6], R5
..\src\kf32f_basic_gpio.c:398
    uint32_t pinpos = 0;
     33a:	50 10       	MOV       R5, #0
     33c:	e5 85       	ST.W      [SP], R5
..\src\kf32f_basic_gpio.c:399
    uint32_t tmpreg = 0;
     33e:	50 10       	MOV       R5, #0
     340:	01 25       	ST.W      [SP + #1], R5
..\src\kf32f_basic_gpio.c:407
    CHECK_RESTRICTION(CHECK_GPIO_ALL_PERIPH(GPIOx));
    CHECK_RESTRICTION(CHECK_GPIO_PIN_MASK(GpioPin));
    CHECK_RESTRICTION(CHECK_GPIO_MODE(NewState));

    /*----------- 資函GPIOx_PMOD篠贋匂 -----------*/
    tmpreg = GPIOx->PMOD;
     342:	02 0d       	LD.W      R5, [SP + #2]
     344:	6d 99       	LD.W      R5, [R5 + #5]
     346:	01 25       	ST.W      [SP + #1], R5
..\src\kf32f_basic_gpio.c:408
    while (GpioPin)
     348:	19 04       	SJMP      $+25                  ;->0x37a
..\src\kf32f_basic_gpio.c:410
    {
        if (GpioPin & (uint16_t)0x1)
     34a:	86 e0       	LD.H      R4, [SP + #6]
     34c:	51 10       	MOV       R5, #1
     34e:	6c d5       	ANL       R5, R4, R5
     350:	50 38       	CMP       R5, #0
     352:	0e f0       	JZ        $+14                  ;->0x36e
..\src\kf32f_basic_gpio.c:413
        {
            /* 芝村塘崔佚連 */
            tmpreg &= ~(GPIO_PMOD_PXPMD0 << pinpos);
     354:	5e 82       	LD.W      R5, [SP]
     356:	43 10       	MOV       R4, #3
     358:	6c db       	LSL       R5, R4, R5
     35a:	55 68       	NOT       R5, R5
     35c:	01 0c       	LD.W      R4, [SP + #1]
     35e:	6c d5       	ANL       R5, R4, R5
     360:	01 25       	ST.W      [SP + #1], R5
..\src\kf32f_basic_gpio.c:414
            tmpreg |= (uint32_t)NewState << pinpos;
     362:	5e 82       	LD.W      R5, [SP]
     364:	04 0c       	LD.W      R4, [SP + #4]
     366:	6c db       	LSL       R5, R4, R5
     368:	01 0c       	LD.W      R4, [SP + #1]
     36a:	6c d7       	ORL       R5, R4, R5
     36c:	01 25       	ST.W      [SP + #1], R5
..\src\kf32f_basic_gpio.c:420
        }
        else
        {
            ;
        }
        GpioPin >>= 1;
     36e:	a6 e0       	LD.H      R5, [SP + #6]
     370:	29 7c       	LSR       R5, #1
     372:	a6 e2       	ST.H      [SP + #6], R5
..\src\kf32f_basic_gpio.c:421
        pinpos += 2;
     374:	5e 82       	LD.W      R5, [SP]
     376:	ad c0       	ADD       R5, R5, #2
     378:	e5 85       	ST.W      [SP], R5
..\src\kf32f_basic_gpio.c:408
    CHECK_RESTRICTION(CHECK_GPIO_PIN_MASK(GpioPin));
    CHECK_RESTRICTION(CHECK_GPIO_MODE(NewState));

    /*----------- 資函GPIOx_PMOD篠贋匂 -----------*/
    tmpreg = GPIOx->PMOD;
    while (GpioPin)
     37a:	a6 e0       	LD.H      R5, [SP + #6]
     37c:	50 38       	CMP       R5, #0
     37e:	e6 f1       	JNZ       $-26                  ;->0x34a
..\src\kf32f_basic_gpio.c:425
        GpioPin >>= 1;
        pinpos += 2;
    }

    /*----------- 塘崔GPIOx_PMOD篠贋匂 -----------*/
    GPIOx->PMOD = tmpreg;
     380:	02 0d       	LD.W      R5, [SP + #2]
     382:	01 0c       	LD.W      R4, [SP + #1]
     384:	6c a1       	ST.W      [R5 + #5], R4
..\src\kf32f_basic_gpio.c:426
}
     386:	e4 29       	ADD       SP, #20
     388:	1d 5c       	JMP       LR

0000038a <GPIO_Read_Input_Data_Bit>:
GPIO_Read_Input_Data_Bit():
..\src\kf32f_basic_gpio.c:525
  *       GpioPin: 峺協極笥哈重⇧函峙葎GPIO_PIN_MASK_0~GPIO_PIN_MASK_15嶄議匯倖。
  * 卦指  峺協哈重議佚連⇧1⦿貸辞互窮峠⇧0⦿貸辞詰窮峠。
  */
BitAction
GPIO_Read_Input_Data_Bit (GPIO_SFRmap* GPIOx, uint16_t GpioPin)
{
     38a:	ec 30       	SUB       SP, #12
     38c:	01 20       	ST.W      [SP + #1], R0
     38e:	a1 58       	MOV       R5, R1
     390:	a4 e2       	ST.H      [SP + #4], R5
..\src\kf32f_basic_gpio.c:526
    uint32_t tmpreg = 0;
     392:	50 10       	MOV       R5, #0
     394:	e5 85       	ST.W      [SP], R5
..\src\kf32f_basic_gpio.c:533
    /* 歌方丕刮 */
    CHECK_RESTRICTION(CHECK_GPIO_ALL_PERIPH(GPIOx));
    CHECK_RESTRICTION(CHECK_GPIO_PIN_MASK(GpioPin));

    /*---------------- 資函GPIOx_PIR篠贋匂PXPIRy了 ----------------*/
    tmpreg = (uint32_t)GpioPin;
     396:	a4 e0       	LD.H      R5, [SP + #4]
     398:	e5 85       	ST.W      [SP], R5
..\src\kf32f_basic_gpio.c:534
    if ((GPIOx->PIR & tmpreg) != Bit_RESET)
     39a:	01 0d       	LD.W      R5, [SP + #1]
     39c:	45 82       	LD.W      R4, [R5]
     39e:	5e 82       	LD.W      R5, [SP]
     3a0:	6c d5       	ANL       R5, R4, R5
     3a2:	50 38       	CMP       R5, #0
     3a4:	03 f0       	JZ        $+3                   ;->0x3aa
..\src\kf32f_basic_gpio.c:537
    {
        /* 貸辞互窮峠 */
        return Bit_SET;
     3a6:	51 10       	MOV       R5, #1
     3a8:	02 04       	SJMP      $+2                   ;->0x3ac
..\src\kf32f_basic_gpio.c:542
    }
    else
    {
        /* 貸辞詰窮峠 */
        return Bit_RESET;
     3aa:	50 10       	MOV       R5, #0
..\src\kf32f_basic_gpio.c:544
    }
}
     3ac:	05 58       	MOV       R0, R5
     3ae:	ec 28       	ADD       SP, #12
     3b0:	1d 5c       	JMP       LR

000003b2 <GPIO_Toggle_Output_Data_Config>:
GPIO_Toggle_Output_Data_Config():
..\src\kf32f_basic_gpio.c:654
  *                匯倖賜謹倖怏栽。
  * 卦指  涙。
  */
void
GPIO_Toggle_Output_Data_Config (GPIO_SFRmap* GPIOx, uint16_t GpioPin)
{
     3b2:	e8 30       	SUB       SP, #8
     3b4:	e0 85       	ST.W      [SP], R0
     3b6:	a1 58       	MOV       R5, R1
     3b8:	a2 e2       	ST.H      [SP + #2], R5
..\src\kf32f_basic_gpio.c:659
    /* 歌方丕刮 */
    CHECK_RESTRICTION(CHECK_GPIO_ALL_PERIPH(GPIOx));

    /*----------- 譜崔GPIOx_POR篠贋匂 -----------*/
    GPIOx->POR ^= (uint32_t)GpioPin;
     3ba:	5e 82       	LD.W      R5, [SP]
     3bc:	65 98       	LD.W      R4, [R5 + #1]
     3be:	a2 e0       	LD.H      R5, [SP + #2]
     3c0:	64 d9       	XRL       R4, R4, R5
     3c2:	5e 82       	LD.W      R5, [SP]
     3c4:	6c a0       	ST.W      [R5 + #1], R4
..\src\kf32f_basic_gpio.c:660
}
     3c6:	e8 28       	ADD       SP, #8
     3c8:	1d 5c       	JMP       LR

000003ca <GPIO_Pin_RMP_Config>:
GPIO_Pin_RMP_Config():
..\src\kf32f_basic_gpio.c:736
  * 卦指  涙。
  */
void
GPIO_Pin_RMP_Config (GPIO_SFRmap* GPIOx,
                    uint16_t GpioPinNum, uint8_t PinRemap)
{
     3ca:	e4 31       	SUB       SP, #20
     3cc:	02 20       	ST.W      [SP + #2], R0
     3ce:	81 58       	MOV       R4, R1
     3d0:	a2 58       	MOV       R5, R2
     3d2:	86 e2       	ST.H      [SP + #6], R4
     3d4:	b0 e3       	ST.B      [SP + #16], R5
..\src\kf32f_basic_gpio.c:737
    uint32_t tmpreg = 0x00;
     3d6:	50 10       	MOV       R5, #0
     3d8:	e5 85       	ST.W      [SP], R5
..\src\kf32f_basic_gpio.c:738
    uint32_t tmpreg1 = 0x00;
     3da:	50 10       	MOV       R5, #0
     3dc:	01 25       	ST.W      [SP + #1], R5
..\src\kf32f_basic_gpio.c:746
    CHECK_RESTRICTION(CHECK_GPIO_ALL_PERIPH(GPIOx));
    CHECK_RESTRICTION(CHECK_GPIO_PIN_NUM(GpioPinNum));
    CHECK_RESTRICTION(CHECK_GPIO_RMP(PinRemap));

    /* 資函圻兵GPIO_RMPH/L方象 */
    tmpreg1 = GPIOx->RMP[GpioPinNum >> 0x03];
     3de:	a6 e0       	LD.H      R5, [SP + #6]
     3e0:	2b 7c       	LSR       R5, #3
     3e2:	55 d0       	ZXT.H     R5, R5
     3e4:	02 0c       	LD.W      R4, [SP + #2]
     3e6:	58 28       	ADD       R5, #8
     3e8:	2a 7a       	LSL       R5, #2
     3ea:	6c c3       	ADD       R5, R4, R5
     3ec:	55 82       	LD.W      R5, [R5]
     3ee:	01 25       	ST.W      [SP + #1], R5
..\src\kf32f_basic_gpio.c:749

    /* 俐個斤哘議方峙 */
    tmpreg = ((uint32_t)PinRemap << (((uint32_t)GpioPinNum & 0x07) * 4));
     3f0:	90 e1       	LD.B      R4, [SP + #16]
     3f2:	66 e0       	LD.H      R3, [SP + #6]
     3f4:	57 10       	MOV       R5, #7
     3f6:	6b d5       	ANL       R5, R3, R5
     3f8:	2a 7a       	LSL       R5, #2
     3fa:	6c db       	LSL       R5, R4, R5
     3fc:	e5 85       	ST.W      [SP], R5
..\src\kf32f_basic_gpio.c:750
    tmpreg1 &= ~((uint32_t)0xF << (((uint32_t)GpioPinNum & 0x07) * 4));
     3fe:	86 e0       	LD.H      R4, [SP + #6]
     400:	57 10       	MOV       R5, #7
     402:	6c d5       	ANL       R5, R4, R5
     404:	2a 7a       	LSL       R5, #2
     406:	4f 10       	MOV       R4, #15
     408:	6c db       	LSL       R5, R4, R5
     40a:	55 68       	NOT       R5, R5
     40c:	01 0c       	LD.W      R4, [SP + #1]
     40e:	6c d5       	ANL       R5, R4, R5
     410:	01 25       	ST.W      [SP + #1], R5
..\src\kf32f_basic_gpio.c:751
    tmpreg1 = tmpreg1 | tmpreg;
     412:	01 0c       	LD.W      R4, [SP + #1]
     414:	5e 82       	LD.W      R5, [SP]
     416:	6c d7       	ORL       R5, R4, R5
     418:	01 25       	ST.W      [SP + #1], R5
..\src\kf32f_basic_gpio.c:754

    /* 塘崔GPIO_RMPH/L方象 */
    GPIOx->RMP[GpioPinNum >> 0x03] = tmpreg1;
     41a:	a6 e0       	LD.H      R5, [SP + #6]
     41c:	2b 7c       	LSR       R5, #3
     41e:	55 d0       	ZXT.H     R5, R5
     420:	02 0c       	LD.W      R4, [SP + #2]
     422:	58 28       	ADD       R5, #8
     424:	2a 7a       	LSL       R5, #2
     426:	6c c3       	ADD       R5, R4, R5
     428:	01 0c       	LD.W      R4, [SP + #1]
     42a:	54 85       	ST.W      [R5], R4
..\src\kf32f_basic_gpio.c:755
}
     42c:	e4 29       	ADD       SP, #20
     42e:	1d 5c       	JMP       LR

00000430 <SFR_Config>:
SFR_Config():
KF32F_BASIC.h:12950
   -- 痕方協吶
   ---------------------------------------------------------------------------- */
/* 亟蒙歩孔嬬篠贋匂 */
static inline uint32_t
SFR_Config (uint32_t SfrMem, uint32_t SfrMask, uint32_t WriteVal)
{
     430:	ec 30       	SUB       SP, #12
     432:	e0 85       	ST.W      [SP], R0
     434:	01 21       	ST.W      [SP + #1], R1
     436:	02 22       	ST.W      [SP + #2], R2
KF32F_BASIC.h:12951
    return ((SfrMem & SfrMask) | (WriteVal));
     438:	5e 82       	LD.W      R5, [SP]
     43a:	01 0c       	LD.W      R4, [SP + #1]
     43c:	25 d5       	ANL       R4, R5, R4
     43e:	02 0d       	LD.W      R5, [SP + #2]
     440:	6c d7       	ORL       R5, R4, R5
KF32F_BASIC.h:12952
}
     442:	05 58       	MOV       R0, R5
     444:	ec 28       	ADD       SP, #12
     446:	1d 5c       	JMP       LR

00000448 <OSC_HFCK_Division_Config>:
OSC_HFCK_Division_Config():
..\src\kf32f_basic_osc.c:398
  *                         HFCK_DIVISION_512: 1/512蛍撞,
  * 卦指  涙。
  */
void
OSC_HFCK_Division_Config (uint32_t HFDivision)
{
     448:	81 5f       	PUSH      {R6,LR}
     44a:	e8 30       	SUB       SP, #8
     44c:	01 20       	ST.W      [SP + #1], R0
..\src\kf32f_basic_osc.c:399
    uint32_t tmpreg = 0;
     44e:	50 10       	MOV       R5, #0
     450:	e5 85       	ST.W      [SP], R5
..\src\kf32f_basic_osc.c:405

    /* 歌方丕刮 */
    CHECK_RESTRICTION(CHECK_HFCK_DIVISION(HFDivision));

    /*---------------- 譜崔OSC_CTL0篠贋匂HFCKDIV了 ----------------*/
    tmpreg = HFDivision << OSC_CTL0_HFCKDIV0_POS;
     452:	01 0d       	LD.W      R5, [SP + #1]
     454:	2c 7b       	LSL       R5, #20
     456:	e5 85       	ST.W      [SP], R5
..\src\kf32f_basic_osc.c:406
    OSC_CTL0 = SFR_Config (OSC_CTL0, ~OSC_CTL0_HFCKDIV, tmpreg);
     458:	61 10       	MOV       R6, #1
     45a:	b6 7b       	LSL       R6, #30
     45c:	51 10       	MOV       R5, #1
     45e:	ae 7b       	LSL       R5, #30
     460:	55 82       	LD.W      R5, [R5]
     462:	05 58       	MOV       R0, R5
     464:	04 41       	LD        R1, [PC + #4]         ;->0x474  :=0xff0fffff
     466:	2e 82       	LD.W      R2, [SP]
     468:	04 45       	LD        R5, [PC + #4]         ;->0x478  :=0x430
     46a:	05 5c       	LJMP      R5
     46c:	a0 58       	MOV       R5, R0
     46e:	65 85       	ST.W      [R6], R5
..\src\kf32f_basic_osc.c:407
}
     470:	e8 28       	ADD       SP, #8
     472:	81 5e       	POP       {R6,PC}
     474:	ff ff 0f ff 	.long     0xff0fffff ->-15728641
     478:	30 04 00 00 	.long     0x00000430 ->1072

0000047c <OSC_SCK_Division_Config>:
OSC_SCK_Division_Config():
..\src\kf32f_basic_osc.c:424
  *                         SCLK_DIVISION_128: 1/128蛍撞,
  * 卦指  涙。
  */
void
OSC_SCK_Division_Config (uint32_t SclkDivision)
{
     47c:	81 5f       	PUSH      {R6,LR}
     47e:	e8 30       	SUB       SP, #8
     480:	01 20       	ST.W      [SP + #1], R0
..\src\kf32f_basic_osc.c:425
    uint32_t tmpreg = 0;
     482:	50 10       	MOV       R5, #0
     484:	e5 85       	ST.W      [SP], R5
..\src\kf32f_basic_osc.c:431

    /* 歌方丕刮 */
    CHECK_RESTRICTION(CHECK_SCLK_DIVISION(SclkDivision));

    /*---------------- 譜崔OSC_CTL0篠贋匂SCKDIV了 ----------------*/
    tmpreg = SclkDivision << OSC_CTL0_SCKDIV0_POS;
     486:	01 0d       	LD.W      R5, [SP + #1]
     488:	28 7b       	LSL       R5, #16
     48a:	e5 85       	ST.W      [SP], R5
..\src\kf32f_basic_osc.c:432
    OSC_CTL0 = SFR_Config (OSC_CTL0, ~OSC_CTL0_SCKDIV, tmpreg);
     48c:	61 10       	MOV       R6, #1
     48e:	b6 7b       	LSL       R6, #30
     490:	51 10       	MOV       R5, #1
     492:	ae 7b       	LSL       R5, #30
     494:	55 82       	LD.W      R5, [R5]
     496:	05 58       	MOV       R0, R5
     498:	04 41       	LD        R1, [PC + #4]         ;->0x4a8  :=0xfff8ffff
     49a:	2e 82       	LD.W      R2, [SP]
     49c:	04 45       	LD        R5, [PC + #4]         ;->0x4ac  :=0x430
     49e:	05 5c       	LJMP      R5
     4a0:	a0 58       	MOV       R5, R0
     4a2:	65 85       	ST.W      [R6], R5
..\src\kf32f_basic_osc.c:433
}
     4a4:	e8 28       	ADD       SP, #8
     4a6:	81 5e       	POP       {R6,PC}
     4a8:	ff ff f8 ff 	.long     0xfff8ffff ->-458753
     4ac:	30 04 00 00 	.long     0x00000430 ->1072

000004b0 <OSC_PLL_Input_Source_Config>:
OSC_PLL_Input_Source_Config():
..\src\kf32f_basic_osc.c:445
  *                   PLL_INPUT_EXTHF: 僉夲EXTHF恬葎PLL補秘扮嶝。
  * 卦指  涙。
  */
void
OSC_PLL_Input_Source_Config (uint32_t NewState)
{
     4b0:	e4 30       	SUB       SP, #4
     4b2:	e0 85       	ST.W      [SP], R0
..\src\kf32f_basic_osc.c:450
    /* 歌方丕刮 */
    CHECK_RESTRICTION(CHECK_PLL_INPUT(NewState));

    /*---------------- 譜崔OSC_CTL0篠贋匂PLL0CKS了 ----------------*/
    if (NewState != PLL_INPUT_INTHF)
     4b4:	5e 82       	LD.W      R5, [SP]
     4b6:	50 38       	CMP       R5, #0
     4b8:	05 f0       	JZ        $+5                   ;->0x4c2
..\src\kf32f_basic_osc.c:453
    {
        /* 僉夲EXTHF恬葎PLL補秘扮嶝 */
        SFR_SET_BIT_ASM(OSC_CTL0, OSC_CTL0_PLL0CKS_POS);
     4ba:	51 10       	MOV       R5, #1
     4bc:	ae 7b       	LSL       R5, #30
     4be:	ac 4c       	SET       [R5], #12
     4c0:	04 04       	SJMP      $+4                   ;->0x4c8
..\src\kf32f_basic_osc.c:458
    }
    else
    {
        /* 僉夲INTHF恬葎PLL補秘扮嶝 */
        SFR_CLR_BIT_ASM(OSC_CTL0, OSC_CTL0_PLL0CKS_POS);
     4c2:	51 10       	MOV       R5, #1
     4c4:	ae 7b       	LSL       R5, #30
     4c6:	ac 4e       	CLR       [R5], #12
..\src\kf32f_basic_osc.c:460
    }
}
     4c8:	e4 28       	ADD       SP, #4
     4ca:	1d 5c       	JMP       LR

000004cc <OSC_HFCK_Source_Config>:
OSC_HFCK_Source_Config():
..\src\kf32f_basic_osc.c:474
  *                   HFCK_SOURCE_PLL1: 僉夲PLL1補竃恬葎HFCLK扮嶝,
  * 卦指  涙。
  */
void
OSC_HFCK_Source_Config (uint32_t HFSource)
{
     4cc:	81 5f       	PUSH      {R6,LR}
     4ce:	e8 30       	SUB       SP, #8
     4d0:	01 20       	ST.W      [SP + #1], R0
..\src\kf32f_basic_osc.c:475
    uint32_t tmpreg = 0;
     4d2:	50 10       	MOV       R5, #0
     4d4:	e5 85       	ST.W      [SP], R5
..\src\kf32f_basic_osc.c:481

    /* 歌方丕刮 */
    CHECK_RESTRICTION(CHECK_HFCK_SOURCE(HFSource));

    /*---------------- 譜崔OSC_CTL0篠贋匂HFCKS了 ----------------*/
    tmpreg = HFSource << OSC_CTL0_HFCKS0_POS;
     4d6:	01 0d       	LD.W      R5, [SP + #1]
     4d8:	a9 7a       	LSL       R5, #9
     4da:	e5 85       	ST.W      [SP], R5
..\src\kf32f_basic_osc.c:482
    OSC_CTL0 = SFR_Config (OSC_CTL0, ~OSC_CTL0_HFCKS, tmpreg);
     4dc:	61 10       	MOV       R6, #1
     4de:	b6 7b       	LSL       R6, #30
     4e0:	51 10       	MOV       R5, #1
     4e2:	ae 7b       	LSL       R5, #30
     4e4:	55 82       	LD.W      R5, [R5]
     4e6:	05 58       	MOV       R0, R5
     4e8:	04 41       	LD        R1, [PC + #4]         ;->0x4f8  :=0xfffff1ff
     4ea:	2e 82       	LD.W      R2, [SP]
     4ec:	04 45       	LD        R5, [PC + #4]         ;->0x4fc  :=0x430
     4ee:	05 5c       	LJMP      R5
     4f0:	a0 58       	MOV       R5, R0
     4f2:	65 85       	ST.W      [R6], R5
..\src\kf32f_basic_osc.c:483
}
     4f4:	e8 28       	ADD       SP, #8
     4f6:	81 5e       	POP       {R6,PC}
     4f8:	ff f1 ff ff 	.long     0xfffff1ff ->-3585
     4fc:	30 04 00 00 	.long     0x00000430 ->1072

00000500 <OSC_HFCK_Enable>:
OSC_HFCK_Enable():
..\src\kf32f_basic_osc.c:493
  *                 函峙袈律葎⦿TRUE 賜 FALSE。
  * 卦指  涙。
  */
void
OSC_HFCK_Enable (FunctionalState NewState)
{
     500:	e4 30       	SUB       SP, #4
     502:	e0 85       	ST.W      [SP], R0
..\src\kf32f_basic_osc.c:498
    /* 歌方丕刮 */
    CHECK_RESTRICTION(CHECK_FUNCTIONAL_STATE(NewState));

    /*---------------- 譜崔OSC_CTL0篠贋匂HFCKEN了 ----------------*/
    if (NewState != FALSE)
     504:	5e 82       	LD.W      R5, [SP]
     506:	50 38       	CMP       R5, #0
     508:	05 f0       	JZ        $+5                   ;->0x512
..\src\kf32f_basic_osc.c:501
    {
        /* HFCLK扮嶝佚催塋俯 */
        SFR_SET_BIT_ASM(OSC_CTL0, OSC_CTL0_HFCKEN_POS);
     50a:	51 10       	MOV       R5, #1
     50c:	ae 7b       	LSL       R5, #30
     50e:	a8 4c       	SET       [R5], #8
     510:	04 04       	SJMP      $+4                   ;->0x518
..\src\kf32f_basic_osc.c:506
    }
    else
    {
        /* HFCLK扮嶝佚催鋤峭 */
        SFR_CLR_BIT_ASM(OSC_CTL0, OSC_CTL0_HFCKEN_POS);
     512:	51 10       	MOV       R5, #1
     514:	ae 7b       	LSL       R5, #30
     516:	a8 4e       	CLR       [R5], #8
..\src\kf32f_basic_osc.c:508
    }
}
     518:	e4 28       	ADD       SP, #4
     51a:	1d 5c       	JMP       LR

0000051c <OSC_SCK_Source_Config>:
OSC_SCK_Source_Config():
..\src\kf32f_basic_osc.c:575
  *                     SCLK_SOURCE_LP4M:  僉夲 LP4M 補竃恬葎狼由扮嶝
  * 卦指  涙。
  */
void
OSC_SCK_Source_Config (uint32_t SclkSource)
{
     51c:	81 5f       	PUSH      {R6,LR}
     51e:	e8 30       	SUB       SP, #8
     520:	01 20       	ST.W      [SP + #1], R0
..\src\kf32f_basic_osc.c:576
    uint32_t tmpreg = 0;
     522:	50 10       	MOV       R5, #0
     524:	e5 85       	ST.W      [SP], R5
..\src\kf32f_basic_osc.c:582

    /* 歌方丕刮 */
    CHECK_RESTRICTION(CHECK_SCLK_SOURCE(SclkSource));

    /*---------------- 譜崔OSC_CTL0篠贋匂SCKS了 ----------------*/
    tmpreg = SclkSource << OSC_CTL0_SCKS0_POS;
     526:	01 0d       	LD.W      R5, [SP + #1]
     528:	6d c3       	ADD       R5, R5, R5
     52a:	e5 85       	ST.W      [SP], R5
..\src\kf32f_basic_osc.c:583
    OSC_CTL0 = SFR_Config (OSC_CTL0, ~OSC_CTL0_SCKS, tmpreg);
     52c:	61 10       	MOV       R6, #1
     52e:	b6 7b       	LSL       R6, #30
     530:	51 10       	MOV       R5, #1
     532:	ae 7b       	LSL       R5, #30
     534:	55 82       	LD.W      R5, [R5]
     536:	05 58       	MOV       R0, R5
     538:	1e 10       	MOV       R1, #14
     53a:	11 68       	NOT       R1, R1
     53c:	2e 82       	LD.W      R2, [SP]
     53e:	04 45       	LD        R5, [PC + #4]         ;->0x54c  :=0x430
     540:	05 5c       	LJMP      R5
     542:	a0 58       	MOV       R5, R0
     544:	65 85       	ST.W      [R6], R5
..\src\kf32f_basic_osc.c:584
}
     546:	e8 28       	ADD       SP, #8
     548:	81 5e       	POP       {R6,PC}
     54a:	00 00       	NOP      NOP      
     54c:	30 04 00 00 	.long     0x00000430 ->1072

00000550 <OSC_PLL_Multiple_Value_Select>:
OSC_PLL_Multiple_Value_Select():
..\src\kf32f_basic_osc.c:785
  *					慧寄蔚方=PLLmultiple_M/↙PLLmultiple_N*PLLmultiple_NO⇄
  * 卦指  涙。
  */
void
OSC_PLL_Multiple_Value_Select (uint32_t PLLmultiple_M,uint32_t PLLmultiple_N,uint32_t PLLmultiple_NO)
{
     550:	81 5f       	PUSH      {R6,LR}
     552:	e0 31       	SUB       SP, #16
     554:	01 20       	ST.W      [SP + #1], R0
     556:	02 21       	ST.W      [SP + #2], R1
     558:	03 22       	ST.W      [SP + #3], R2
..\src\kf32f_basic_osc.c:786
    uint32_t tmpreg = 0;
     55a:	50 10       	MOV       R5, #0
     55c:	e5 85       	ST.W      [SP], R5
..\src\kf32f_basic_osc.c:796
    CHECK_RESTRICTION(CHECK_PLL_MULTIPLE_NOValue(PLLmultiple_NO));



    /*---------------- 譜崔PLL_CTL篠贋匂OD了N了M了 ----------------*/
    tmpreg = PLLmultiple_M << PLL_CTL_M0_POS;
     55e:	01 0d       	LD.W      R5, [SP + #1]
     560:	2a 7a       	LSL       R5, #2
     562:	e5 85       	ST.W      [SP], R5
..\src\kf32f_basic_osc.c:797
    PLL_CTL = SFR_Config (PLL_CTL, ~PLL_CTL_M, tmpreg);
     564:	1f 46       	LD        R6, [PC + #31]        ;->0x5e0  :=0x40002580
     566:	1f 45       	LD        R5, [PC + #31]        ;->0x5e0  :=0x40002580
     568:	55 82       	LD.W      R5, [R5]
     56a:	05 58       	MOV       R0, R5
     56c:	1e 41       	LD        R1, [PC + #30]        ;->0x5e4  :=0xffff0003
     56e:	2e 82       	LD.W      R2, [SP]
     570:	1e 45       	LD        R5, [PC + #30]        ;->0x5e8  :=0x430
     572:	05 5c       	LJMP      R5
     574:	a0 58       	MOV       R5, R0
     576:	65 85       	ST.W      [R6], R5
..\src\kf32f_basic_osc.c:799

    tmpreg = PLLmultiple_N << PLL_CTL_N0_POS;
     578:	02 0d       	LD.W      R5, [SP + #2]
     57a:	28 7b       	LSL       R5, #16
     57c:	e5 85       	ST.W      [SP], R5
..\src\kf32f_basic_osc.c:800
    PLL_CTL = SFR_Config (PLL_CTL, ~PLL_CTL_N, tmpreg);
     57e:	19 46       	LD        R6, [PC + #25]        ;->0x5e0  :=0x40002580
     580:	18 45       	LD        R5, [PC + #24]        ;->0x5e0  :=0x40002580
     582:	55 82       	LD.W      R5, [R5]
     584:	05 58       	MOV       R0, R5
     586:	1a 41       	LD        R1, [PC + #26]        ;->0x5ec  :=0xfff0ffff
     588:	2e 82       	LD.W      R2, [SP]
     58a:	18 45       	LD        R5, [PC + #24]        ;->0x5e8  :=0x430
     58c:	05 5c       	LJMP      R5
     58e:	a0 58       	MOV       R5, R0
     590:	65 85       	ST.W      [R6], R5
..\src\kf32f_basic_osc.c:802

    if(PLLmultiple_NO==8){PLLmultiple_NO=3;}
     592:	03 0d       	LD.W      R5, [SP + #3]
     594:	58 38       	CMP       R5, #8
     596:	04 f1       	JNZ       $+4                   ;->0x59e
     598:	53 10       	MOV       R5, #3
     59a:	03 25       	ST.W      [SP + #3], R5
     59c:	12 04       	SJMP      $+18                  ;->0x5c0
..\src\kf32f_basic_osc.c:803
    else if(PLLmultiple_NO==4){PLLmultiple_NO=2;}
     59e:	03 0d       	LD.W      R5, [SP + #3]
     5a0:	54 38       	CMP       R5, #4
     5a2:	04 f1       	JNZ       $+4                   ;->0x5aa
     5a4:	52 10       	MOV       R5, #2
     5a6:	03 25       	ST.W      [SP + #3], R5
     5a8:	0c 04       	SJMP      $+12                  ;->0x5c0
..\src\kf32f_basic_osc.c:804
    else if(PLLmultiple_NO==2){PLLmultiple_NO=1;}
     5aa:	03 0d       	LD.W      R5, [SP + #3]
     5ac:	52 38       	CMP       R5, #2
     5ae:	04 f1       	JNZ       $+4                   ;->0x5b6
     5b0:	51 10       	MOV       R5, #1
     5b2:	03 25       	ST.W      [SP + #3], R5
     5b4:	06 04       	SJMP      $+6                   ;->0x5c0
..\src\kf32f_basic_osc.c:805
    else if(PLLmultiple_NO==1){PLLmultiple_NO=0;}
     5b6:	03 0d       	LD.W      R5, [SP + #3]
     5b8:	51 38       	CMP       R5, #1
     5ba:	03 f1       	JNZ       $+3                   ;->0x5c0
     5bc:	50 10       	MOV       R5, #0
     5be:	03 25       	ST.W      [SP + #3], R5
..\src\kf32f_basic_osc.c:806
    tmpreg = PLLmultiple_NO << PLL_CTL_OD0_POS;
     5c0:	03 0d       	LD.W      R5, [SP + #3]
     5c2:	2c 7b       	LSL       R5, #20
     5c4:	e5 85       	ST.W      [SP], R5
..\src\kf32f_basic_osc.c:807
    PLL_CTL = SFR_Config (PLL_CTL, ~PLL_CTL_OD, tmpreg);
     5c6:	07 46       	LD        R6, [PC + #7]         ;->0x5e0  :=0x40002580
     5c8:	06 45       	LD        R5, [PC + #6]         ;->0x5e0  :=0x40002580
     5ca:	55 82       	LD.W      R5, [R5]
     5cc:	05 58       	MOV       R0, R5
     5ce:	09 41       	LD        R1, [PC + #9]         ;->0x5f0  :=0xffcfffff
     5d0:	2e 82       	LD.W      R2, [SP]
     5d2:	06 45       	LD        R5, [PC + #6]         ;->0x5e8  :=0x430
     5d4:	05 5c       	LJMP      R5
     5d6:	a0 58       	MOV       R5, R0
     5d8:	65 85       	ST.W      [R6], R5
..\src\kf32f_basic_osc.c:810


}
     5da:	e0 29       	ADD       SP, #16
     5dc:	81 5e       	POP       {R6,PC}
     5de:	00 00       	NOP      NOP      
     5e0:	80 25 00 40 	.long     0x40002580 ->1073751424
     5e4:	03 00 ff ff 	.long     0xffff0003 ->-65533
     5e8:	30 04 00 00 	.long     0x00000430 ->1072
     5ec:	ff ff f0 ff 	.long     0xfff0ffff ->-983041
     5f0:	ff ff cf ff 	.long     0xffcfffff ->-3145729

000005f4 <OSC_PLL_RST>:
OSC_PLL_RST():
..\src\kf32f_basic_osc.c:819
  * 卦指 ⦿涙
  */
void OSC_PLL_RST(void)
{
    /*---------------- 譜崔PLL_CTL篠贋匂PDRST了 ----------------*/
    SFR_SET_BIT_ASM(PLL_CTL, PLL_CTL_PDRST_POS);
     5f4:	02 45       	LD        R5, [PC + #2]         ;->0x5fc  :=0x40002580
     5f6:	28 4c       	SET       [R5], #0
..\src\kf32f_basic_osc.c:820
}
     5f8:	1d 5c       	JMP       LR
     5fa:	00 00       	NOP      NOP      
     5fc:	80 25 00 40 	.long     0x40002580 ->1073751424

00000600 <OSC_PLL_Start_Delay_Config>:
OSC_PLL_Start_Delay_Config():
..\src\kf32f_basic_osc.c:838
  *                   PLL_START_DELAY_32768: 决岳32768倖扮嶝
  * 卦指  涙。
  */
void
OSC_PLL_Start_Delay_Config (uint32_t PLLDelay)
{
     600:	81 5f       	PUSH      {R6,LR}
     602:	e8 30       	SUB       SP, #8
     604:	01 20       	ST.W      [SP + #1], R0
..\src\kf32f_basic_osc.c:839
    uint32_t tmpreg = 0;
     606:	50 10       	MOV       R5, #0
     608:	e5 85       	ST.W      [SP], R5
..\src\kf32f_basic_osc.c:845

    /* 歌方丕刮 */
    CHECK_RESTRICTION(CHECK_PLL_START_DELAY(PLLDelay));

    /*---------------- 譜崔OSC_CTL2篠贋匂PLLDLY了 ----------------*/
    tmpreg = PLLDelay << OSC_CTL2_PLLDLY0_POS;
     60a:	01 0d       	LD.W      R5, [SP + #1]
     60c:	a8 7b       	LSL       R5, #24
     60e:	e5 85       	ST.W      [SP], R5
..\src\kf32f_basic_osc.c:846
    OSC_CTL2 = SFR_Config (OSC_CTL2, ~OSC_CTL2_PLLDLY, tmpreg);
     610:	61 10       	MOV       R6, #1
     612:	b6 7b       	LSL       R6, #30
     614:	51 10       	MOV       R5, #1
     616:	ae 7b       	LSL       R5, #30
     618:	ed 98       	LD.W      R5, [R5 + #3]
     61a:	05 58       	MOV       R0, R5
     61c:	04 41       	LD        R1, [PC + #4]         ;->0x62c  :=0xf0ffffff
     61e:	2e 82       	LD.W      R2, [SP]
     620:	04 45       	LD        R5, [PC + #4]         ;->0x630  :=0x430
     622:	05 5c       	LJMP      R5
     624:	a0 58       	MOV       R5, R0
     626:	f5 a0       	ST.W      [R6 + #3], R5
..\src\kf32f_basic_osc.c:847
}
     628:	e8 28       	ADD       SP, #8
     62a:	81 5e       	POP       {R6,PC}
     62c:	ff ff ff f0 	.long     0xf0ffffff ->-251658241
     630:	30 04 00 00 	.long     0x00000430 ->1072

00000634 <OSC_PLL_Software_Enable>:
OSC_PLL_Software_Enable():
..\src\kf32f_basic_osc.c:913
  * 補秘  NewState: PLL罷周聞嬬彜蓑⇧函峙袈律葎⦿TRUE 賜 FALSE。
  * 卦指  涙。
  */
void
OSC_PLL_Software_Enable (FunctionalState NewState)
{
     634:	e4 30       	SUB       SP, #4
     636:	e0 85       	ST.W      [SP], R0
..\src\kf32f_basic_osc.c:918
    /* 歌方丕刮 */
    CHECK_RESTRICTION(CHECK_FUNCTIONAL_STATE(NewState));

    /*---------------- 譜崔OSC_CTL2篠贋匂PLLSWEN了 ----------------*/
    if (NewState != FALSE)
     638:	5e 82       	LD.W      R5, [SP]
     63a:	50 38       	CMP       R5, #0
     63c:	04 f0       	JZ        $+4                   ;->0x644
..\src\kf32f_basic_osc.c:921
    {
        /* 聞嬬PLL垢恬 */
        SFR_SET_BIT_ASM(OSC_CTL2, OSC_CTL2_PLLSWEN_POS);
     63e:	04 45       	LD        R5, [PC + #4]         ;->0x64c  :=0x4000000c
     640:	2c 4c       	SET       [R5], #4
     642:	03 04       	SJMP      $+3                   ;->0x648
..\src\kf32f_basic_osc.c:926
    }
    else
    {
        /* 涙丼 */
        SFR_CLR_BIT_ASM(OSC_CTL2, OSC_CTL2_PLLSWEN_POS);
     644:	02 45       	LD        R5, [PC + #2]         ;->0x64c  :=0x4000000c
     646:	2c 4e       	CLR       [R5], #4
..\src\kf32f_basic_osc.c:928
    }
}
     648:	e4 28       	ADD       SP, #4
     64a:	1d 5c       	JMP       LR
     64c:	0c 00 00 40 	.long     0x4000000c ->1073741836

00000650 <OSC_INTHF_Software_Enable>:
OSC_INTHF_Software_Enable():
..\src\kf32f_basic_osc.c:985
  * 補秘  NewState: 坪何互撞尅鬼匂罷周聞嬬彜蓑⇧函峙袈律葎⦿TRUE 賜 FALSE。
  * 卦指  涙。
  */
void
OSC_INTHF_Software_Enable (FunctionalState NewState)
{
     650:	e4 30       	SUB       SP, #4
     652:	e0 85       	ST.W      [SP], R0
..\src\kf32f_basic_osc.c:990
    /* 歌方丕刮 */
    CHECK_RESTRICTION(CHECK_FUNCTIONAL_STATE(NewState));

    /*---------------- 譜崔OSC_CTL2篠贋匂INTHFSWEN了 ----------------*/
    if (NewState != FALSE)
     654:	5e 82       	LD.W      R5, [SP]
     656:	50 38       	CMP       R5, #0
     658:	04 f0       	JZ        $+4                   ;->0x660
..\src\kf32f_basic_osc.c:993
    {
        /* 聞嬬坪何互撞尅鬼匂垢恬 */
        SFR_SET_BIT_ASM(OSC_CTL2, OSC_CTL2_INTHFSWEN_POS);
     65a:	04 45       	LD        R5, [PC + #4]         ;->0x668  :=0x4000000c
     65c:	29 4c       	SET       [R5], #1
     65e:	03 04       	SJMP      $+3                   ;->0x664
..\src\kf32f_basic_osc.c:998
    }
    else
    {
        /* 涙丼 */
        SFR_CLR_BIT_ASM(OSC_CTL2, OSC_CTL2_INTHFSWEN_POS);
     660:	02 45       	LD        R5, [PC + #2]         ;->0x668  :=0x4000000c
     662:	29 4e       	CLR       [R5], #1
..\src\kf32f_basic_osc.c:1000
    }
}
     664:	e4 28       	ADD       SP, #4
     666:	1d 5c       	JMP       LR
     668:	0c 00 00 40 	.long     0x4000000c ->1073741836

0000066c <OSC_Get_PLL_INT_Flag>:
OSC_Get_PLL_INT_Flag():
..\src\kf32f_basic_osc.c:1544
  */
FlagStatus
OSC_Get_PLL_INT_Flag (void)
{
    /*---------------- 譜崔OSC_INT篠贋匂PLLIF了 ----------------*/
    if (OSC_INT & OSC_INT_PLLIF)
     66c:	51 10       	MOV       R5, #1
     66e:	ae 7b       	LSL       R5, #30
     670:	a5 98       	LD.W      R4, [R5 + #2]
     672:	50 11       	MOV       R5, #16
     674:	6c d5       	ANL       R5, R4, R5
     676:	50 38       	CMP       R5, #0
     678:	03 f0       	JZ        $+3                   ;->0x67e
..\src\kf32f_basic_osc.c:1547
    {
        /* PLL迄協 */
        return SET;
     67a:	51 10       	MOV       R5, #1
     67c:	02 04       	SJMP      $+2                   ;->0x680
..\src\kf32f_basic_osc.c:1552
    }
    else
    {
        /* PLL隆迄協 */
        return RESET;
     67e:	50 10       	MOV       R5, #0
..\src\kf32f_basic_osc.c:1554
    }
}
     680:	05 58       	MOV       R0, R5
     682:	1d 5c       	JMP       LR

00000684 <OSC_Get_INTHF_INT_Flag>:
OSC_Get_INTHF_INT_Flag():
..\src\kf32f_basic_osc.c:1607
  */
FlagStatus
OSC_Get_INTHF_INT_Flag (void)
{
    /*---------------- 譜崔OSC_INT篠贋匂IHFIF了 ----------------*/
    if (OSC_INT & OSC_INT_IHFIF)
     684:	51 10       	MOV       R5, #1
     686:	ae 7b       	LSL       R5, #30
     688:	a5 98       	LD.W      R4, [R5 + #2]
     68a:	52 10       	MOV       R5, #2
     68c:	6c d5       	ANL       R5, R4, R5
     68e:	50 38       	CMP       R5, #0
     690:	03 f0       	JZ        $+3                   ;->0x696
..\src\kf32f_basic_osc.c:1610
    {
        /* PLL迄協 */
        return SET;
     692:	51 10       	MOV       R5, #1
     694:	02 04       	SJMP      $+2                   ;->0x698
..\src\kf32f_basic_osc.c:1615
    }
    else
    {
        /* PLL隆迄協 */
        return RESET;
     696:	50 10       	MOV       R5, #0
..\src\kf32f_basic_osc.c:1617
    }
}
     698:	05 58       	MOV       R0, R5
     69a:	1d 5c       	JMP       LR

0000069c <PCLK_CTL1_Peripheral_Clock_Enable>:
PCLK_CTL1_Peripheral_Clock_Enable():
..\src\kf32f_basic_pclk.c:88
  * 卦指  涙。
  */
void
PCLK_CTL1_Peripheral_Clock_Enable (uint32_t PCLK_CTL1_bit,
                    FunctionalState NewState)
{
     69c:	e8 30       	SUB       SP, #8
     69e:	e0 85       	ST.W      [SP], R0
     6a0:	01 21       	ST.W      [SP + #1], R1
..\src\kf32f_basic_pclk.c:93
    /* 歌方丕刮 */
    CHECK_RESTRICTION(CHECK_PCLK_CTL1_PERIPH(PCLK_CTL1_bit));
    CHECK_RESTRICTION(CHECK_FUNCTIONAL_STATE(NewState));

    if (NewState != FALSE)
     6a2:	01 0d       	LD.W      R5, [SP + #1]
     6a4:	50 38       	CMP       R5, #0
     6a6:	08 f0       	JZ        $+8                   ;->0x6b6
..\src\kf32f_basic_pclk.c:95
    {
        PCLK_CTL1 |= PCLK_CTL1_bit;
     6a8:	08 45       	LD        R5, [PC + #8]         ;->0x6c8  :=0x40002640
     6aa:	08 44       	LD        R4, [PC + #8]         ;->0x6c8  :=0x40002640
     6ac:	5c 98       	LD.W      R3, [R4 + #1]
     6ae:	4e 82       	LD.W      R4, [SP]
     6b0:	23 d7       	ORL       R4, R3, R4
     6b2:	6c a0       	ST.W      [R5 + #1], R4
     6b4:	08 04       	SJMP      $+8                   ;->0x6c4
..\src\kf32f_basic_pclk.c:99
    }
    else
    {
        PCLK_CTL1 &= ~PCLK_CTL1_bit;
     6b6:	05 44       	LD        R4, [PC + #5]         ;->0x6c8  :=0x40002640
     6b8:	04 45       	LD        R5, [PC + #4]         ;->0x6c8  :=0x40002640
     6ba:	5d 98       	LD.W      R3, [R5 + #1]
     6bc:	5e 82       	LD.W      R5, [SP]
     6be:	55 68       	NOT       R5, R5
     6c0:	6b d5       	ANL       R5, R3, R5
     6c2:	65 a0       	ST.W      [R4 + #1], R5
..\src\kf32f_basic_pclk.c:101
    }
}
     6c4:	e8 28       	ADD       SP, #8
     6c6:	1d 5c       	JMP       LR
     6c8:	40 26 00 40 	.long     0x40002640 ->1073751616

000006cc <PCLK_CTL2_Peripheral_Clock_Enable>:
PCLK_CTL2_Peripheral_Clock_Enable():
..\src\kf32f_basic_pclk.c:130
  * 卦指  涙。
  */
void
PCLK_CTL2_Peripheral_Clock_Enable (uint32_t PCLK_CTL2_bit,
                    FunctionalState NewState)
{
     6cc:	e8 30       	SUB       SP, #8
     6ce:	e0 85       	ST.W      [SP], R0
     6d0:	01 21       	ST.W      [SP + #1], R1
..\src\kf32f_basic_pclk.c:135
    /* 歌方丕刮 */
    CHECK_RESTRICTION(CHECK_PCLK_CTL2_PERIPH(PCLK_CTL2_bit));
    CHECK_RESTRICTION(CHECK_FUNCTIONAL_STATE(NewState));

    if (NewState != FALSE)
     6d2:	01 0d       	LD.W      R5, [SP + #1]
     6d4:	50 38       	CMP       R5, #0
     6d6:	08 f0       	JZ        $+8                   ;->0x6e6
..\src\kf32f_basic_pclk.c:137
    {
        PCLK_CTL2 |= PCLK_CTL2_bit;
     6d8:	08 45       	LD        R5, [PC + #8]         ;->0x6f8  :=0x40002640
     6da:	08 44       	LD        R4, [PC + #8]         ;->0x6f8  :=0x40002640
     6dc:	9c 98       	LD.W      R3, [R4 + #2]
     6de:	4e 82       	LD.W      R4, [SP]
     6e0:	23 d7       	ORL       R4, R3, R4
     6e2:	ac a0       	ST.W      [R5 + #2], R4
     6e4:	08 04       	SJMP      $+8                   ;->0x6f4
..\src\kf32f_basic_pclk.c:141
    }
    else
    {
        PCLK_CTL2 &= ~PCLK_CTL2_bit;
     6e6:	05 44       	LD        R4, [PC + #5]         ;->0x6f8  :=0x40002640
     6e8:	04 45       	LD        R5, [PC + #4]         ;->0x6f8  :=0x40002640
     6ea:	9d 98       	LD.W      R3, [R5 + #2]
     6ec:	5e 82       	LD.W      R5, [SP]
     6ee:	55 68       	NOT       R5, R5
     6f0:	6b d5       	ANL       R5, R3, R5
     6f2:	a5 a0       	ST.W      [R4 + #2], R5
..\src\kf32f_basic_pclk.c:143
    }
}
     6f4:	e8 28       	ADD       SP, #8
     6f6:	1d 5c       	JMP       LR
     6f8:	40 26 00 40 	.long     0x40002640 ->1073751616

000006fc <RST_CTL1_Peripheral_Reset_Enable>:
RST_CTL1_Peripheral_Reset_Enable():
..\src\kf32f_basic_rst.c:89
  * 卦指  涙。
  */
void
RST_CTL1_Peripheral_Reset_Enable (uint32_t RST_CTL1_bit,
                    FunctionalState NewState)
{
     6fc:	e8 30       	SUB       SP, #8
     6fe:	e0 85       	ST.W      [SP], R0
     700:	01 21       	ST.W      [SP + #1], R1
..\src\kf32f_basic_rst.c:94
    /* 歌方丕刮 */
    CHECK_RESTRICTION(CHECK_RST_CTL1_RESET_PERIPH(RST_CTL1_bit));
    CHECK_RESTRICTION(CHECK_FUNCTIONAL_STATE(NewState));

    if (NewState != FALSE)
     702:	01 0d       	LD.W      R5, [SP + #1]
     704:	50 38       	CMP       R5, #0
     706:	08 f0       	JZ        $+8                   ;->0x716
..\src\kf32f_basic_rst.c:96
    {
        RST_CTL1 |= RST_CTL1_bit;
     708:	08 45       	LD        R5, [PC + #8]         ;->0x728  :=0x40001500
     70a:	08 44       	LD        R4, [PC + #8]         ;->0x728  :=0x40001500
     70c:	5c 98       	LD.W      R3, [R4 + #1]
     70e:	4e 82       	LD.W      R4, [SP]
     710:	23 d7       	ORL       R4, R3, R4
     712:	6c a0       	ST.W      [R5 + #1], R4
     714:	08 04       	SJMP      $+8                   ;->0x724
..\src\kf32f_basic_rst.c:100
    }
    else
    {
        RST_CTL1 &= ~RST_CTL1_bit;
     716:	05 44       	LD        R4, [PC + #5]         ;->0x728  :=0x40001500
     718:	04 45       	LD        R5, [PC + #4]         ;->0x728  :=0x40001500
     71a:	5d 98       	LD.W      R3, [R5 + #1]
     71c:	5e 82       	LD.W      R5, [SP]
     71e:	55 68       	NOT       R5, R5
     720:	6b d5       	ANL       R5, R3, R5
     722:	65 a0       	ST.W      [R4 + #1], R5
..\src\kf32f_basic_rst.c:102
    }
}
     724:	e8 28       	ADD       SP, #8
     726:	1d 5c       	JMP       LR
     728:	00 15 00 40 	.long     0x40001500 ->1073747200

0000072c <RST_CTL2_Peripheral_Reset_Enable>:
RST_CTL2_Peripheral_Reset_Enable():
..\src\kf32f_basic_rst.c:131
  * 卦指  涙。
  */
void
RST_CTL2_Peripheral_Reset_Enable (uint32_t RST_CTL2_bit,
                    FunctionalState NewState)
{
     72c:	e8 30       	SUB       SP, #8
     72e:	e0 85       	ST.W      [SP], R0
     730:	01 21       	ST.W      [SP + #1], R1
..\src\kf32f_basic_rst.c:136
    /* 歌方丕刮 */
    CHECK_RESTRICTION(CHECK_RST_CTL2_RESET_PERIPH(RST_CTL2_bit));
    CHECK_RESTRICTION(CHECK_FUNCTIONAL_STATE(NewState));

    if (NewState != FALSE)
     732:	01 0d       	LD.W      R5, [SP + #1]
     734:	50 38       	CMP       R5, #0
     736:	08 f0       	JZ        $+8                   ;->0x746
..\src\kf32f_basic_rst.c:138
    {
        RST_CTL2 |= RST_CTL2_bit;
     738:	08 45       	LD        R5, [PC + #8]         ;->0x758  :=0x40001500
     73a:	08 44       	LD        R4, [PC + #8]         ;->0x758  :=0x40001500
     73c:	9c 98       	LD.W      R3, [R4 + #2]
     73e:	4e 82       	LD.W      R4, [SP]
     740:	23 d7       	ORL       R4, R3, R4
     742:	ac a0       	ST.W      [R5 + #2], R4
     744:	08 04       	SJMP      $+8                   ;->0x754
..\src\kf32f_basic_rst.c:142
    }
    else
    {
        RST_CTL2 &= ~RST_CTL2_bit;
     746:	05 44       	LD        R4, [PC + #5]         ;->0x758  :=0x40001500
     748:	04 45       	LD        R5, [PC + #4]         ;->0x758  :=0x40001500
     74a:	9d 98       	LD.W      R3, [R5 + #2]
     74c:	5e 82       	LD.W      R5, [SP]
     74e:	55 68       	NOT       R5, R5
     750:	6b d5       	ANL       R5, R3, R5
     752:	a5 a0       	ST.W      [R4 + #2], R5
..\src\kf32f_basic_rst.c:144
    }
}
     754:	e8 28       	ADD       SP, #8
     756:	1d 5c       	JMP       LR
     758:	00 15 00 40 	.long     0x40001500 ->1073747200

0000075c <SFR_Config>:
SFR_Config():
KF32F_BASIC.h:12950
   -- 痕方協吶
   ---------------------------------------------------------------------------- */
/* 亟蒙歩孔嬬篠贋匂 */
static inline uint32_t
SFR_Config (uint32_t SfrMem, uint32_t SfrMask, uint32_t WriteVal)
{
     75c:	ec 30       	SUB       SP, #12
     75e:	e0 85       	ST.W      [SP], R0
     760:	01 21       	ST.W      [SP + #1], R1
     762:	02 22       	ST.W      [SP + #2], R2
KF32F_BASIC.h:12951
    return ((SfrMem & SfrMask) | (WriteVal));
     764:	5e 82       	LD.W      R5, [SP]
     766:	01 0c       	LD.W      R4, [SP + #1]
     768:	25 d5       	ANL       R4, R5, R4
     76a:	02 0d       	LD.W      R5, [SP + #2]
     76c:	6c d7       	ORL       R5, R4, R5
KF32F_BASIC.h:12952
}
     76e:	05 58       	MOV       R0, R5
     770:	ec 28       	ADD       SP, #12
     772:	1d 5c       	JMP       LR

00000774 <USART_Reset>:
USART_Reset():
..\src\kf32f_basic_usart.c:57
  * 補秘  USARTx: 峺﨑USART坪贋潤更議峺寞⇧函峙葎USART0_SFR~USART8_SFR。
  * 卦指  涙。
  */
void
USART_Reset (USART_SFRmap* USARTx)
{
     774:	2d 5d       	PUSH      LR
     776:	e4 30       	SUB       SP, #4
     778:	e0 85       	ST.W      [SP], R0
..\src\kf32f_basic_usart.c:61
    /* 歌方丕刮 */
    CHECK_RESTRICTION(CHECK_USART_ALL_PERIPH(USARTx));
#ifdef  KF32F_Periph_usart0
    if (USARTx == USART0_SFR)
     77a:	5e 82       	LD.W      R5, [SP]
     77c:	4d 44       	LD        R4, [PC + #77]        ;->0x8b0  :=0x40000980
     77e:	54 70       	CMP       R5, R4
     780:	10 f1       	JNZ       $+16                  ;->0x7a0
..\src\kf32f_basic_usart.c:63
    {
        RST_CTL1_Peripheral_Reset_Enable(RST_CTL1_USART0RST, TRUE);
     782:	01 10       	MOV       R0, #1
     784:	03 7b       	LSL       R0, #19
     786:	11 10       	MOV       R1, #1
     788:	4b 45       	LD        R5, [PC + #75]        ;->0x8b4  :=0x6fc
     78a:	05 5c       	LJMP      R5
..\src\kf32f_basic_usart.c:64
        RST_CTL1_Peripheral_Reset_Enable(RST_CTL1_USART0RST, FALSE);
     78c:	01 10       	MOV       R0, #1
     78e:	03 7b       	LSL       R0, #19
     790:	10 10       	MOV       R1, #0
     792:	49 45       	LD        R5, [PC + #73]        ;->0x8b4  :=0x6fc
     794:	05 5c       	LJMP      R5
..\src\kf32f_basic_usart.c:65
        PCLK_CTL1_Peripheral_Clock_Enable(PCLK_CTL1_USART0CLKEN, TRUE);
     796:	01 10       	MOV       R0, #1
     798:	03 7b       	LSL       R0, #19
     79a:	11 10       	MOV       R1, #1
     79c:	47 45       	LD        R5, [PC + #71]        ;->0x8b8  :=0x69c
     79e:	05 5c       	LJMP      R5
..\src\kf32f_basic_usart.c:69
    }
#endif
#ifdef  KF32F_Periph_usart1
    if (USARTx == USART1_SFR)
     7a0:	5e 82       	LD.W      R5, [SP]
     7a2:	47 44       	LD        R4, [PC + #71]        ;->0x8bc  :=0x40000a00
     7a4:	54 70       	CMP       R5, R4
     7a6:	10 f1       	JNZ       $+16                  ;->0x7c6
..\src\kf32f_basic_usart.c:71
    {
        RST_CTL1_Peripheral_Reset_Enable(RST_CTL1_USART1RST, TRUE);
     7a8:	01 10       	MOV       R0, #1
     7aa:	04 7b       	LSL       R0, #20
     7ac:	11 10       	MOV       R1, #1
     7ae:	42 45       	LD        R5, [PC + #66]        ;->0x8b4  :=0x6fc
     7b0:	05 5c       	LJMP      R5
..\src\kf32f_basic_usart.c:72
        RST_CTL1_Peripheral_Reset_Enable(RST_CTL1_USART1RST, FALSE);
     7b2:	01 10       	MOV       R0, #1
     7b4:	04 7b       	LSL       R0, #20
     7b6:	10 10       	MOV       R1, #0
     7b8:	3f 45       	LD        R5, [PC + #63]        ;->0x8b4  :=0x6fc
     7ba:	05 5c       	LJMP      R5
..\src\kf32f_basic_usart.c:73
        PCLK_CTL1_Peripheral_Clock_Enable(PCLK_CTL1_USART1CLKEN, TRUE);
     7bc:	01 10       	MOV       R0, #1
     7be:	04 7b       	LSL       R0, #20
     7c0:	11 10       	MOV       R1, #1
     7c2:	3e 45       	LD        R5, [PC + #62]        ;->0x8b8  :=0x69c
     7c4:	05 5c       	LJMP      R5
..\src\kf32f_basic_usart.c:77
    }
#endif
#ifdef  KF32F_Periph_usart2
    if (USARTx == USART2_SFR)
     7c6:	5e 82       	LD.W      R5, [SP]
     7c8:	3e 44       	LD        R4, [PC + #62]        ;->0x8c0  :=0x40000a80
     7ca:	54 70       	CMP       R5, R4
     7cc:	10 f1       	JNZ       $+16                  ;->0x7ec
..\src\kf32f_basic_usart.c:79
    {
        RST_CTL1_Peripheral_Reset_Enable(RST_CTL1_USART2RST, TRUE);
     7ce:	01 10       	MOV       R0, #1
     7d0:	05 7b       	LSL       R0, #21
     7d2:	11 10       	MOV       R1, #1
     7d4:	38 45       	LD        R5, [PC + #56]        ;->0x8b4  :=0x6fc
     7d6:	05 5c       	LJMP      R5
..\src\kf32f_basic_usart.c:80
        RST_CTL1_Peripheral_Reset_Enable(RST_CTL1_USART2RST, FALSE);
     7d8:	01 10       	MOV       R0, #1
     7da:	05 7b       	LSL       R0, #21
     7dc:	10 10       	MOV       R1, #0
     7de:	36 45       	LD        R5, [PC + #54]        ;->0x8b4  :=0x6fc
     7e0:	05 5c       	LJMP      R5
..\src\kf32f_basic_usart.c:81
        PCLK_CTL1_Peripheral_Clock_Enable(PCLK_CTL1_USART2CLKEN, TRUE);
     7e2:	01 10       	MOV       R0, #1
     7e4:	05 7b       	LSL       R0, #21
     7e6:	11 10       	MOV       R1, #1
     7e8:	34 45       	LD        R5, [PC + #52]        ;->0x8b8  :=0x69c
     7ea:	05 5c       	LJMP      R5
..\src\kf32f_basic_usart.c:85
    }
#endif
#ifdef  KF32F_Periph_usart3
    if (USARTx == USART3_SFR)
     7ec:	5e 82       	LD.W      R5, [SP]
     7ee:	36 44       	LD        R4, [PC + #54]        ;->0x8c4  :=0x40000b00
     7f0:	54 70       	CMP       R5, R4
     7f2:	10 f1       	JNZ       $+16                  ;->0x812
..\src\kf32f_basic_usart.c:87
    {
        RST_CTL1_Peripheral_Reset_Enable(RST_CTL1_USART3RST, TRUE);
     7f4:	01 10       	MOV       R0, #1
     7f6:	06 7b       	LSL       R0, #22
     7f8:	11 10       	MOV       R1, #1
     7fa:	2f 45       	LD        R5, [PC + #47]        ;->0x8b4  :=0x6fc
     7fc:	05 5c       	LJMP      R5
..\src\kf32f_basic_usart.c:88
        RST_CTL1_Peripheral_Reset_Enable(RST_CTL1_USART3RST, FALSE);
     7fe:	01 10       	MOV       R0, #1
     800:	06 7b       	LSL       R0, #22
     802:	10 10       	MOV       R1, #0
     804:	2c 45       	LD        R5, [PC + #44]        ;->0x8b4  :=0x6fc
     806:	05 5c       	LJMP      R5
..\src\kf32f_basic_usart.c:89
        PCLK_CTL1_Peripheral_Clock_Enable(PCLK_CTL1_USART3CLKEN, TRUE);
     808:	01 10       	MOV       R0, #1
     80a:	06 7b       	LSL       R0, #22
     80c:	11 10       	MOV       R1, #1
     80e:	2b 45       	LD        R5, [PC + #43]        ;->0x8b8  :=0x69c
     810:	05 5c       	LJMP      R5
..\src\kf32f_basic_usart.c:93
    }
#endif
#ifdef  KF32F_Periph_usart4
    if (USARTx == USART4_SFR)
     812:	5e 82       	LD.W      R5, [SP]
     814:	2d 44       	LD        R4, [PC + #45]        ;->0x8c8  :=0x40000b80
     816:	54 70       	CMP       R5, R4
     818:	10 f1       	JNZ       $+16                  ;->0x838
..\src\kf32f_basic_usart.c:95
    {
        RST_CTL1_Peripheral_Reset_Enable(RST_CTL1_USART4RST, TRUE);
     81a:	01 10       	MOV       R0, #1
     81c:	07 7b       	LSL       R0, #23
     81e:	11 10       	MOV       R1, #1
     820:	25 45       	LD        R5, [PC + #37]        ;->0x8b4  :=0x6fc
     822:	05 5c       	LJMP      R5
..\src\kf32f_basic_usart.c:96
        RST_CTL1_Peripheral_Reset_Enable(RST_CTL1_USART4RST, FALSE);
     824:	01 10       	MOV       R0, #1
     826:	07 7b       	LSL       R0, #23
     828:	10 10       	MOV       R1, #0
     82a:	23 45       	LD        R5, [PC + #35]        ;->0x8b4  :=0x6fc
     82c:	05 5c       	LJMP      R5
..\src\kf32f_basic_usart.c:97
        PCLK_CTL1_Peripheral_Clock_Enable(PCLK_CTL1_USART4CLKEN, TRUE);
     82e:	01 10       	MOV       R0, #1
     830:	07 7b       	LSL       R0, #23
     832:	11 10       	MOV       R1, #1
     834:	21 45       	LD        R5, [PC + #33]        ;->0x8b8  :=0x69c
     836:	05 5c       	LJMP      R5
..\src\kf32f_basic_usart.c:101
    }
#endif
#ifdef  KF32F_Periph_usart5
   if (USARTx == USART5_SFR)
     838:	5e 82       	LD.W      R5, [SP]
     83a:	25 44       	LD        R4, [PC + #37]        ;->0x8cc  :=0x40001e80
     83c:	54 70       	CMP       R5, R4
     83e:	10 f1       	JNZ       $+16                  ;->0x85e
..\src\kf32f_basic_usart.c:103
    {
        RST_CTL2_Peripheral_Reset_Enable(RST_CTL2_USART5RST, TRUE);
     840:	01 10       	MOV       R0, #1
     842:	85 7b       	LSL       R0, #29
     844:	11 10       	MOV       R1, #1
     846:	23 45       	LD        R5, [PC + #35]        ;->0x8d0  :=0x72c
     848:	05 5c       	LJMP      R5
..\src\kf32f_basic_usart.c:104
        RST_CTL2_Peripheral_Reset_Enable(RST_CTL2_USART5RST, FALSE);
     84a:	01 10       	MOV       R0, #1
     84c:	85 7b       	LSL       R0, #29
     84e:	10 10       	MOV       R1, #0
     850:	20 45       	LD        R5, [PC + #32]        ;->0x8d0  :=0x72c
     852:	05 5c       	LJMP      R5
..\src\kf32f_basic_usart.c:105
        PCLK_CTL2_Peripheral_Clock_Enable(PCLK_CTL2_USART5CLKEN, TRUE);
     854:	01 10       	MOV       R0, #1
     856:	85 7b       	LSL       R0, #29
     858:	11 10       	MOV       R1, #1
     85a:	1f 45       	LD        R5, [PC + #31]        ;->0x8d4  :=0x6cc
     85c:	05 5c       	LJMP      R5
..\src\kf32f_basic_usart.c:109
    }
#endif
#ifdef  KF32F_Periph_usart6
   if (USARTx == USART6_SFR)
     85e:	5e 82       	LD.W      R5, [SP]
     860:	1e 44       	LD        R4, [PC + #30]        ;->0x8d8  :=0x40001f00
     862:	54 70       	CMP       R5, R4
     864:	10 f1       	JNZ       $+16                  ;->0x884
..\src\kf32f_basic_usart.c:111
    {
        RST_CTL2_Peripheral_Reset_Enable(RST_CTL2_USART6RST, TRUE);
     866:	01 10       	MOV       R0, #1
     868:	86 7b       	LSL       R0, #30
     86a:	11 10       	MOV       R1, #1
     86c:	19 45       	LD        R5, [PC + #25]        ;->0x8d0  :=0x72c
     86e:	05 5c       	LJMP      R5
..\src\kf32f_basic_usart.c:112
        RST_CTL2_Peripheral_Reset_Enable(RST_CTL2_USART6RST, FALSE);
     870:	01 10       	MOV       R0, #1
     872:	86 7b       	LSL       R0, #30
     874:	10 10       	MOV       R1, #0
     876:	17 45       	LD        R5, [PC + #23]        ;->0x8d0  :=0x72c
     878:	05 5c       	LJMP      R5
..\src\kf32f_basic_usart.c:113
        PCLK_CTL2_Peripheral_Clock_Enable(PCLK_CTL2_USART6CLKEN, TRUE);
     87a:	01 10       	MOV       R0, #1
     87c:	86 7b       	LSL       R0, #30
     87e:	11 10       	MOV       R1, #1
     880:	15 45       	LD        R5, [PC + #21]        ;->0x8d4  :=0x6cc
     882:	05 5c       	LJMP      R5
..\src\kf32f_basic_usart.c:117
    }
#endif
#ifdef  KF32F_Periph_usart7
    if (USARTx == USART7_SFR)
     884:	5e 82       	LD.W      R5, [SP]
     886:	16 44       	LD        R4, [PC + #22]        ;->0x8dc  :=0x40001f80
     888:	54 70       	CMP       R5, R4
     88a:	10 f1       	JNZ       $+16                  ;->0x8aa
..\src\kf32f_basic_usart.c:119
    {
        RST_CTL2_Peripheral_Reset_Enable(RST_CTL2_USART7RST, TRUE);
     88c:	01 10       	MOV       R0, #1
     88e:	87 7b       	LSL       R0, #31
     890:	11 10       	MOV       R1, #1
     892:	10 45       	LD        R5, [PC + #16]        ;->0x8d0  :=0x72c
     894:	05 5c       	LJMP      R5
..\src\kf32f_basic_usart.c:120
        RST_CTL2_Peripheral_Reset_Enable(RST_CTL2_USART7RST, FALSE);
     896:	01 10       	MOV       R0, #1
     898:	87 7b       	LSL       R0, #31
     89a:	10 10       	MOV       R1, #0
     89c:	0d 45       	LD        R5, [PC + #13]        ;->0x8d0  :=0x72c
     89e:	05 5c       	LJMP      R5
..\src\kf32f_basic_usart.c:121
        PCLK_CTL2_Peripheral_Clock_Enable(PCLK_CTL2_USART7CLKEN, TRUE);
     8a0:	01 10       	MOV       R0, #1
     8a2:	87 7b       	LSL       R0, #31
     8a4:	11 10       	MOV       R1, #1
     8a6:	0c 45       	LD        R5, [PC + #12]        ;->0x8d4  :=0x6cc
     8a8:	05 5c       	LJMP      R5
..\src\kf32f_basic_usart.c:124
    }
#endif
}
     8aa:	e4 28       	ADD       SP, #4
     8ac:	0d 5d       	POP       LR
     8ae:	1d 5c       	JMP       LR
     8b0:	80 09 00 40 	.long     0x40000980 ->1073744256
     8b4:	fc 06 00 00 	.long     0x000006fc ->1788
     8b8:	9c 06 00 00 	.long     0x0000069c ->1692
     8bc:	00 0a 00 40 	.long     0x40000a00 ->1073744384
     8c0:	80 0a 00 40 	.long     0x40000a80 ->1073744512
     8c4:	00 0b 00 40 	.long     0x40000b00 ->1073744640
     8c8:	80 0b 00 40 	.long     0x40000b80 ->1073744768
     8cc:	80 1e 00 40 	.long     0x40001e80 ->1073749632
     8d0:	2c 07 00 00 	.long     0x0000072c ->1836
     8d4:	cc 06 00 00 	.long     0x000006cc ->1740
     8d8:	00 1f 00 40 	.long     0x40001f00 ->1073749760
     8dc:	80 1f 00 40 	.long     0x40001f80 ->1073749888

000008e0 <USART_Configuration>:
USART_Configuration():
..\src\kf32f_basic_usart.c:134
  *       USARTInitStruct: USART塘崔佚連潤更悶峺寞。
  * 卦指  涙
  */
void
USART_Configuration (USART_SFRmap* USARTx, USART_InitTypeDef* usartInitStruct)
{
     8e0:	2d 5d       	PUSH      LR
     8e2:	ec 30       	SUB       SP, #12
     8e4:	01 20       	ST.W      [SP + #1], R0
     8e6:	02 21       	ST.W      [SP + #2], R1
..\src\kf32f_basic_usart.c:135
    uint32_t tmpreg = 0;
     8e8:	50 10       	MOV       R5, #0
     8ea:	e5 85       	ST.W      [SP], R5
..\src\kf32f_basic_usart.c:163
    /* 功象潤更悶撹埀m_WordLength⇧譜崔DT9EN了囃 */
    /* 功象潤更悶撹埀m_StopBits⇧譜崔STPW了囃 */
    /* 功象潤更悶撹埀m_Bit9SEL⇧譜崔TX9SEL了囃 */
    /* 功象潤更悶撹埀m_Parity⇧譜崔PARM了囃 */
    /* 功象潤更悶撹埀m_HardwareFlowControl⇧譜崔RTSEN/CTSEN了囃 */
    tmpreg = ((usartInitStruct->m_Mode)     \
     8ec:	02 0d       	LD.W      R5, [SP + #2]
     8ee:	55 82       	LD.W      R5, [R5]
..\src\kf32f_basic_usart.c:164
            | (usartInitStruct->m_HalfDuplexClkSource)  \
     8f0:	02 0c       	LD.W      R4, [SP + #2]
     8f2:	64 98       	LD.W      R4, [R4 + #1]
     8f4:	25 d7       	ORL       R4, R5, R4
..\src\kf32f_basic_usart.c:165
            | (usartInitStruct->m_TransferDir)  \
     8f6:	02 0d       	LD.W      R5, [SP + #2]
     8f8:	ad 98       	LD.W      R5, [R5 + #2]
     8fa:	64 d7       	ORL       R4, R4, R5
..\src\kf32f_basic_usart.c:166
            | (usartInitStruct->m_WordLength)  \
     8fc:	02 0d       	LD.W      R5, [SP + #2]
     8fe:	ed 98       	LD.W      R5, [R5 + #3]
     900:	64 d7       	ORL       R4, R4, R5
..\src\kf32f_basic_usart.c:167
            | (usartInitStruct->m_Bit9SEL)   \
     902:	02 0d       	LD.W      R5, [SP + #2]
     904:	6d 99       	LD.W      R5, [R5 + #5]
     906:	64 d7       	ORL       R4, R4, R5
..\src\kf32f_basic_usart.c:168
            | (usartInitStruct->m_StopBits)   \
     908:	02 0d       	LD.W      R5, [SP + #2]
     90a:	2d 99       	LD.W      R5, [R5 + #4]
     90c:	64 d7       	ORL       R4, R4, R5
..\src\kf32f_basic_usart.c:169
            | (usartInitStruct->m_ReceiveOrder)   \
     90e:	02 0d       	LD.W      R5, [SP + #2]
     910:	ed 99       	LD.W      R5, [R5 + #7]
     912:	64 d7       	ORL       R4, R4, R5
..\src\kf32f_basic_usart.c:170
            | (usartInitStruct->m_TransmitOrder)   \
     914:	02 0d       	LD.W      R5, [SP + #2]
     916:	2d 9a       	LD.W      R5, [R5 + #8]
     918:	64 d7       	ORL       R4, R4, R5
..\src\kf32f_basic_usart.c:171
            | (usartInitStruct->m_Parity)     \
     91a:	02 0d       	LD.W      R5, [SP + #2]
     91c:	ad 99       	LD.W      R5, [R5 + #6]
     91e:	64 d7       	ORL       R4, R4, R5
..\src\kf32f_basic_usart.c:172
            | (usartInitStruct->m_BRAutoDetect)     \
     920:	02 0d       	LD.W      R5, [SP + #2]
     922:	6d 9a       	LD.W      R5, [R5 + #9]
     924:	64 d7       	ORL       R4, R4, R5
..\src\kf32f_basic_usart.c:173
            | (usartInitStruct->m_HardwareFlowControl)     \
     926:	02 0d       	LD.W      R5, [SP + #2]
     928:	ad 9a       	LD.W      R5, [R5 + #10]
     92a:	64 d7       	ORL       R4, R4, R5
..\src\kf32f_basic_usart.c:174
            | (usartInitStruct->m_BaudRateBRCKS));
     92c:	02 0d       	LD.W      R5, [SP + #2]
     92e:	ad ad       	LD.H      R5, [R5 + #22]
..\src\kf32f_basic_usart.c:163
    /* 功象潤更悶撹埀m_WordLength⇧譜崔DT9EN了囃 */
    /* 功象潤更悶撹埀m_StopBits⇧譜崔STPW了囃 */
    /* 功象潤更悶撹埀m_Bit9SEL⇧譜崔TX9SEL了囃 */
    /* 功象潤更悶撹埀m_Parity⇧譜崔PARM了囃 */
    /* 功象潤更悶撹埀m_HardwareFlowControl⇧譜崔RTSEN/CTSEN了囃 */
    tmpreg = ((usartInitStruct->m_Mode)     \
     930:	6c d7       	ORL       R5, R4, R5
     932:	e5 85       	ST.W      [SP], R5
..\src\kf32f_basic_usart.c:176
            | (usartInitStruct->m_Parity)     \
            | (usartInitStruct->m_BRAutoDetect)     \
            | (usartInitStruct->m_HardwareFlowControl)     \
            | (usartInitStruct->m_BaudRateBRCKS));

    USARTx->CTLR = SFR_Config (USARTx->CTLR, ~USART_CTLR_INIT_MASK, tmpreg);
     934:	01 0d       	LD.W      R5, [SP + #1]
     936:	55 82       	LD.W      R5, [R5]
     938:	05 58       	MOV       R0, R5
     93a:	11 41       	LD        R1, [PC + #17]        ;->0x97c  :=0xfcca3eff
     93c:	2e 82       	LD.W      R2, [SP]
     93e:	11 45       	LD        R5, [PC + #17]        ;->0x980  :=0x75c
     940:	05 5c       	LJMP      R5
     942:	a0 58       	MOV       R5, R0
     944:	01 0c       	LD.W      R4, [SP + #1]
     946:	45 85       	ST.W      [R4], R5
..\src\kf32f_basic_usart.c:182

    /*------------------- USART_BRGR篠贋匂塘崔  -----------------*/
    /* 功象潤更悶撹埀m_BaudRateInteger⇧譜崔BRGM了囃 */
    /* 功象潤更悶撹埀m_BaudRateNumerator⇧譜崔BRGF1了囃 */
    /* 功象潤更悶撹埀m_BaudRateDenominator⇧譜崔BRGF2了囃 */
    tmpreg = ((uint32_t)usartInitStruct->m_BaudRateInteger << USART_BRGR_BRGM0_POS)  \
     948:	02 0d       	LD.W      R5, [SP + #2]
     94a:	ed ad       	LD.H      R5, [R5 + #23]
     94c:	85 58       	MOV       R4, R5
..\src\kf32f_basic_usart.c:183
            | ((uint32_t)usartInitStruct->m_BaudRateNumerator << USART_BRGR_BRGF1_0_POS)   \
     94e:	02 0d       	LD.W      R5, [SP + #2]
     950:	2d ae       	LD.H      R5, [R5 + #24]
     952:	28 7b       	LSL       R5, #16
     954:	64 d7       	ORL       R4, R4, R5
..\src\kf32f_basic_usart.c:184
            | ((uint32_t)usartInitStruct->m_BaudRateDenominator << USART_BRGR_BRGF2_0_POS);
     956:	02 0d       	LD.W      R5, [SP + #2]
     958:	6d ae       	LD.H      R5, [R5 + #25]
     95a:	2c 7b       	LSL       R5, #20
..\src\kf32f_basic_usart.c:182

    /*------------------- USART_BRGR篠贋匂塘崔  -----------------*/
    /* 功象潤更悶撹埀m_BaudRateInteger⇧譜崔BRGM了囃 */
    /* 功象潤更悶撹埀m_BaudRateNumerator⇧譜崔BRGF1了囃 */
    /* 功象潤更悶撹埀m_BaudRateDenominator⇧譜崔BRGF2了囃 */
    tmpreg = ((uint32_t)usartInitStruct->m_BaudRateInteger << USART_BRGR_BRGM0_POS)  \
     95c:	6c d7       	ORL       R5, R4, R5
     95e:	e5 85       	ST.W      [SP], R5
..\src\kf32f_basic_usart.c:185
            | ((uint32_t)usartInitStruct->m_BaudRateNumerator << USART_BRGR_BRGF1_0_POS)   \
            | ((uint32_t)usartInitStruct->m_BaudRateDenominator << USART_BRGR_BRGF2_0_POS);
    USARTx->BRGR = SFR_Config (USARTx->BRGR, ~USART_BRGR_INIT_MASK, tmpreg);
     960:	01 0d       	LD.W      R5, [SP + #1]
     962:	6d 98       	LD.W      R5, [R5 + #1]
     964:	05 58       	MOV       R0, R5
     966:	08 41       	LD        R1, [PC + #8]         ;->0x984  :=0xff000000
     968:	2e 82       	LD.W      R2, [SP]
     96a:	06 45       	LD        R5, [PC + #6]         ;->0x980  :=0x75c
     96c:	05 5c       	LJMP      R5
     96e:	80 58       	MOV       R4, R0
     970:	01 0d       	LD.W      R5, [SP + #1]
     972:	6c a0       	ST.W      [R5 + #1], R4
..\src\kf32f_basic_usart.c:186
}
     974:	ec 28       	ADD       SP, #12
     976:	0d 5d       	POP       LR
     978:	1d 5c       	JMP       LR
     97a:	00 00       	NOP      NOP      
     97c:	ff 3e ca fc 	.long     0xfcca3eff ->-53854465
     980:	5c 07 00 00 	.long     0x0000075c ->1884
     984:	00 00 00 ff 	.long     0xff000000 ->-16777216

00000988 <USART_Struct_Init>:
USART_Struct_Init():
..\src\kf32f_basic_usart.c:233
  * 補秘  usartInitStruct: 峺﨑棋兜兵晒議潤更悶峺寞。
  * 卦指  涙。
  */
void
USART_Struct_Init(USART_InitTypeDef* usartInitStruct)
{
     988:	e4 30       	SUB       SP, #4
     98a:	e0 85       	ST.W      [SP], R0
..\src\kf32f_basic_usart.c:235
    /* 兜兵晒 USART庁塀 */
    usartInitStruct->m_Mode = USART_MODE_FULLDUPLEXASY;
     98c:	5e 82       	LD.W      R5, [SP]
     98e:	40 10       	MOV       R4, #0
     990:	54 85       	ST.W      [R5], R4
..\src\kf32f_basic_usart.c:238

    /* 兜兵晒 USART扮嶝坿僉夲 */
    usartInitStruct->m_HalfDuplexClkSource = USART_SLAVE_CLOCKSOURCE_EXTER;
     992:	5e 82       	LD.W      R5, [SP]
     994:	40 10       	MOV       R4, #0
     996:	6c a0       	ST.W      [R5 + #1], R4
..\src\kf32f_basic_usart.c:241

    /* 兜兵晒 USART勧補圭﨑 */
    usartInitStruct->m_TransferDir = USART_DIRECTION_TRANSMIT;
     998:	4e 82       	LD.W      R4, [SP]
     99a:	51 10       	MOV       R5, #1
     99c:	af 7a       	LSL       R5, #15
     99e:	a5 a0       	ST.W      [R4 + #2], R5
..\src\kf32f_basic_usart.c:244

    /* 兜兵晒 USART忖海 */
    usartInitStruct->m_WordLength = USART_WORDLENGTH_8B;
     9a0:	5e 82       	LD.W      R5, [SP]
     9a2:	40 10       	MOV       R4, #0
     9a4:	ec a0       	ST.W      [R5 + #3], R4
..\src\kf32f_basic_usart.c:247

    /* 兜兵晒 USART唯峭了 */
    usartInitStruct->m_StopBits = USART_STOPBITS_1;
     9a6:	5e 82       	LD.W      R5, [SP]
     9a8:	40 10       	MOV       R4, #0
     9aa:	2c a1       	ST.W      [R5 + #4], R4
..\src\kf32f_basic_usart.c:250

    /* 兜兵晒 USART窟僕方象及9了方象 */
    usartInitStruct->m_Bit9SEL = USART_BIT9_PAR;
     9ac:	5e 82       	LD.W      R5, [SP]
     9ae:	40 10       	MOV       R4, #0
     9b0:	6c a1       	ST.W      [R5 + #5], R4
..\src\kf32f_basic_usart.c:253

    /* 兜兵晒 USART謎甜丕刮了 */
    usartInitStruct->m_Parity = USART_PARITY_ODD;
     9b2:	5e 82       	LD.W      R5, [SP]
     9b4:	40 10       	MOV       R4, #0
     9b6:	ac a1       	ST.W      [R5 + #6], R4
..\src\kf32f_basic_usart.c:256

    /* 兜兵晒 USART俊辺肝會 */
    usartInitStruct->m_ReceiveOrder = USART_RECEIVE_LSB;
     9b8:	5e 82       	LD.W      R5, [SP]
     9ba:	40 10       	MOV       R4, #0
     9bc:	ec a1       	ST.W      [R5 + #7], R4
..\src\kf32f_basic_usart.c:259

    /* 兜兵晒USART窟僕肝會 */
    usartInitStruct->m_TransmitOrder = USART_TRANSMIT_LSB;
     9be:	5e 82       	LD.W      R5, [SP]
     9c0:	40 10       	MOV       R4, #0
     9c2:	2c a2       	ST.W      [R5 + #8], R4
..\src\kf32f_basic_usart.c:262

    /* 兜兵晒 USART徭強襖蒙楕殊霞聞嬬了 */
    usartInitStruct->m_BRAutoDetect = USART_ABRDEN_OFF;
     9c4:	5e 82       	LD.W      R5, [SP]
     9c6:	40 10       	MOV       R4, #0
     9c8:	6c a2       	ST.W      [R5 + #9], R4
..\src\kf32f_basic_usart.c:265

    /* 兜兵晒 USART啣周送陣崙 */
    usartInitStruct->m_HardwareFlowControl = USART_HARDWAREFLOWCONTROL_NONE;
     9ca:	5e 82       	LD.W      R5, [SP]
     9cc:	40 10       	MOV       R4, #0
     9ce:	ac a2       	ST.W      [R5 + #10], R4
..\src\kf32f_basic_usart.c:268

    /* 兜兵晒 USART襖蒙楕窟伏匂扮嶝僉夲 */
    usartInitStruct->m_BaudRateBRCKS = USART_CLK_SCLK;
     9d0:	5e 82       	LD.W      R5, [SP]
     9d2:	40 10       	MOV       R4, #0
     9d4:	ac b5       	ST.H      [R5 + #22], R4
..\src\kf32f_basic_usart.c:271

    /* 兜兵晒 USART襖蒙楕屁方何蛍 */
    usartInitStruct->m_BaudRateInteger = 1;
     9d6:	5e 82       	LD.W      R5, [SP]
     9d8:	41 10       	MOV       R4, #1
     9da:	ec b5       	ST.H      [R5 + #23], R4
..\src\kf32f_basic_usart.c:274

    /* 兜兵晒 USART襖蒙楕弌方蛍徨何蛍 */
    usartInitStruct->m_BaudRateNumerator = 0;
     9dc:	5e 82       	LD.W      R5, [SP]
     9de:	40 10       	MOV       R4, #0
     9e0:	2c b6       	ST.H      [R5 + #24], R4
..\src\kf32f_basic_usart.c:277

    /* 兜兵晒 USART襖蒙楕弌方蛍銚何蛍 */
    usartInitStruct->m_BaudRateDenominator = 1;
     9e2:	5e 82       	LD.W      R5, [SP]
     9e4:	41 10       	MOV       R4, #1
     9e6:	6c b6       	ST.H      [R5 + #25], R4
..\src\kf32f_basic_usart.c:278
}
     9e8:	e4 28       	ADD       SP, #4
     9ea:	1d 5c       	JMP       LR

000009ec <USART_Cmd>:
USART_Cmd():
..\src\kf32f_basic_usart.c:325
  *       NewState: USART聞嬬聞嬬彜蓑⇧函峙葎TRUE 賜 FALSE。
  * 卦指  涙。
  */
void
USART_Cmd (USART_SFRmap* USARTx, FunctionalState NewState)
{
     9ec:	e8 30       	SUB       SP, #8
     9ee:	e0 85       	ST.W      [SP], R0
     9f0:	01 21       	ST.W      [SP + #1], R1
..\src\kf32f_basic_usart.c:331
    /* 歌方丕刮 */
    CHECK_RESTRICTION(CHECK_USART_ALL_PERIPH(USARTx));
    CHECK_RESTRICTION(CHECK_FUNCTIONAL_STATE(NewState));

    /*---------------- 塘崔USART_CTLR篠贋匂USARTEN了 ----------------*/
    if (NewState != FALSE)
     9f2:	01 0d       	LD.W      R5, [SP + #1]
     9f4:	50 38       	CMP       R5, #0
     9f6:	04 f0       	JZ        $+4                   ;->0x9fe
..\src\kf32f_basic_usart.c:334
    {
        /* 聞嬬USART */
        SFR_SET_BIT_ASM(USARTx->CTLR, USART_CTLR_USARTEN_POS);
     9f8:	5e 82       	LD.W      R5, [SP]
     9fa:	28 4c       	SET       [R5], #0
     9fc:	03 04       	SJMP      $+3                   ;->0xa02
..\src\kf32f_basic_usart.c:339
    }
    else
    {
        /* 鋤峭USART */
        SFR_CLR_BIT_ASM(USARTx->CTLR, USART_CTLR_USARTEN_POS);
     9fe:	5e 82       	LD.W      R5, [SP]
     a00:	28 4e       	CLR       [R5], #0
..\src\kf32f_basic_usart.c:341
    }
}
     a02:	e8 28       	ADD       SP, #8
     a04:	1d 5c       	JMP       LR

00000a06 <USART_SendData>:
USART_SendData():
..\src\kf32f_basic_usart.c:1016
  * 補秘  USARTx: 峺﨑USART坪贋潤更議峺寞⇧函峙葎USART0_SFR~USART8_SFR。
  *       Data: 亟秘方象篠贋匂議峙⇧函峙葎0~255。
  */
void
USART_SendData(USART_SFRmap* USARTx, uint8_t Data)
{
     a06:	e8 30       	SUB       SP, #8
     a08:	e0 85       	ST.W      [SP], R0
     a0a:	a1 58       	MOV       R5, R1
     a0c:	a4 e3       	ST.B      [SP + #4], R5
..\src\kf32f_basic_usart.c:1021
    /* 歌方丕刮 */
    CHECK_RESTRICTION(CHECK_USART_ALL_PERIPH(USARTx));

    /*---------------- 譜崔USART_TBUFR篠贋匂 ----------------*/
    USARTx->TBUFR = Data;
     a0e:	84 e1       	LD.B      R4, [SP + #4]
     a10:	5e 82       	LD.W      R5, [SP]
     a12:	ec a0       	ST.W      [R5 + #3], R4
..\src\kf32f_basic_usart.c:1022
}
     a14:	e8 28       	ADD       SP, #8
     a16:	1d 5c       	JMP       LR

00000a18 <USART_Get_Transmitter_Empty_Flag>:
USART_Get_Transmitter_Empty_Flag():
..\src\kf32f_basic_usart.c:2009
  * 卦指  1: USART窟符匂葎腎◉
  *       0: USART窟符匂音葎腎。
  */
FlagStatus
USART_Get_Transmitter_Empty_Flag (USART_SFRmap* USARTx)
{
     a18:	e4 30       	SUB       SP, #4
     a1a:	e0 85       	ST.W      [SP], R0
..\src\kf32f_basic_usart.c:2014
    /* 歌方丕刮 */
    CHECK_RESTRICTION(CHECK_USART_ALL_PERIPH(USARTx));

    /*---------------- 響函USART_STR篠贋匂TXEIF了 ----------------*/
    if (USARTx->STR & USART_STR_TXEIF)
     a1c:	5e 82       	LD.W      R5, [SP]
     a1e:	a5 98       	LD.W      R4, [R5 + #2]
     a20:	51 10       	MOV       R5, #1
     a22:	ad 7a       	LSL       R5, #13
     a24:	6c d5       	ANL       R5, R4, R5
     a26:	50 38       	CMP       R5, #0
     a28:	03 f0       	JZ        $+3                   ;->0xa2e
..\src\kf32f_basic_usart.c:2017
    {
        /* USART 窟符匂葎腎*/
        return SET;
     a2a:	51 10       	MOV       R5, #1
     a2c:	02 04       	SJMP      $+2                   ;->0xa30
..\src\kf32f_basic_usart.c:2022
    }
    else
    {
        /* USART 窟符匂音葎腎 */
        return RESET;
     a2e:	50 10       	MOV       R5, #0
..\src\kf32f_basic_usart.c:2024
    }
}
     a30:	05 58       	MOV       R0, R5
     a32:	e4 28       	ADD       SP, #4
     a34:	1d 5c       	JMP       LR

00000a36 <USART_Clear_Transmit_BUFR_INT_Flag>:
USART_Clear_Transmit_BUFR_INT_Flag():
..\src\kf32f_basic_usart.c:2203
  * 補秘  USARTx: 峺﨑USART坪贋潤更議峺寞⇧函峙葎USART0_SFR~USART8_SFR。
  * 卦指  涙。
  */
void
USART_Clear_Transmit_BUFR_INT_Flag (USART_SFRmap* USARTx)
{
     a36:	e4 30       	SUB       SP, #4
     a38:	e0 85       	ST.W      [SP], R0
..\src\kf32f_basic_usart.c:2208
    /* 歌方丕刮 */
    CHECK_RESTRICTION(CHECK_USART_ALL_PERIPH(USARTx));

    /*---------------- 譜崔USART_STR篠贋匂TXFR了 ----------------*/
    SFR_SET_BIT_ASM(USARTx->STR, USART_STR_TXFR_POS);
     a3a:	5e 82       	LD.W      R5, [SP]
     a3c:	58 28       	ADD       R5, #8
     a3e:	aa 4c       	SET       [R5], #10
..\src\kf32f_basic_usart.c:2209
    while(!((USARTx->STR & USART_STR_TFEIF)>>USART_STR_TFEIF_POS));
     a40:	00 00       	NOP      NOP      
     a42:	5e 82       	LD.W      R5, [SP]
     a44:	a5 98       	LD.W      R4, [R5 + #2]
     a46:	51 10       	MOV       R5, #1
     a48:	ac 7a       	LSL       R5, #12
     a4a:	6c d5       	ANL       R5, R4, R5
     a4c:	ac 7c       	LSR       R5, #12
     a4e:	50 38       	CMP       R5, #0
     a50:	f9 f0       	JZ        $-7                   ;->0xa42
..\src\kf32f_basic_usart.c:2210
    SFR_CLR_BIT_ASM(USARTx->STR, USART_STR_TXFR_POS);
     a52:	5e 82       	LD.W      R5, [SP]
     a54:	58 28       	ADD       R5, #8
     a56:	aa 4e       	CLR       [R5], #10
..\src\kf32f_basic_usart.c:2211
}
     a58:	e4 28       	ADD       SP, #4
     a5a:	1d 5c       	JMP       LR

00000a5c <startup>:
startup():
..\config\startup.c:8
extern unsigned char __bss_end__;
extern unsigned char __data_start__;
extern void main();

void startup()
{
     a5c:	2d 5d       	PUSH      LR
     a5e:	ec 30       	SUB       SP, #12
..\config\startup.c:11
	unsigned char length;
	unsigned int *s,*begin,*end;
	s = (unsigned int*)&__text_end__;
     a60:	15 45       	LD        R5, [PC + #21]        ;->0xab4  :=0x1304
     a62:	e5 85       	ST.W      [SP], R5
..\config\startup.c:12
	begin = (unsigned int*)&__data_start__;
     a64:	15 45       	LD        R5, [PC + #21]        ;->0xab8  :=0x10000000
     a66:	01 25       	ST.W      [SP + #1], R5
..\config\startup.c:13
	end = (unsigned int*)&__bss_start__;
     a68:	15 45       	LD        R5, [PC + #21]        ;->0xabc  :=0x10000e08
     a6a:	02 25       	ST.W      [SP + #2], R5
..\config\startup.c:14
	while(begin < end)
     a6c:	0b 04       	SJMP      $+11                  ;->0xa82
..\config\startup.c:15
		*begin++ = *s++;
     a6e:	5e 82       	LD.W      R5, [SP]
     a70:	55 82       	LD.W      R5, [R5]
     a72:	01 0c       	LD.W      R4, [SP + #1]
     a74:	45 85       	ST.W      [R4], R5
     a76:	01 0d       	LD.W      R5, [SP + #1]
     a78:	2d c1       	ADD       R5, R5, #4
     a7a:	01 25       	ST.W      [SP + #1], R5
     a7c:	5e 82       	LD.W      R5, [SP]
     a7e:	2d c1       	ADD       R5, R5, #4
     a80:	e5 85       	ST.W      [SP], R5
..\config\startup.c:14
	unsigned char length;
	unsigned int *s,*begin,*end;
	s = (unsigned int*)&__text_end__;
	begin = (unsigned int*)&__data_start__;
	end = (unsigned int*)&__bss_start__;
	while(begin < end)
     a82:	01 0d       	LD.W      R5, [SP + #1]
     a84:	02 0c       	LD.W      R4, [SP + #2]
     a86:	45 70       	CMP       R4, R5
     a88:	f3 f8       	JHI       $-13                  ;->0xa6e
..\config\startup.c:17
		*begin++ = *s++;
	
	begin = (unsigned int*)&__bss_start__;
     a8a:	0d 45       	LD        R5, [PC + #13]        ;->0xabc  :=0x10000e08
     a8c:	01 25       	ST.W      [SP + #1], R5
..\config\startup.c:18
	end = (unsigned int*)&__bss_end__;
     a8e:	0d 45       	LD        R5, [PC + #13]        ;->0xac0  :=0x10001340
     a90:	02 25       	ST.W      [SP + #2], R5
..\config\startup.c:19
	while(begin < end)
     a92:	07 04       	SJMP      $+7                   ;->0xaa0
..\config\startup.c:20
		*begin++ = 0;
     a94:	01 0c       	LD.W      R4, [SP + #1]
     a96:	50 10       	MOV       R5, #0
     a98:	45 85       	ST.W      [R4], R5
     a9a:	01 0d       	LD.W      R5, [SP + #1]
     a9c:	2d c1       	ADD       R5, R5, #4
     a9e:	01 25       	ST.W      [SP + #1], R5
..\config\startup.c:19
	while(begin < end)
		*begin++ = *s++;
	
	begin = (unsigned int*)&__bss_start__;
	end = (unsigned int*)&__bss_end__;
	while(begin < end)
     aa0:	01 0d       	LD.W      R5, [SP + #1]
     aa2:	02 0c       	LD.W      R4, [SP + #2]
     aa4:	45 70       	CMP       R4, R5
     aa6:	f7 f8       	JHI       $-9                   ;->0xa94
..\config\startup.c:21
		*begin++ = 0;
	main();
     aa8:	07 45       	LD        R5, [PC + #7]         ;->0xac4  :=0xd14
     aaa:	05 5c       	LJMP      R5
..\config\startup.c:22
     aac:	ec 28       	ADD       SP, #12
     aae:	0d 5d       	POP       LR
     ab0:	1d 5c       	JMP       LR
     ab2:	00 00       	NOP      NOP      
     ab4:	04 13 00 00 	.long     0x00001304 ->4868
     ab8:	00 00 00 10 	.long     0x10000000 ->268435456
     abc:	08 0e 00 10 	.long     0x10000e08 ->268439048
     ac0:	40 13 00 10 	.long     0x10001340 ->268440384
     ac4:	14 0d 00 00 	.long     0x00000d14 ->3348

00000ac8 <GPIO_USART>:
GPIO_USART():
..\USART_user.c:21
  * 宙峰   堪笥IO嶷啌符⇧PB2恂uart3_rx,PA3恂uart3_tx
  * 補秘   涙
  * 卦指   涙
  */
void GPIO_USART()
{
     ac8:	2d 5d       	PUSH      LR
..\USART_user.c:22
	GPIO_Write_Mode_Bits(GPIOB_SFR ,GPIO_PIN_MASK_14, GPIO_MODE_RMP);           //嶷啌符IO笥孔嬬庁塀
     aca:	13 40       	LD        R0, [PC + #19]        ;->0xb14  :=0x50000040
     acc:	11 10       	MOV       R1, #1
     ace:	8e 7a       	LSL       R1, #14
     ad0:	22 10       	MOV       R2, #2
     ad2:	12 45       	LD        R5, [PC + #18]        ;->0xb18  :=0x330
     ad4:	05 5c       	LJMP      R5
..\USART_user.c:23
	GPIO_Write_Mode_Bits(GPIOB_SFR ,GPIO_PIN_MASK_15, GPIO_MODE_RMP);           //嶷啌符IO笥孔嬬庁塀
     ad6:	10 40       	LD        R0, [PC + #16]        ;->0xb14  :=0x50000040
     ad8:	11 10       	MOV       R1, #1
     ada:	8f 7a       	LSL       R1, #15
     adc:	22 10       	MOV       R2, #2
     ade:	0f 45       	LD        R5, [PC + #15]        ;->0xb18  :=0x330
     ae0:	05 5c       	LJMP      R5
..\USART_user.c:24
	GPIO_Pin_RMP_Config (GPIOB_SFR, GPIO_Pin_Num_14, GPIO_RMP_AF5_USART2);	   //嶷啌符葎USART3
     ae2:	0d 40       	LD        R0, [PC + #13]        ;->0xb14  :=0x50000040
     ae4:	1e 10       	MOV       R1, #14
     ae6:	25 10       	MOV       R2, #5
     ae8:	0d 45       	LD        R5, [PC + #13]        ;->0xb1c  :=0x3ca
     aea:	05 5c       	LJMP      R5
..\USART_user.c:25
	GPIO_Pin_RMP_Config (GPIOB_SFR,	GPIO_Pin_Num_15, GPIO_RMP_AF5_USART2);       //嶷啌符葎USART3
     aec:	0a 40       	LD        R0, [PC + #10]        ;->0xb14  :=0x50000040
     aee:	1f 10       	MOV       R1, #15
     af0:	25 10       	MOV       R2, #5
     af2:	0b 45       	LD        R5, [PC + #11]        ;->0xb1c  :=0x3ca
     af4:	05 5c       	LJMP      R5
..\USART_user.c:26
	GPIO_Pin_Lock_Config (GPIOB_SFR ,GPIO_PIN_MASK_15, TRUE);                   //塘崔迄贋
     af6:	08 40       	LD        R0, [PC + #8]         ;->0xb14  :=0x50000040
     af8:	11 10       	MOV       R1, #1
     afa:	8f 7a       	LSL       R1, #15
     afc:	21 10       	MOV       R2, #1
     afe:	09 45       	LD        R5, [PC + #9]         ;->0xb20  :=0x2f0
     b00:	05 5c       	LJMP      R5
..\USART_user.c:27
	GPIO_Pin_Lock_Config (GPIOB_SFR ,GPIO_PIN_MASK_14, TRUE);                   //塘崔迄贋
     b02:	05 40       	LD        R0, [PC + #5]         ;->0xb14  :=0x50000040
     b04:	11 10       	MOV       R1, #1
     b06:	8e 7a       	LSL       R1, #14
     b08:	21 10       	MOV       R2, #1
     b0a:	06 45       	LD        R5, [PC + #6]         ;->0xb20  :=0x2f0
     b0c:	05 5c       	LJMP      R5
..\USART_user.c:28
}
     b0e:	0d 5d       	POP       LR
     b10:	1d 5c       	JMP       LR
     b12:	00 00       	NOP      NOP      
     b14:	40 00 00 50 	.long     0x50000040 ->1342177344
     b18:	30 03 00 00 	.long     0x00000330 ->816
     b1c:	ca 03 00 00 	.long     0x000003ca ->970
     b20:	f0 02 00 00 	.long     0x000002f0 ->752

00000b24 <USART_Send>:
USART_Send():
..\USART_user.c:38
  *      Databuf⦿   峺﨑窟僕方象議峺寞
  *      length⦿      窟僕議海業
  * 卦指   涙
  */
void USART_Send(USART_SFRmap* USARTx, uint8_t* Databuf, uint32_t length)
{
     b24:	2d 5d       	PUSH      LR
     b26:	e0 31       	SUB       SP, #16
     b28:	01 20       	ST.W      [SP + #1], R0
     b2a:	02 21       	ST.W      [SP + #2], R1
     b2c:	03 22       	ST.W      [SP + #3], R2
..\USART_user.c:40
	uint32_t i;
	for(i=0;i<length;i++)
     b2e:	50 10       	MOV       R5, #0
     b30:	e5 85       	ST.W      [SP], R5
     b32:	13 04       	SJMP      $+19                  ;->0xb58
..\USART_user.c:43
	{
		//堪笥窟僕
		USART_SendData(USARTx,Databuf[i]);
     b34:	02 0c       	LD.W      R4, [SP + #2]
     b36:	5e 82       	LD.W      R5, [SP]
     b38:	6c c3       	ADD       R5, R4, R5
     b3a:	55 80       	LD.B      R5, [R5]
     b3c:	01 08       	LD.W      R0, [SP + #1]
     b3e:	25 58       	MOV       R1, R5
     b40:	0a 45       	LD        R5, [PC + #10]        ;->0xb68  :=0xa06
     b42:	05 5c       	LJMP      R5
..\USART_user.c:45
		//窟僕頼撹炎崗
		while(!USART_Get_Transmitter_Empty_Flag(USARTx));
     b44:	00 00       	NOP      NOP      
     b46:	01 08       	LD.W      R0, [SP + #1]
     b48:	09 45       	LD        R5, [PC + #9]         ;->0xb6c  :=0xa18
     b4a:	05 5c       	LJMP      R5
     b4c:	a0 58       	MOV       R5, R0
     b4e:	50 38       	CMP       R5, #0
     b50:	fb f0       	JZ        $-5                   ;->0xb46
..\USART_user.c:40
  * 卦指   涙
  */
void USART_Send(USART_SFRmap* USARTx, uint8_t* Databuf, uint32_t length)
{
	uint32_t i;
	for(i=0;i<length;i++)
     b52:	5e 82       	LD.W      R5, [SP]
     b54:	6d c0       	ADD       R5, R5, #1
     b56:	e5 85       	ST.W      [SP], R5
     b58:	5e 82       	LD.W      R5, [SP]
     b5a:	03 0c       	LD.W      R4, [SP + #3]
     b5c:	45 70       	CMP       R4, R5
     b5e:	eb f8       	JHI       $-21                  ;->0xb34
..\USART_user.c:47
		//堪笥窟僕
		USART_SendData(USARTx,Databuf[i]);
		//窟僕頼撹炎崗
		while(!USART_Get_Transmitter_Empty_Flag(USARTx));
	}
}
     b60:	e0 29       	ADD       SP, #16
     b62:	0d 5d       	POP       LR
     b64:	1d 5c       	JMP       LR
     b66:	00 00       	NOP      NOP      
     b68:	06 0a 00 00 	.long     0x00000a06 ->2566
     b6c:	18 0a 00 00 	.long     0x00000a18 ->2584

00000b70 <USART_Async_config>:
USART_Async_config():
..\USART_user.c:55
  * 宙峰  堪笥呟化畠褒垢塘崔(潮範8bit辺窟聞嬬  畠褒垢 9600)
  * 補秘   峺﨑USART坪贋潤更議峺寞⇧函峙葎USART0_SFR~USART8_SFR
  * 卦指   涙
  */
void USART_Async_config(USART_SFRmap *USARTx)
{
     b70:	2d 5d       	PUSH      LR
     b72:	e8 33       	SUB       SP, #56
     b74:	0d 20       	ST.W      [SP + #13], R0
..\USART_user.c:58
	USART_InitTypeDef USART_InitStructure;

	USART_Struct_Init(&USART_InitStructure);
     b76:	0e 58       	MOV       R0, SP
     b78:	12 45       	LD        R5, [PC + #18]        ;->0xbc0  :=0x988
     b7a:	05 5c       	LJMP      R5
..\USART_user.c:59
    USART_InitStructure.m_Mode=USART_MODE_FULLDUPLEXASY;                        //畠褒垢呟化
     b7c:	50 10       	MOV       R5, #0
     b7e:	e5 85       	ST.W      [SP], R5
..\USART_user.c:60
    USART_InitStructure.m_TransferDir=USART_DIRECTION_FULL_DUPLEX;              //勧補圭﨑⇧辺窟脅聞嬬
     b80:	11 45       	LD        R5, [PC + #17]        ;->0xbc4  :=0x18000
     b82:	02 25       	ST.W      [SP + #2], R5
..\USART_user.c:61
    USART_InitStructure.m_WordLength=USART_WORDLENGTH_8B;                       //8了方象
     b84:	50 10       	MOV       R5, #0
     b86:	03 25       	ST.W      [SP + #3], R5
..\USART_user.c:62
    USART_InitStructure.m_StopBits=USART_STOPBITS_1;                            //1了唯峭了
     b88:	50 10       	MOV       R5, #0
     b8a:	04 25       	ST.W      [SP + #4], R5
..\USART_user.c:63
    USART_InitStructure.m_BaudRateBRCKS=USART_CLK_HFCLK;                        //坪何互撞扮嶝恬葎 USART襖蒙楕窟伏匂扮嶝
     b8c:	52 10       	MOV       R5, #2
     b8e:	b6 e2       	ST.H      [SP + #22], R5
..\USART_user.c:71
    //4800    z:208    x:0    y:0
    //9600    z:104    x:0    y:0
    //19200   z:52     x:0    y:0
    //115200  z:8      x:1    y:15
    //襖蒙楕9600
    USART_InitStructure.m_BaudRateInteger=104;         //USART襖蒙楕屁方何蛍z⇧函峙葎0~65535
     b90:	58 16       	MOV       R5, #104
     b92:	b7 e2       	ST.H      [SP + #23], R5
..\USART_user.c:72
    USART_InitStructure.m_BaudRateNumerator=0;         //USART襖蒙楕弌方蛍徨何蛍x⇧函峙葎0~0xF
     b94:	50 10       	MOV       R5, #0
     b96:	b8 e2       	ST.H      [SP + #24], R5
..\USART_user.c:73
    USART_InitStructure.m_BaudRateDenominator=0;       //USART襖蒙楕弌方蛍銚何蛍y⇧函峙葎0~0xF
     b98:	50 10       	MOV       R5, #0
     b9a:	b9 e2       	ST.H      [SP + #25], R5
..\USART_user.c:75

	USART_Reset(USARTx);                                       //USARTx鹸了
     b9c:	0d 08       	LD.W      R0, [SP + #13]
     b9e:	0b 45       	LD        R5, [PC + #11]        ;->0xbc8  :=0x774
     ba0:	05 5c       	LJMP      R5
..\USART_user.c:76
	USART_Configuration(USARTx,&USART_InitStructure);          //USARTx塘崔
     ba2:	0d 08       	LD.W      R0, [SP + #13]
     ba4:	2e 58       	MOV       R1, SP
     ba6:	0a 45       	LD        R5, [PC + #10]        ;->0xbcc  :=0x8e0
     ba8:	05 5c       	LJMP      R5
..\USART_user.c:77
	USART_Clear_Transmit_BUFR_INT_Flag(USARTx);                //USARTx窟僕BUF賠巣
     baa:	0d 08       	LD.W      R0, [SP + #13]
     bac:	09 45       	LD        R5, [PC + #9]         ;->0xbd0  :=0xa36
     bae:	05 5c       	LJMP      R5
..\USART_user.c:78
	USART_Cmd(USARTx,TRUE);                                    //USARTx聞嬬
     bb0:	0d 08       	LD.W      R0, [SP + #13]
     bb2:	11 10       	MOV       R1, #1
     bb4:	08 45       	LD        R5, [PC + #8]         ;->0xbd4  :=0x9ec
     bb6:	05 5c       	LJMP      R5
..\USART_user.c:79
}
     bb8:	e8 2b       	ADD       SP, #56
     bba:	0d 5d       	POP       LR
     bbc:	1d 5c       	JMP       LR
     bbe:	00 00       	NOP      NOP      
     bc0:	88 09 00 00 	.long     0x00000988 ->2440
     bc4:	00 80 01 00 	.long     0x00018000 ->98304
     bc8:	74 07 00 00 	.long     0x00000774 ->1908
     bcc:	e0 08 00 00 	.long     0x000008e0 ->2272
     bd0:	36 0a 00 00 	.long     0x00000a36 ->2614
     bd4:	ec 09 00 00 	.long     0x000009ec ->2540

00000bd8 <FLASH_PageWrite_fun>:
FLASH_PageWrite_fun():
..\flash.c:73
*          length        棋亟方象海業(倖方歌方峪嬬葎128)
* 卦指          ⦿涙
* 亟flash廣吭傍苧⦿匈価氏委峺協仇峽侭壓議匯匈128倖褒忖仇峽議方象脅価茅渠⇧磯匈園殻峪嬬64倖褒忖序佩亟荷恬⇧匈亟俶勣序佩曾肝磯匈亟。
*/
void FLASH_PageWrite_fun(uint32_t address,uint32_t *p_FlashBuffer,uint8_t length)
{
     bd8:	2d 5d       	PUSH      LR
     bda:	e0 31       	SUB       SP, #16
     bdc:	01 20       	ST.W      [SP + #1], R0
     bde:	02 21       	ST.W      [SP + #2], R1
     be0:	a2 58       	MOV       R5, R2
     be2:	ac e3       	ST.B      [SP + #12], R5
..\flash.c:79
	volatile uint8_t i;
	static uint32_t Flash_Buff1[128];
	static uint32_t Flash_Buff2[128];

	//	//--------------------------------------------------------------------------------------------
		FLASH_Wipe_Configuration_RAM(FLASH_WIPE_CODE_PAGE,address);//殻會曝匈価
     be4:	00 10       	MOV       R0, #0
     be6:	01 09       	LD.W      R1, [SP + #1]
     be8:	2f 45       	LD        R5, [PC + #47]        ;->0xca4  :=0x10000650
     bea:	05 5c       	LJMP      R5
..\flash.c:82

		//--------------------------------------------------------------------------------------------
		for (i = 0; i < length; i++)
     bec:	50 10       	MOV       R5, #0
     bee:	e5 83       	ST.B      [SP], R5
     bf0:	12 04       	SJMP      $+18                  ;->0xc14
..\flash.c:84
		{
			Flash_Buff1[i] =*p_FlashBuffer;
     bf2:	5e 80       	LD.B      R5, [SP]
     bf4:	55 d1       	ZXT.B     R5, R5
     bf6:	85 58       	MOV       R4, R5
     bf8:	02 0d       	LD.W      R5, [SP + #2]
     bfa:	55 82       	LD.W      R5, [R5]
     bfc:	2b 43       	LD        R3, [PC + #43]        ;->0xca8  :=0x1000097c
     bfe:	22 7a       	LSL       R4, #2
     c00:	23 c3       	ADD       R4, R3, R4
     c02:	45 85       	ST.W      [R4], R5
..\flash.c:85
			p_FlashBuffer ++;
     c04:	02 0d       	LD.W      R5, [SP + #2]
     c06:	2d c1       	ADD       R5, R5, #4
     c08:	02 25       	ST.W      [SP + #2], R5
..\flash.c:82

	//	//--------------------------------------------------------------------------------------------
		FLASH_Wipe_Configuration_RAM(FLASH_WIPE_CODE_PAGE,address);//殻會曝匈価

		//--------------------------------------------------------------------------------------------
		for (i = 0; i < length; i++)
     c0a:	5e 80       	LD.B      R5, [SP]
     c0c:	55 d1       	ZXT.B     R5, R5
     c0e:	6d c0       	ADD       R5, R5, #1
     c10:	55 d1       	ZXT.B     R5, R5
     c12:	e5 83       	ST.B      [SP], R5
     c14:	5e 80       	LD.B      R5, [SP]
     c16:	55 d1       	ZXT.B     R5, R5
     c18:	8c e1       	LD.B      R4, [SP + #12]
     c1a:	45 70       	CMP       R4, R5
     c1c:	eb f8       	JHI       $-21                  ;->0xbf2
..\flash.c:88
		{
			Flash_Buff1[i] =*p_FlashBuffer;
			p_FlashBuffer ++;
		}

		flash_write.m_Mode=FLASH_PROGRAM_HALF_PAGE;//FLASH_PROGRAM_HALF_PAGE //FLASH_PROGRAM_WORD
     c1e:	24 44       	LD        R4, [PC + #36]        ;->0xcac  :=0x10000e10
     c20:	55 10       	MOV       R5, #5
     c22:	45 85       	ST.W      [R4], R5
..\flash.c:89
		flash_write.m_Zone=FLASH_PROGRAM_CODE;//FLASH_PROGRAM_CFG  FLASH_PROGRAM_CODE
     c24:	22 45       	LD        R5, [PC + #34]        ;->0xcac  :=0x10000e10
     c26:	40 10       	MOV       R4, #0
     c28:	6c a0       	ST.W      [R5 + #1], R4
..\flash.c:90
		flash_write.m_Addr=address;
     c2a:	21 45       	LD        R5, [PC + #33]        ;->0xcac  :=0x10000e10
     c2c:	01 0c       	LD.W      R4, [SP + #1]
     c2e:	ac a0       	ST.W      [R5 + #2], R4
..\flash.c:91
		flash_write.m_WriteSize=63;//磯匈園殻音誼葎0⇧泌惚亟1↙+1⇄糞縞亟議頁2倖褒忖 汽忖園殻涙唹峒
     c30:	1f 45       	LD        R5, [PC + #31]        ;->0xcac  :=0x10000e10
     c32:	4f 13       	MOV       R4, #63
     c34:	ec a0       	ST.W      [R5 + #3], R4
..\flash.c:92
		flash_write.m_Data=Flash_Buff1;
     c36:	1e 45       	LD        R5, [PC + #30]        ;->0xcac  :=0x10000e10
     c38:	1c 44       	LD        R4, [PC + #28]        ;->0xca8  :=0x1000097c
     c3a:	2c a1       	ST.W      [R5 + #4], R4
..\flash.c:93
		FLASH_Program_Configuration_RAM(&flash_write);
     c3c:	1c 40       	LD        R0, [PC + #28]        ;->0xcac  :=0x10000e10
     c3e:	1d 45       	LD        R5, [PC + #29]        ;->0xcb0  :=0x10000730
     c40:	05 5c       	LJMP      R5
..\flash.c:96


		for (i = 0; i < length; i++)
     c42:	50 10       	MOV       R5, #0
     c44:	e5 83       	ST.B      [SP], R5
     c46:	12 04       	SJMP      $+18                  ;->0xc6a
..\flash.c:98
		{
			Flash_Buff2[i] = *p_FlashBuffer;
     c48:	5e 80       	LD.B      R5, [SP]
     c4a:	55 d1       	ZXT.B     R5, R5
     c4c:	85 58       	MOV       R4, R5
     c4e:	02 0d       	LD.W      R5, [SP + #2]
     c50:	55 82       	LD.W      R5, [R5]
     c52:	19 43       	LD        R3, [PC + #25]        ;->0xcb4  :=0x10000b7c
     c54:	22 7a       	LSL       R4, #2
     c56:	23 c3       	ADD       R4, R3, R4
     c58:	45 85       	ST.W      [R4], R5
..\flash.c:99
			p_FlashBuffer ++;
     c5a:	02 0d       	LD.W      R5, [SP + #2]
     c5c:	2d c1       	ADD       R5, R5, #4
     c5e:	02 25       	ST.W      [SP + #2], R5
..\flash.c:96
		flash_write.m_WriteSize=63;//磯匈園殻音誼葎0⇧泌惚亟1↙+1⇄糞縞亟議頁2倖褒忖 汽忖園殻涙唹峒
		flash_write.m_Data=Flash_Buff1;
		FLASH_Program_Configuration_RAM(&flash_write);


		for (i = 0; i < length; i++)
     c60:	5e 80       	LD.B      R5, [SP]
     c62:	55 d1       	ZXT.B     R5, R5
     c64:	6d c0       	ADD       R5, R5, #1
     c66:	55 d1       	ZXT.B     R5, R5
     c68:	e5 83       	ST.B      [SP], R5
     c6a:	5e 80       	LD.B      R5, [SP]
     c6c:	55 d1       	ZXT.B     R5, R5
     c6e:	8c e1       	LD.B      R4, [SP + #12]
     c70:	45 70       	CMP       R4, R5
     c72:	eb f8       	JHI       $-21                  ;->0xc48
..\flash.c:102
		{
			Flash_Buff2[i] = *p_FlashBuffer;
			p_FlashBuffer ++;
		}

		flash_write.m_Mode=FLASH_PROGRAM_HALF_PAGE;//FLASH_PROGRAM_HALF_PAGE //FLASH_PROGRAM_WORD
     c74:	0e 44       	LD        R4, [PC + #14]        ;->0xcac  :=0x10000e10
     c76:	55 10       	MOV       R5, #5
     c78:	45 85       	ST.W      [R4], R5
..\flash.c:103
		flash_write.m_Zone=FLASH_PROGRAM_CODE;//FLASH_PROGRAM_CFG  FLASH_PROGRAM_CODE
     c7a:	0d 45       	LD        R5, [PC + #13]        ;->0xcac  :=0x10000e10
     c7c:	40 10       	MOV       R4, #0
     c7e:	6c a0       	ST.W      [R5 + #1], R4
..\flash.c:104
		flash_write.m_Addr=address+0x200;
     c80:	01 0c       	LD.W      R4, [SP + #1]
     c82:	51 10       	MOV       R5, #1
     c84:	a9 7a       	LSL       R5, #9
     c86:	64 c3       	ADD       R4, R4, R5
     c88:	09 45       	LD        R5, [PC + #9]         ;->0xcac  :=0x10000e10
     c8a:	ac a0       	ST.W      [R5 + #2], R4
..\flash.c:105
		flash_write.m_WriteSize=63;//磯匈園殻音誼葎0⇧泌惚亟1↙+1⇄糞縞亟議頁2倖褒忖 汽忖園殻涙唹峒
     c8c:	08 45       	LD        R5, [PC + #8]         ;->0xcac  :=0x10000e10
     c8e:	4f 13       	MOV       R4, #63
     c90:	ec a0       	ST.W      [R5 + #3], R4
..\flash.c:106
		flash_write.m_Data=Flash_Buff2;
     c92:	07 45       	LD        R5, [PC + #7]         ;->0xcac  :=0x10000e10
     c94:	08 44       	LD        R4, [PC + #8]         ;->0xcb4  :=0x10000b7c
     c96:	2c a1       	ST.W      [R5 + #4], R4
..\flash.c:107
		FLASH_Program_Configuration_RAM(&flash_write);
     c98:	05 40       	LD        R0, [PC + #5]         ;->0xcac  :=0x10000e10
     c9a:	06 45       	LD        R5, [PC + #6]         ;->0xcb0  :=0x10000730
     c9c:	05 5c       	LJMP      R5
..\flash.c:110


}
     c9e:	e0 29       	ADD       SP, #16
     ca0:	0d 5d       	POP       LR
     ca2:	1d 5c       	JMP       LR
     ca4:	50 06 00 10 	.long     0x10000650 ->268437072
     ca8:	7c 09 00 10 	.long     0x1000097c ->268437884
     cac:	10 0e 00 10 	.long     0x10000e10 ->268439056
     cb0:	30 07 00 10 	.long     0x10000730 ->268437296
     cb4:	7c 0b 00 10 	.long     0x10000b7c ->268438396

00000cb8 <_NMI_exception>:
_NMI_exception():
..\kf_it.c:20
//                                 NMI嶄僅痕方
//*****************************************************************************************	
void __attribute__((interrupt)) _NMI_exception (void)
{	

}
     cb8:	7d 5d       	CLR       PSW, #29
     cba:	1d 5c       	JMP       LR

00000cbc <_HardFault_exception>:
_HardFault_exception():
..\kf_it.c:28
//                               啣周危列嶄僅痕方
//*****************************************************************************************	
void __attribute__((interrupt)) _HardFault_exception (void)
{

}
     cbc:	7d 5d       	CLR       PSW, #29
     cbe:	1d 5c       	JMP       LR

00000cc0 <_StackFault_exception>:
_StackFault_exception():
..\kf_it.c:36
//                                均媚危列嶄僅痕方
//*****************************************************************************************	
void __attribute__((interrupt)) _StackFault_exception (void)
{

}
     cc0:	7d 5d       	CLR       PSW, #29
     cc2:	1d 5c       	JMP       LR

00000cc4 <_SVC_exception>:
_SVC_exception():
..\kf_it.c:44
//                               SVC嶄僅痕方
//*****************************************************************************************	
void __attribute__((interrupt)) _SVC_exception (void)
{

}
     cc4:	7d 5d       	CLR       PSW, #29
     cc6:	1d 5c       	JMP       LR

00000cc8 <_SoftSV_exception>:
_SoftSV_exception():
..\kf_it.c:52
//                              SoftSV嶄僅痕方
//*****************************************************************************************	
void __attribute__((interrupt)) _SoftSV_exception (void)
{

}
     cc8:	7d 5d       	CLR       PSW, #29
     cca:	1d 5c       	JMP       LR

00000ccc <_SysTick_exception>:
_SysTick_exception():
..\kf_it.c:60
//                              SysTick嶄僅痕方
//*****************************************************************************************	
void __attribute__((interrupt)) _SysTick_exception (void)
{
	
}
     ccc:	7d 5d       	CLR       PSW, #29
     cce:	1d 5c       	JMP       LR

00000cd0 <delay>:
delay():
..\main.c:21
//#define test

uint32_t delay() __attribute__ ((warn_unused_result));

uint32_t delay()
{
     cd0:	e4 30       	SUB       SP, #4
..\main.c:22
	volatile uint32_t i =0x2fffff;
     cd2:	09 45       	LD        R5, [PC + #9]         ;->0xcf4  :=0x2fffff
     cd4:	e5 85       	ST.W      [SP], R5
..\main.c:23
	while( i--);
     cd6:	00 00       	NOP      NOP      
     cd8:	5e 82       	LD.W      R5, [SP]
     cda:	40 10       	MOV       R4, #0
     cdc:	64 c7       	SUB       R4, R4, R5
     cde:	64 d7       	ORL       R4, R4, R5
     ce0:	a7 7d       	LSR       R4, #31
     ce2:	44 d1       	ZXT.B     R4, R4
     ce4:	6d cc       	SUB       R5, R5, #1
     ce6:	e5 85       	ST.W      [SP], R5
     ce8:	40 38       	CMP       R4, #0
     cea:	f7 f1       	JNZ       $-9                   ;->0xcd8
..\main.c:24
	return i;
     cec:	5e 82       	LD.W      R5, [SP]
..\main.c:25
}
     cee:	05 58       	MOV       R0, R5
     cf0:	e4 28       	ADD       SP, #4
     cf2:	1d 5c       	JMP       LR
     cf4:	ff ff 2f 00 	.long     0x002fffff ->3145727
     cf8:	49 6e       	ASR       R4, R9
     cfa:	69 74       	LD.H      R6, [R9++]
     cfc:	69 6e       	ASR       R6, R9
     cfe:	67 0d       	LD.W      R5, [SP + #103]
     d00:	0a 00       	ENI      ENI      
     d02:	00 00       	NOP      NOP      
     d04:	68 65       	ADDC      R6, R8
     d06:	6c 6c       	LSL       R6, R12
     d08:	6f 20       	ST.W      [SP + #111], R0
     d0a:	32 30       	SUB       R3, #2
     d0c:	32 30       	SUB       R3, #2
     d0e:	0d 0a       	LD.W      R2, [SP + #13]
     d10:	00 00       	NOP      NOP      
	...

00000d14 <main>:
main():
..\main.c:40
  * 宙峰   麼痕方
  * 補秘   涙
  * 卦指   涙
  */
void main()
{
     d14:	2d 5d       	PUSH      LR
     d16:	4c 45       	LD        R5, [PC + #76]        ;->0xe44  :=0x40c
     d18:	e5 66       	SUB       SP, R5
..\main.c:44
	/*貧窮潮範扮嶝葎16M議128蛍撞⇧泌兜兵晒RAM扮寂狛海⇧狼由扮嶝兜兵晒辛慧壓startup.c
	 * 議startup()痕方兜兵晒RAM岻念*/
	//狼由扮嶝,翌譜互撞扮嶝塘崔
	SystemInit();
     d1a:	4c 45       	LD        R5, [PC + #76]        ;->0xe48  :=0xf38
     d1c:	05 5c       	LJMP      R5
..\main.c:46
	//塘崔USART2哈重嶷啌符⇧PB14_Tx⇧PB15-RX
	GPIO_USART();
     d1e:	4c 45       	LD        R5, [PC + #76]        ;->0xe4c  :=0xac8
     d20:	05 5c       	LJMP      R5
..\main.c:48
	//畠褒垢呟化8bit 9600襖蒙楕
	USART_Async_config(USART2_SFR);
     d22:	4c 40       	LD        R0, [PC + #76]        ;->0xe50  :=0x40000a80
     d24:	4c 45       	LD        R5, [PC + #76]        ;->0xe54  :=0xb70
     d26:	05 5c       	LJMP      R5
..\main.c:50

	USART2_SFR->CTLR |= 0x40000000; //駅倬崔1
     d28:	4a 44       	LD        R4, [PC + #74]        ;->0xe50  :=0x40000a80
     d2a:	4a 45       	LD        R5, [PC + #74]        ;->0xe50  :=0x40000a80
     d2c:	55 82       	LD.W      R5, [R5]
     d2e:	ae 49       	SET       R5, #30
     d30:	45 85       	ST.W      [R4], R5
..\main.c:54
	//堪笥俊辺嶄僅聞嬬
//	USART_ReceiveInt_config(USART2_SFR,INT_USART2);

	unsigned char FLASH_BUFFER[1024] ={0};
     d32:	ae 58       	MOV       R5, SP
     d34:	5c 28       	ADD       R5, #12
     d36:	85 58       	MOV       R4, R5
     d38:	51 10       	MOV       R5, #1
     d3a:	aa 7a       	LSL       R5, #10
     d3c:	04 58       	MOV       R0, R4
     d3e:	10 10       	MOV       R1, #0
     d40:	45 58       	MOV       R2, R5
     d42:	46 45       	LD        R5, [PC + #70]        ;->0xe58  :=0x12f2
     d44:	05 5c       	LJMP      R5
..\main.c:55
	unsigned char temp1=0;
     d46:	50 10       	MOV       R5, #0
     d48:	e5 83       	ST.B      [SP], R5
..\main.c:57

	uint32_t kk=0;
     d4a:	50 10       	MOV       R5, #0
     d4c:	01 25       	ST.W      [SP + #1], R5
..\main.c:59

	int32_t sz =0;
     d4e:	50 10       	MOV       R5, #0
     d50:	02 25       	ST.W      [SP + #2], R5
..\main.c:61

	GPIO_Write_Mode_Bits(GPIOD_SFR , GPIO_PIN_MASK_6, GPIO_MODE_IN );
     d52:	43 40       	LD        R0, [PC + #67]        ;->0xe5c  :=0x500000c0
     d54:	10 14       	MOV       R1, #64
     d56:	20 10       	MOV       R2, #0
     d58:	42 45       	LD        R5, [PC + #66]        ;->0xe60  :=0x330
     d5a:	05 5c       	LJMP      R5
..\main.c:62
	GPIO_Write_Mode_Bits(GPIOB_SFR , GPIO_PIN_MASK_8|GPIO_PIN_MASK_9|GPIO_PIN_MASK_10|GPIO_PIN_MASK_11|GPIO_PIN_MASK_12|GPIO_PIN_MASK_13, GPIO_MODE_OUT );
     d5c:	42 40       	LD        R0, [PC + #66]        ;->0xe64  :=0x50000040
     d5e:	43 41       	LD        R1, [PC + #67]        ;->0xe68  :=0x3f00
     d60:	21 10       	MOV       R2, #1
     d62:	40 45       	LD        R5, [PC + #64]        ;->0xe60  :=0x330
     d64:	05 5c       	LJMP      R5
..\main.c:72
//			FLASH_BUFFER[i] = temp1;
//			temp1 ++;
//		}
//		//殻會曝屁匈亟秘方象
//		FLASH_PageWrite_fun(0x8000,(uint32_t *)FLASH_BUFFER,128);     //委匯匈議方象亟秘0x8000 侭壓殻會曝議flash PAGE
	GPIO_Toggle_Output_Data_Config(GPIOB_SFR,GPIO_PIN_MASK_8);
     d66:	40 40       	LD        R0, [PC + #64]        ;->0xe64  :=0x50000040
     d68:	1f 1f       	MOV       R1, #255
     d6a:	49 c0       	ADD       R1, R1, #1
     d6c:	40 45       	LD        R5, [PC + #64]        ;->0xe6c  :=0x3b2
     d6e:	05 5c       	LJMP      R5
..\main.c:73
	GPIO_Toggle_Output_Data_Config(GPIOB_SFR,GPIO_PIN_MASK_9);
     d70:	3d 40       	LD        R0, [PC + #61]        ;->0xe64  :=0x50000040
     d72:	11 10       	MOV       R1, #1
     d74:	89 7a       	LSL       R1, #9
     d76:	3e 45       	LD        R5, [PC + #62]        ;->0xe6c  :=0x3b2
     d78:	05 5c       	LJMP      R5
..\main.c:74
	kk =delay();
     d7a:	3e 45       	LD        R5, [PC + #62]        ;->0xe70  :=0xcd0
     d7c:	05 5c       	LJMP      R5
     d7e:	01 20       	ST.W      [SP + #1], R0
..\main.c:75
	GPIO_Toggle_Output_Data_Config(GPIOB_SFR,GPIO_PIN_MASK_8);
     d80:	39 40       	LD        R0, [PC + #57]        ;->0xe64  :=0x50000040
     d82:	1f 1f       	MOV       R1, #255
     d84:	49 c0       	ADD       R1, R1, #1
     d86:	3a 45       	LD        R5, [PC + #58]        ;->0xe6c  :=0x3b2
     d88:	05 5c       	LJMP      R5
..\main.c:76
	GPIO_Toggle_Output_Data_Config(GPIOB_SFR,GPIO_PIN_MASK_9);
     d8a:	37 40       	LD        R0, [PC + #55]        ;->0xe64  :=0x50000040
     d8c:	11 10       	MOV       R1, #1
     d8e:	89 7a       	LSL       R1, #9
     d90:	37 45       	LD        R5, [PC + #55]        ;->0xe6c  :=0x3b2
     d92:	05 5c       	LJMP      R5
..\main.c:77
	kk =delay();
     d94:	37 45       	LD        R5, [PC + #55]        ;->0xe70  :=0xcd0
     d96:	05 5c       	LJMP      R5
     d98:	01 20       	ST.W      [SP + #1], R0
..\main.c:78
	GPIO_Toggle_Output_Data_Config(GPIOB_SFR,GPIO_PIN_MASK_8);
     d9a:	33 40       	LD        R0, [PC + #51]        ;->0xe64  :=0x50000040
     d9c:	1f 1f       	MOV       R1, #255
     d9e:	49 c0       	ADD       R1, R1, #1
     da0:	33 45       	LD        R5, [PC + #51]        ;->0xe6c  :=0x3b2
     da2:	05 5c       	LJMP      R5
..\main.c:79
	GPIO_Toggle_Output_Data_Config(GPIOB_SFR,GPIO_PIN_MASK_9);
     da4:	30 40       	LD        R0, [PC + #48]        ;->0xe64  :=0x50000040
     da6:	11 10       	MOV       R1, #1
     da8:	89 7a       	LSL       R1, #9
     daa:	31 45       	LD        R5, [PC + #49]        ;->0xe6c  :=0x3b2
     dac:	05 5c       	LJMP      R5
..\main.c:80
	kk =delay();
     dae:	31 45       	LD        R5, [PC + #49]        ;->0xe70  :=0xcd0
     db0:	05 5c       	LJMP      R5
     db2:	01 20       	ST.W      [SP + #1], R0
..\main.c:81
	GPIO_Toggle_Output_Data_Config(GPIOB_SFR,GPIO_PIN_MASK_8);
     db4:	2c 40       	LD        R0, [PC + #44]        ;->0xe64  :=0x50000040
     db6:	1f 1f       	MOV       R1, #255
     db8:	49 c0       	ADD       R1, R1, #1
     dba:	2d 45       	LD        R5, [PC + #45]        ;->0xe6c  :=0x3b2
     dbc:	05 5c       	LJMP      R5
..\main.c:82
	GPIO_Toggle_Output_Data_Config(GPIOB_SFR,GPIO_PIN_MASK_9);
     dbe:	2a 40       	LD        R0, [PC + #42]        ;->0xe64  :=0x50000040
     dc0:	11 10       	MOV       R1, #1
     dc2:	89 7a       	LSL       R1, #9
     dc4:	2a 45       	LD        R5, [PC + #42]        ;->0xe6c  :=0x3b2
     dc6:	05 5c       	LJMP      R5
..\main.c:83
	kk =delay();
     dc8:	2a 45       	LD        R5, [PC + #42]        ;->0xe70  :=0xcd0
     dca:	05 5c       	LJMP      R5
     dcc:	01 20       	ST.W      [SP + #1], R0
..\main.c:85

	USART_Send(USART2_SFR , "Initing\r\n" ,sizeof("Initing\r\n"));
     dce:	21 40       	LD        R0, [PC + #33]        ;->0xe50  :=0x40000a80
     dd0:	29 41       	LD        R1, [PC + #41]        ;->0xe74  :=0xcf8
     dd2:	2a 10       	MOV       R2, #10
     dd4:	29 45       	LD        R5, [PC + #41]        ;->0xe78  :=0xb24
     dd6:	05 5c       	LJMP      R5
..\main.c:89

	while(1)
	{
		if(GPIO_Read_Input_Data_Bit(GPIOD_SFR , GPIO_PIN_MASK_6))
     dd8:	21 40       	LD        R0, [PC + #33]        ;->0xe5c  :=0x500000c0
     dda:	10 14       	MOV       R1, #64
     ddc:	28 45       	LD        R5, [PC + #40]        ;->0xe7c  :=0x38a
     dde:	05 5c       	LJMP      R5
     de0:	a0 58       	MOV       R5, R0
     de2:	50 38       	CMP       R5, #0
     de4:	0d f0       	JZ        $+13                  ;->0xdfe
..\main.c:91
		{
			sz= Ymodem_Receive(tab_133);
     de6:	27 40       	LD        R0, [PC + #39]        ;->0xe80  :=0x10000d7c
     de8:	27 45       	LD        R5, [PC + #39]        ;->0xe84  :=0x1100
     dea:	05 5c       	LJMP      R5
     dec:	02 20       	ST.W      [SP + #2], R0
..\main.c:93

			if(sz >99)
     dee:	02 0d       	LD.W      R5, [SP + #2]
     df0:	53 3e       	CMP       R5, #99
     df2:	06 fd       	JLE       $+6                   ;->0xdfe
..\main.c:94
				GPIO_Toggle_Output_Data_Config(GPIOB_SFR,GPIO_PIN_MASK_8); //PB10鍬廬,LED2賂註賜泣疏
     df4:	1c 40       	LD        R0, [PC + #28]        ;->0xe64  :=0x50000040
     df6:	1f 1f       	MOV       R1, #255
     df8:	49 c0       	ADD       R1, R1, #1
     dfa:	1d 45       	LD        R5, [PC + #29]        ;->0xe6c  :=0x3b2
     dfc:	05 5c       	LJMP      R5
..\main.c:97
		}

		if(*(volatile uint32_t*)0x8000 == 0x10020000 )
     dfe:	51 10       	MOV       R5, #1
     e00:	af 7a       	LSL       R5, #15
     e02:	55 82       	LD.W      R5, [R5]
     e04:	21 44       	LD        R4, [PC + #33]        ;->0xe88  :=0x10020000
     e06:	54 70       	CMP       R5, R4
     e08:	10 f1       	JNZ       $+16                  ;->0xe28
..\main.c:100
		{
		      /* Initialize user application's Stack Pointer */
		      SYS_VECTOFF = 0x8000 ;
     e0a:	21 44       	LD        R4, [PC + #33]        ;->0xe8c  :=0x402000b0
     e0c:	51 10       	MOV       R5, #1
     e0e:	af 7a       	LSL       R5, #15
     e10:	e5 a0       	ST.W      [R4 + #3], R5
..\main.c:102

		      JumpAddress = *(volatile uint32_t*) (0x8000 + 4);
     e12:	20 45       	LD        R5, [PC + #32]        ;->0xe90  :=0x8004
     e14:	55 82       	LD.W      R5, [R5]
     e16:	20 44       	LD        R4, [PC + #32]        ;->0xe94  :=0x10000e24
     e18:	45 85       	ST.W      [R4], R5
..\main.c:105

		      /* Jump to user application */
		      Jump_To_Application = (pFunction) JumpAddress;
     e1a:	1f 45       	LD        R5, [PC + #31]        ;->0xe94  :=0x10000e24
     e1c:	55 82       	LD.W      R5, [R5]
     e1e:	1f 44       	LD        R4, [PC + #31]        ;->0xe98  :=0x10000e28
     e20:	45 85       	ST.W      [R4], R5
..\main.c:107

		      Jump_To_Application();
     e22:	1e 45       	LD        R5, [PC + #30]        ;->0xe98  :=0x10000e28
     e24:	55 82       	LD.W      R5, [R5]
     e26:	05 5c       	LJMP      R5
..\main.c:110
		}

		USART_Send(USART2_SFR , "hello 2020\r\n" ,sizeof("hello 2020\r\n"));
     e28:	0a 40       	LD        R0, [PC + #10]        ;->0xe50  :=0x40000a80
     e2a:	1d 41       	LD        R1, [PC + #29]        ;->0xe9c  :=0xd04
     e2c:	2d 10       	MOV       R2, #13
     e2e:	13 45       	LD        R5, [PC + #19]        ;->0xe78  :=0xb24
     e30:	05 5c       	LJMP      R5
..\main.c:114
#ifdef test
		GPIO_Toggle_Output_Data_Config(GPIOB_SFR,GPIO_PIN_MASK_9); //PB10鍬廬,LED2賂註賜泣疏
#else
		GPIO_Toggle_Output_Data_Config(GPIOB_SFR,GPIO_PIN_MASK_10); //PB10鍬廬,LED2賂註賜泣疏
     e32:	0d 40       	LD        R0, [PC + #13]        ;->0xe64  :=0x50000040
     e34:	11 10       	MOV       R1, #1
     e36:	8a 7a       	LSL       R1, #10
     e38:	0d 45       	LD        R5, [PC + #13]        ;->0xe6c  :=0x3b2
     e3a:	05 5c       	LJMP      R5
..\main.c:117
#endif

		kk =delay();
     e3c:	0d 45       	LD        R5, [PC + #13]        ;->0xe70  :=0xcd0
     e3e:	05 5c       	LJMP      R5
     e40:	01 20       	ST.W      [SP + #1], R0
..\main.c:118
	}		
     e42:	cb 07       	SJMP      $-53                  ;->0xdd8
     e44:	0c 04 00 00 	.long     0x0000040c ->1036
     e48:	38 0f 00 00 	.long     0x00000f38 ->3896
     e4c:	c8 0a 00 00 	.long     0x00000ac8 ->2760
     e50:	80 0a 00 40 	.long     0x40000a80 ->1073744512
     e54:	70 0b 00 00 	.long     0x00000b70 ->2928
     e58:	f2 12 00 00 	.long     0x000012f2 ->4850
     e5c:	c0 00 00 50 	.long     0x500000c0 ->1342177472
     e60:	30 03 00 00 	.long     0x00000330 ->816
     e64:	40 00 00 50 	.long     0x50000040 ->1342177344
     e68:	00 3f 00 00 	.long     0x00003f00 ->16128
     e6c:	b2 03 00 00 	.long     0x000003b2 ->946
     e70:	d0 0c 00 00 	.long     0x00000cd0 ->3280
     e74:	f8 0c 00 00 	.long     0x00000cf8 ->3320
     e78:	24 0b 00 00 	.long     0x00000b24 ->2852
     e7c:	8a 03 00 00 	.long     0x0000038a ->906
     e80:	7c 0d 00 10 	.long     0x10000d7c ->268438908
     e84:	00 11 00 00 	.long     0x00001100 ->4352
     e88:	00 00 02 10 	.long     0x10020000 ->268566528
     e8c:	b0 00 20 40 	.long     0x402000b0 ->1075839152
     e90:	04 80 00 00 	.long     0x00008004 ->32772
     e94:	24 0e 00 10 	.long     0x10000e24 ->268439076
     e98:	28 0e 00 10 	.long     0x10000e28 ->268439080
     e9c:	04 0d 00 00 	.long     0x00000d04 ->3332

00000ea0 <SetSysClock>:
SetSysClock():
..\system_init.c:18
  * 宙峰  扮嶝潮範塘崔。
  * 補秘  涙。
  * 卦指  涙。
*/
static void SetSysClock(void)
{
     ea0:	2d 5d       	PUSH      LR
..\system_init.c:20
	/* 聞嬬坪何互撞扮嶝*/
	OSC_INTHF_Software_Enable(TRUE);
     ea2:	01 10       	MOV       R0, #1
     ea4:	18 45       	LD        R5, [PC + #24]        ;->0xf04  :=0x650
     ea6:	05 5c       	LJMP      R5
..\system_init.c:21
	while(OSC_Get_INTHF_INT_Flag() != SET);
     ea8:	00 00       	NOP      NOP      
     eaa:	18 45       	LD        R5, [PC + #24]        ;->0xf08  :=0x684
     eac:	05 5c       	LJMP      R5
     eae:	a0 58       	MOV       R5, R0
     eb0:	51 38       	CMP       R5, #1
     eb2:	fc f1       	JNZ       $-4                   ;->0xeaa
..\system_init.c:24
	/* PLL扮嶝坿僉夲 */
#ifdef SYSCLK_FREQ_HSI
	OSC_PLL_Input_Source_Config(PLL_INPUT_INTHF);
     eb4:	00 10       	MOV       R0, #0
     eb6:	16 45       	LD        R5, [PC + #22]        ;->0xf0c  :=0x4b0
     eb8:	05 5c       	LJMP      R5
..\system_init.c:36
#elif defined SYSCLK_FREQ_72MHz
	OSC_PLL_Multiple_Value_Select(36,2,4);
#elif defined SYSCLK_FREQ_96MHz
	OSC_PLL_Multiple_Value_Select(12,1,2);
#elif defined SYSCLK_FREQ_120MHz
	OSC_PLL_Multiple_Value_Select(30,2,2);
     eba:	0e 11       	MOV       R0, #30
     ebc:	12 10       	MOV       R1, #2
     ebe:	22 10       	MOV       R2, #2
     ec0:	14 45       	LD        R5, [PC + #20]        ;->0xf10  :=0x550
     ec2:	05 5c       	LJMP      R5
..\system_init.c:38
#endif
	OSC_PLL_Start_Delay_Config(PLL_START_DELAY_1024);
     ec4:	04 10       	MOV       R0, #4
     ec6:	14 45       	LD        R5, [PC + #20]        ;->0xf14  :=0x600
     ec8:	05 5c       	LJMP      R5
..\system_init.c:39
	OSC_PLL_Software_Enable(TRUE);
     eca:	01 10       	MOV       R0, #1
     ecc:	13 45       	LD        R5, [PC + #19]        ;->0xf18  :=0x634
     ece:	05 5c       	LJMP      R5
..\system_init.c:40
	OSC_PLL_RST();
     ed0:	13 45       	LD        R5, [PC + #19]        ;->0xf1c  :=0x5f4
     ed2:	05 5c       	LJMP      R5
..\system_init.c:41
	while(OSC_Get_PLL_INT_Flag() != SET);
     ed4:	00 00       	NOP      NOP      
     ed6:	13 45       	LD        R5, [PC + #19]        ;->0xf20  :=0x66c
     ed8:	05 5c       	LJMP      R5
     eda:	a0 58       	MOV       R5, R0
     edc:	51 38       	CMP       R5, #1
     ede:	fc f1       	JNZ       $-4                   ;->0xed6
..\system_init.c:43
	/* 麼扮嶝塘崔 */
	OSC_SCK_Division_Config(SCLK_DIVISION_1);
     ee0:	00 10       	MOV       R0, #0
     ee2:	11 45       	LD        R5, [PC + #17]        ;->0xf24  :=0x47c
     ee4:	05 5c       	LJMP      R5
..\system_init.c:44
	OSC_SCK_Source_Config(SCLK_SOURCE_PLL);
     ee6:	04 10       	MOV       R0, #4
     ee8:	10 45       	LD        R5, [PC + #16]        ;->0xf28  :=0x51c
     eea:	05 5c       	LJMP      R5
..\system_init.c:46
	/* 翌譜互堀扮嶝 */
	OSC_HFCK_Division_Config(HFCK_DIVISION_1);
     eec:	00 10       	MOV       R0, #0
     eee:	10 45       	LD        R5, [PC + #16]        ;->0xf2c  :=0x448
     ef0:	05 5c       	LJMP      R5
..\system_init.c:47
	OSC_HFCK_Source_Config(HFCK_SOURCE_INTHF);
     ef2:	00 10       	MOV       R0, #0
     ef4:	0f 45       	LD        R5, [PC + #15]        ;->0xf30  :=0x4cc
     ef6:	05 5c       	LJMP      R5
..\system_init.c:48
	OSC_HFCK_Enable(TRUE);
     ef8:	01 10       	MOV       R0, #1
     efa:	0f 45       	LD        R5, [PC + #15]        ;->0xf34  :=0x500
     efc:	05 5c       	LJMP      R5
..\system_init.c:49
}
     efe:	0d 5d       	POP       LR
     f00:	1d 5c       	JMP       LR
     f02:	00 00       	NOP      NOP      
     f04:	50 06 00 00 	.long     0x00000650 ->1616
     f08:	84 06 00 00 	.long     0x00000684 ->1668
     f0c:	b0 04 00 00 	.long     0x000004b0 ->1200
     f10:	50 05 00 00 	.long     0x00000550 ->1360
     f14:	00 06 00 00 	.long     0x00000600 ->1536
     f18:	34 06 00 00 	.long     0x00000634 ->1588
     f1c:	f4 05 00 00 	.long     0x000005f4 ->1524
     f20:	6c 06 00 00 	.long     0x0000066c ->1644
     f24:	7c 04 00 00 	.long     0x0000047c ->1148
     f28:	1c 05 00 00 	.long     0x0000051c ->1308
     f2c:	48 04 00 00 	.long     0x00000448 ->1096
     f30:	cc 04 00 00 	.long     0x000004cc ->1228
     f34:	00 05 00 00 	.long     0x00000500 ->1280

00000f38 <SystemInit>:
SystemInit():
..\system_init.c:57
  * 宙峰  狼由兜兵晒。
  * 補秘  涙。
  * 卦指  涙。
*/
void SystemInit(void)
{
     f38:	2d 5d       	PUSH      LR
..\system_init.c:59
	/* 扮嶝塘崔 */
	SetSysClock();
     f3a:	04 45       	LD        R5, [PC + #4]         ;->0xf48  :=0xea0
     f3c:	05 5c       	LJMP      R5
..\system_init.c:60
	FLASH_CFG=0xC3;//FLASH響函巓豚4巓豚
     f3e:	04 45       	LD        R5, [PC + #4]         ;->0xf4c  :=0x40200100
     f40:	43 1c       	MOV       R4, #195
     f42:	6c a1       	ST.W      [R5 + #5], R4
..\system_init.c:61
}
     f44:	0d 5d       	POP       LR
     f46:	1d 5c       	JMP       LR
     f48:	a0 0e 00 00 	.long     0x00000ea0 ->3744
     f4c:	00 01 20 40 	.long     0x40200100 ->1075839232

00000f50 <Receive_Byte>:
Receive_Byte():
..\ymodem.c:153
  * @param  timeout: Timeout
  * @retval 0: Byte received
  *         -1: Timeout
  */
static  int32_t Receive_Byte (uint8_t *c ) //階扮扮寂駅倬怎校海⇧匯違勣箔駅倬寄噐30ms⇧倦夸貧了字栖音式峒哘
{
     f50:	e8 30       	SUB       SP, #8
     f52:	01 20       	ST.W      [SP + #1], R0
..\ymodem.c:154
  uint32_t timeout =0x50000;
     f54:	1c 45       	LD        R5, [PC + #28]        ;->0xfc4  :=0x50000
     f56:	e5 85       	ST.W      [SP], R5
..\ymodem.c:157

//  GPIOB_SFR->POR |= (uint32_t)GPIO_PIN_MASK_11;
  while (timeout-- > 1)
     f58:	26 04       	SJMP      $+38                  ;->0xfa4
..\ymodem.c:159
  {
	  if( EVAL_COM->STR & 0x01) //吝竃危列侃尖
     f5a:	1c 45       	LD        R5, [PC + #28]        ;->0xfc8  :=0x40000a80
     f5c:	a5 98       	LD.W      R4, [R5 + #2]
     f5e:	51 10       	MOV       R5, #1
     f60:	6c d5       	ANL       R5, R4, R5
     f62:	50 38       	CMP       R5, #0
     f64:	12 f0       	JZ        $+18                  ;->0xf88
..\ymodem.c:161
	  {
		  EVAL_COM->STR |= 0x10000; //OVFEIC =1
     f66:	19 45       	LD        R5, [PC + #25]        ;->0xfc8  :=0x40000a80
     f68:	18 44       	LD        R4, [PC + #24]        ;->0xfc8  :=0x40000a80
     f6a:	a4 98       	LD.W      R4, [R4 + #2]
     f6c:	20 49       	SET       R4, #16
     f6e:	ac a0       	ST.W      [R5 + #2], R4
..\ymodem.c:162
		  while( EVAL_COM->STR & (uint32_t)0x01);
     f70:	00 00       	NOP      NOP      
     f72:	16 45       	LD        R5, [PC + #22]        ;->0xfc8  :=0x40000a80
     f74:	a5 98       	LD.W      R4, [R5 + #2]
     f76:	51 10       	MOV       R5, #1
     f78:	6c d5       	ANL       R5, R4, R5
     f7a:	50 38       	CMP       R5, #0
     f7c:	fb f1       	JNZ       $-5                   ;->0xf72
..\ymodem.c:163
		  EVAL_COM->STR &= 0xfffeffff; //OVFEIC =0
     f7e:	13 45       	LD        R5, [PC + #19]        ;->0xfc8  :=0x40000a80
     f80:	12 44       	LD        R4, [PC + #18]        ;->0xfc8  :=0x40000a80
     f82:	a4 98       	LD.W      R4, [R4 + #2]
     f84:	20 4b       	CLR       R4, #16
     f86:	ac a0       	ST.W      [R5 + #2], R4
..\ymodem.c:166
	  }

	  if( EVAL_COM->STR & 0x800)  //RDRIF =1◉俊辺議嗤方象
     f88:	10 45       	LD        R5, [PC + #16]        ;->0xfc8  :=0x40000a80
     f8a:	a5 98       	LD.W      R4, [R5 + #2]
     f8c:	51 10       	MOV       R5, #1
     f8e:	ab 7a       	LSL       R5, #11
     f90:	6c d5       	ANL       R5, R4, R5
     f92:	50 38       	CMP       R5, #0
     f94:	08 f0       	JZ        $+8                   ;->0xfa4
..\ymodem.c:168
	  {
		  *c = (uint8_t)EVAL_COM->RBUFR; //響竃俊辺方象
     f96:	0d 45       	LD        R5, [PC + #13]        ;->0xfc8  :=0x40000a80
     f98:	ed 98       	LD.W      R5, [R5 + #3]
     f9a:	55 d1       	ZXT.B     R5, R5
     f9c:	01 0c       	LD.W      R4, [SP + #1]
     f9e:	45 83       	ST.B      [R4], R5
..\ymodem.c:170
//		  GPIOB_SFR->POR &= ~((uint32_t)GPIO_PIN_MASK_11);
		  return 0;
     fa0:	50 10       	MOV       R5, #0
     fa2:	0e 04       	SJMP      $+14                  ;->0xfbe
..\ymodem.c:157
static  int32_t Receive_Byte (uint8_t *c ) //階扮扮寂駅倬怎校海⇧匯違勣箔駅倬寄噐30ms⇧倦夸貧了字栖音式峒哘
{
  uint32_t timeout =0x50000;

//  GPIOB_SFR->POR |= (uint32_t)GPIO_PIN_MASK_11;
  while (timeout-- > 1)
     fa4:	51 10       	MOV       R5, #1
     fa6:	4e 82       	LD.W      R4, [SP]
     fa8:	41 38       	CMP       R4, #1
     faa:	02 f8       	JHI       $+2                   ;->0xfae
     fac:	50 10       	MOV       R5, #0
     fae:	55 d1       	ZXT.B     R5, R5
     fb0:	4e 82       	LD.W      R4, [SP]
     fb2:	64 cc       	SUB       R4, R4, #1
     fb4:	e4 85       	ST.W      [SP], R4
     fb6:	50 38       	CMP       R5, #0
     fb8:	d1 f1       	JNZ       $-47                  ;->0xf5a
..\ymodem.c:174
//		  GPIOB_SFR->POR &= ~((uint32_t)GPIO_PIN_MASK_11);
		  return 0;
	  }
  }
//  GPIOB_SFR->POR &= ~((uint32_t)GPIO_PIN_MASK_11);
  return -1;
     fba:	50 10       	MOV       R5, #0
     fbc:	55 68       	NOT       R5, R5
..\ymodem.c:175
}
     fbe:	05 58       	MOV       R0, R5
     fc0:	e8 28       	ADD       SP, #8
     fc2:	1d 5c       	JMP       LR
     fc4:	00 00 05 00 	.long     0x00050000 ->327680
     fc8:	80 0a 00 40 	.long     0x40000a80 ->1073744512

00000fcc <Send_Byte>:
Send_Byte():
..\ymodem.c:183
  * @brief  Send a byte
  * @param  c: Character
  * @retval 0: Byte sent
  */
static uint32_t Send_Byte (uint8_t c)
{
     fcc:	2d 5d       	PUSH      LR
     fce:	e4 30       	SUB       SP, #4
     fd0:	a0 58       	MOV       R5, R0
     fd2:	e5 83       	ST.B      [SP], R5
..\ymodem.c:185
	//堪笥窟僕
	USART_SendData(EVAL_COM,c);
     fd4:	5e 80       	LD.B      R5, [SP]
     fd6:	09 40       	LD        R0, [PC + #9]         ;->0xff8  :=0x40000a80
     fd8:	25 58       	MOV       R1, R5
     fda:	09 45       	LD        R5, [PC + #9]         ;->0xffc  :=0xa06
     fdc:	05 5c       	LJMP      R5
..\ymodem.c:187
	//窟僕頼撹炎崗
	while(!USART_Get_Transmitter_Empty_Flag(EVAL_COM));
     fde:	00 00       	NOP      NOP      
     fe0:	06 40       	LD        R0, [PC + #6]         ;->0xff8  :=0x40000a80
     fe2:	08 45       	LD        R5, [PC + #8]         ;->0x1000  :=0xa18
     fe4:	05 5c       	LJMP      R5
     fe6:	a0 58       	MOV       R5, R0
     fe8:	50 38       	CMP       R5, #0
     fea:	fb f0       	JZ        $-5                   ;->0xfe0
..\ymodem.c:188
  return 0;
     fec:	50 10       	MOV       R5, #0
..\ymodem.c:189
}
     fee:	05 58       	MOV       R0, R5
     ff0:	e4 28       	ADD       SP, #4
     ff2:	0d 5d       	POP       LR
     ff4:	1d 5c       	JMP       LR
     ff6:	00 00       	NOP      NOP      
     ff8:	80 0a 00 40 	.long     0x40000a80 ->1073744512
     ffc:	06 0a 00 00 	.long     0x00000a06 ->2566
    1000:	18 0a 00 00 	.long     0x00000a18 ->2584

00001004 <Receive_Packet>:
Receive_Packet():
..\ymodem.c:204
  * @retval 0: normally return
  *        -1: timeout or packet error
  *         1: abort by user
  */
static int32_t Receive_Packet (uint8_t *data, int32_t *length)
{
    1004:	2d 5d       	PUSH      LR
    1006:	e0 31       	SUB       SP, #16
    1008:	02 20       	ST.W      [SP + #2], R0
    100a:	03 21       	ST.W      [SP + #3], R1
..\ymodem.c:205
  volatile uint16_t i, packet_size =0;
    100c:	50 10       	MOV       R5, #0
    100e:	a1 e2       	ST.H      [SP + #1], R5
..\ymodem.c:207
  uint8_t c;
  *length = 0; //亟秘兜兵議方象淫海業
    1010:	03 0c       	LD.W      R4, [SP + #3]
    1012:	50 10       	MOV       R5, #0
    1014:	45 85       	ST.W      [R4], R5
..\ymodem.c:208
  if (Receive_Byte(&c ) != 0) //俊辺及匯倖忖憲
    1016:	8e 58       	MOV       R4, SP
    1018:	2c c1       	ADD       R5, R4, #4
    101a:	05 58       	MOV       R0, R5
    101c:	38 45       	LD        R5, [PC + #56]        ;->0x10fc  :=0xf50
    101e:	05 5c       	LJMP      R5
    1020:	a0 58       	MOV       R5, R0
    1022:	50 38       	CMP       R5, #0
    1024:	04 f0       	JZ        $+4                   ;->0x102c
..\ymodem.c:210
  {
    return -1;
    1026:	50 10       	MOV       R5, #0
    1028:	55 68       	NOT       R5, R5
    102a:	65 04       	SJMP      $+101                 ;->0x10f4
..\ymodem.c:212
  }
  switch (c) //登僅頁陳匯嶽方象淫⇧旺拝鳩協方象淫議海業
    102c:	a4 e1       	LD.B      R5, [SP + #4]
    102e:	54 38       	CMP       R5, #4
    1030:	16 f0       	JZ        $+22                  ;->0x105c
    1032:	54 38       	CMP       R5, #4
    1034:	06 fc       	JGT       $+6                   ;->0x1040
    1036:	51 38       	CMP       R5, #1
    1038:	0b f0       	JZ        $+11                  ;->0x104e
    103a:	52 38       	CMP       R5, #2
    103c:	0c f0       	JZ        $+12                  ;->0x1054
    103e:	27 04       	SJMP      $+39                  ;->0x108c
    1040:	51 3c       	CMP       R5, #65
    1042:	23 f0       	JZ        $+35                  ;->0x1088
    1044:	51 3e       	CMP       R5, #97
    1046:	21 f0       	JZ        $+33                  ;->0x1088
    1048:	58 39       	CMP       R5, #24
    104a:	0b f0       	JZ        $+11                  ;->0x1060
    104c:	20 04       	SJMP      $+32                  ;->0x108c
..\ymodem.c:215
  {
    case SOH:
      packet_size = PACKET_SIZE; //軟兵淫⇧淫凄猟周兆才猟周海業⇧坪否海業頁128
    104e:	50 18       	MOV       R5, #128
    1050:	a1 e2       	ST.H      [SP + #1], R5
..\ymodem.c:216
      break;
    1052:	20 04       	SJMP      $+32                  ;->0x1092
..\ymodem.c:218
    case STX:
      packet_size = PACKET_1K_SIZE; //方象淫⇧坪否海業頁1024
    1054:	51 10       	MOV       R5, #1
    1056:	aa 7a       	LSL       R5, #10
    1058:	a1 e2       	ST.H      [SP + #1], R5
..\ymodem.c:219
      break;
    105a:	1c 04       	SJMP      $+28                  ;->0x1092
..\ymodem.c:221
    case EOT: //潤崩淫
      return 0;
    105c:	50 10       	MOV       R5, #0
    105e:	4b 04       	SJMP      $+75                  ;->0x10f4
..\ymodem.c:223
    case CA:  //麼字勣箔慧虹勧補
      if ((Receive_Byte(&c ) == 0) && (c == CA))
    1060:	8e 58       	MOV       R4, SP
    1062:	2c c1       	ADD       R5, R4, #4
    1064:	05 58       	MOV       R0, R5
    1066:	26 45       	LD        R5, [PC + #38]        ;->0x10fc  :=0xf50
    1068:	05 5c       	LJMP      R5
    106a:	a0 58       	MOV       R5, R0
    106c:	50 38       	CMP       R5, #0
    106e:	0a f1       	JNZ       $+10                  ;->0x1082
    1070:	a4 e1       	LD.B      R5, [SP + #4]
    1072:	58 39       	CMP       R5, #24
    1074:	07 f1       	JNZ       $+7                   ;->0x1082
..\ymodem.c:225
      {
        *length = -1;
    1076:	03 0c       	LD.W      R4, [SP + #3]
    1078:	50 10       	MOV       R5, #0
    107a:	55 68       	NOT       R5, R5
    107c:	45 85       	ST.W      [R4], R5
..\ymodem.c:226
        return 0;
    107e:	50 10       	MOV       R5, #0
    1080:	3a 04       	SJMP      $+58                  ;->0x10f4
..\ymodem.c:230
      }
      else
      {
        return -1;
    1082:	50 10       	MOV       R5, #0
    1084:	55 68       	NOT       R5, R5
    1086:	37 04       	SJMP      $+55                  ;->0x10f4
..\ymodem.c:234
      }
    case ABORT1:
    case ABORT2:
      return 1;
    1088:	51 10       	MOV       R5, #1
    108a:	35 04       	SJMP      $+53                  ;->0x10f4
..\ymodem.c:236
    default: //泌惚辺欺議及匯倖方象⇧音頁炎彈方象淫議及匯倖方象⇧岷俊卦指音壅侃尖複噫議方象
      return -1;
    108c:	50 10       	MOV       R5, #0
    108e:	55 68       	NOT       R5, R5
    1090:	32 04       	SJMP      $+50                  ;->0x10f4
..\ymodem.c:238
  }
  *data = c; //隠贋淫議及匯倖忖准
    1092:	a4 e1       	LD.B      R5, [SP + #4]
    1094:	02 0c       	LD.W      R4, [SP + #2]
    1096:	45 83       	ST.B      [R4], R5
..\ymodem.c:239
  for (i = 1; i < (packet_size + PACKET_OVERHEAD); i ++) //俊辺屁倖淫
    1098:	51 10       	MOV       R5, #1
    109a:	e5 84       	ST.H      [SP], R5
    109c:	13 04       	SJMP      $+19                  ;->0x10c2
..\ymodem.c:241
  {
    if (Receive_Byte(data + i ) != 0)
    109e:	5e 81       	LD.H      R5, [SP]
    10a0:	55 d0       	ZXT.H     R5, R5
    10a2:	02 0c       	LD.W      R4, [SP + #2]
    10a4:	6c c3       	ADD       R5, R4, R5
    10a6:	05 58       	MOV       R0, R5
    10a8:	15 45       	LD        R5, [PC + #21]        ;->0x10fc  :=0xf50
    10aa:	05 5c       	LJMP      R5
    10ac:	a0 58       	MOV       R5, R0
    10ae:	50 38       	CMP       R5, #0
    10b0:	04 f0       	JZ        $+4                   ;->0x10b8
..\ymodem.c:243
    {
      return -1;
    10b2:	50 10       	MOV       R5, #0
    10b4:	55 68       	NOT       R5, R5
    10b6:	1f 04       	SJMP      $+31                  ;->0x10f4
..\ymodem.c:239
      return 1;
    default: //泌惚辺欺議及匯倖方象⇧音頁炎彈方象淫議及匯倖方象⇧岷俊卦指音壅侃尖複噫議方象
      return -1;
  }
  *data = c; //隠贋淫議及匯倖忖准
  for (i = 1; i < (packet_size + PACKET_OVERHEAD); i ++) //俊辺屁倖淫
    10b8:	5e 81       	LD.H      R5, [SP]
    10ba:	55 d0       	ZXT.H     R5, R5
    10bc:	6d c0       	ADD       R5, R5, #1
    10be:	55 d0       	ZXT.H     R5, R5
    10c0:	e5 84       	ST.H      [SP], R5
    10c2:	5e 81       	LD.H      R5, [SP]
    10c4:	55 d0       	ZXT.H     R5, R5
    10c6:	81 e0       	LD.H      R4, [SP + #1]
    10c8:	44 d0       	ZXT.H     R4, R4
    10ca:	64 c1       	ADD       R4, R4, #5
    10cc:	54 70       	CMP       R5, R4
    10ce:	e8 fb       	JLT       $-24                  ;->0x109e
..\ymodem.c:246
    if (Receive_Byte(data + i ) != 0)
    {
      return -1;
    }
  }
  if (data[PACKET_SEQNO_INDEX] != ((data[PACKET_SEQNO_COMP_INDEX] ^ 0xff) & 0xff)) //丕刮淫議會催才郡鷹頁倦屎鳩
    10d0:	02 0d       	LD.W      R5, [SP + #2]
    10d2:	6d c0       	ADD       R5, R5, #1
    10d4:	45 80       	LD.B      R4, [R5]
    10d6:	02 0d       	LD.W      R5, [SP + #2]
    10d8:	ad c0       	ADD       R5, R5, #2
    10da:	55 80       	LD.B      R5, [R5]
    10dc:	55 68       	NOT       R5, R5
    10de:	55 d1       	ZXT.B     R5, R5
    10e0:	45 70       	CMP       R4, R5
    10e2:	04 f0       	JZ        $+4                   ;->0x10ea
..\ymodem.c:248
  {
    return -1;
    10e4:	50 10       	MOV       R5, #0
    10e6:	55 68       	NOT       R5, R5
    10e8:	06 04       	SJMP      $+6                   ;->0x10f4
..\ymodem.c:250
  }
  *length = packet_size; //亟秘屎械議方象淫海業
    10ea:	a1 e0       	LD.H      R5, [SP + #1]
    10ec:	55 d0       	ZXT.H     R5, R5
    10ee:	03 0c       	LD.W      R4, [SP + #3]
    10f0:	45 85       	ST.W      [R4], R5
..\ymodem.c:251
  return 0;
    10f2:	50 10       	MOV       R5, #0
..\ymodem.c:252
}
    10f4:	05 58       	MOV       R0, R5
    10f6:	e0 29       	ADD       SP, #16
    10f8:	0d 5d       	POP       LR
    10fa:	1d 5c       	JMP       LR
    10fc:	50 0f 00 00 	.long     0x00000f50 ->3920

00001100 <Ymodem_Receive>:
Ymodem_Receive():
    1100:	2d 5d       	PUSH      LR
    1102:	e4 32       	SUB       SP, #36
    1104:	08 20       	ST.W      [SP + #8], R0
    1106:	50 10       	MOV       R5, #0
    1108:	02 25       	ST.W      [SP + #2], R5
    110a:	50 10       	MOV       R5, #0
    110c:	03 25       	ST.W      [SP + #3], R5
    110e:	50 10       	MOV       R5, #0
    1110:	04 25       	ST.W      [SP + #4], R5
    1112:	50 10       	MOV       R5, #0
    1114:	05 25       	ST.W      [SP + #5], R5
    1116:	50 10       	MOV       R5, #0
    1118:	06 25       	ST.W      [SP + #6], R5
    111a:	02 04       	SJMP      $+2                   ;->0x111e
    111c:	00 00       	NOP      NOP      
    111e:	ae 58       	MOV       R5, SP
    1120:	5c 29       	ADD       R5, #28
    1122:	08 08       	LD.W      R0, [SP + #8]
    1124:	25 58       	MOV       R1, R5
    1126:	66 45       	LD        R5, [PC + #102]       ;->0x12bc  :=0x1004
    1128:	05 5c       	LJMP      R5
    112a:	a0 58       	MOV       R5, R0
    112c:	50 38       	CMP       R5, #0
    112e:	05 f0       	JZ        $+5                   ;->0x1138
    1130:	51 38       	CMP       R5, #1
    1132:	02 f1       	JNZ       $+2                   ;->0x1136
    1134:	9b 04       	SJMP      $+155                 ;->0x126a
    1136:	a3 04       	SJMP      $+163                 ;->0x127c
    1138:	62 40       	LD        R0, [PC + #98]        ;->0x12c0  :=0x50000040
    113a:	11 10       	MOV       R1, #1
    113c:	89 7a       	LSL       R1, #9
    113e:	62 45       	LD        R5, [PC + #98]        ;->0x12c4  :=0x3b2
    1140:	05 5c       	LJMP      R5
    1142:	50 10       	MOV       R5, #0
    1144:	03 25       	ST.W      [SP + #3], R5
    1146:	07 0c       	LD.W      R4, [SP + #7]
    1148:	50 10       	MOV       R5, #0
    114a:	55 68       	NOT       R5, R5
    114c:	45 70       	CMP       R4, R5
    114e:	04 f0       	JZ        $+4                   ;->0x1156
    1150:	40 38       	CMP       R4, #0
    1152:	07 f0       	JZ        $+7                   ;->0x1160
    1154:	0d 04       	SJMP      $+13                  ;->0x116e
    1156:	06 10       	MOV       R0, #6
    1158:	5c 45       	LD        R5, [PC + #92]        ;->0x12c8  :=0xfcc
    115a:	05 5c       	LJMP      R5
    115c:	50 10       	MOV       R5, #0
    115e:	aa 04       	SJMP      $+170                 ;->0x12b2
    1160:	06 10       	MOV       R0, #6
    1162:	5a 45       	LD        R5, [PC + #90]        ;->0x12c8  :=0xfcc
    1164:	05 5c       	LJMP      R5
    1166:	51 10       	MOV       R5, #1
    1168:	02 25       	ST.W      [SP + #2], R5
    116a:	00 00       	NOP      NOP      
    116c:	9d 04       	SJMP      $+157                 ;->0x12a6
    116e:	08 0d       	LD.W      R5, [SP + #8]
    1170:	6d c0       	ADD       R5, R5, #1
    1172:	55 80       	LD.B      R5, [R5]
    1174:	05 0b       	LD.W      R3, [SP + #5]
    1176:	4f 1f       	MOV       R4, #255
    1178:	23 d5       	ANL       R4, R3, R4
    117a:	54 70       	CMP       R5, R4
    117c:	05 f0       	JZ        $+5                   ;->0x1186
    117e:	05 11       	MOV       R0, #21
    1180:	52 45       	LD        R5, [PC + #82]        ;->0x12c8  :=0xfcc
    1182:	05 5c       	LJMP      R5
    1184:	91 04       	SJMP      $+145                 ;->0x12a6
    1186:	05 0d       	LD.W      R5, [SP + #5]
    1188:	50 38       	CMP       R5, #0
    118a:	34 f1       	JNZ       $+52                  ;->0x11f2
    118c:	08 0d       	LD.W      R5, [SP + #8]
    118e:	ed c0       	ADD       R5, R5, #3
    1190:	55 80       	LD.B      R5, [R5]
    1192:	50 38       	CMP       R5, #0
    1194:	2a f0       	JZ        $+42                  ;->0x11e8
    1196:	50 10       	MOV       R5, #0
    1198:	01 25       	ST.W      [SP + #1], R5
    119a:	08 0d       	LD.W      R5, [SP + #8]
    119c:	ed c0       	ADD       R5, R5, #3
    119e:	e5 85       	ST.W      [SP], R5
    11a0:	0d 04       	SJMP      $+13                  ;->0x11ba
    11a2:	5e 82       	LD.W      R5, [SP]
    11a4:	55 80       	LD.B      R5, [R5]
    11a6:	4a 43       	LD        R3, [PC + #74]        ;->0x12cc  :=0x10000e40
    11a8:	01 0c       	LD.W      R4, [SP + #1]
    11aa:	23 c3       	ADD       R4, R3, R4
    11ac:	45 83       	ST.B      [R4], R5
    11ae:	01 0d       	LD.W      R5, [SP + #1]
    11b0:	6d c0       	ADD       R5, R5, #1
    11b2:	01 25       	ST.W      [SP + #1], R5
    11b4:	5e 82       	LD.W      R5, [SP]
    11b6:	6d c0       	ADD       R5, R5, #1
    11b8:	e5 85       	ST.W      [SP], R5
    11ba:	5e 82       	LD.W      R5, [SP]
    11bc:	55 80       	LD.B      R5, [R5]
    11be:	50 38       	CMP       R5, #0
    11c0:	05 f0       	JZ        $+5                   ;->0x11ca
    11c2:	01 0c       	LD.W      R4, [SP + #1]
    11c4:	5f 1f       	MOV       R5, #255
    11c6:	45 70       	CMP       R4, R5
    11c8:	ed fd       	JLE       $-19                  ;->0x11a2
    11ca:	41 44       	LD        R4, [PC + #65]        ;->0x12cc  :=0x10000e40
    11cc:	01 0d       	LD.W      R5, [SP + #1]
    11ce:	64 c3       	ADD       R4, R4, R5
    11d0:	50 10       	MOV       R5, #0
    11d2:	45 83       	ST.B      [R4], R5
    11d4:	01 0d       	LD.W      R5, [SP + #1]
    11d6:	6d c0       	ADD       R5, R5, #1
    11d8:	01 25       	ST.W      [SP + #1], R5
    11da:	06 10       	MOV       R0, #6
    11dc:	3b 45       	LD        R5, [PC + #59]        ;->0x12c8  :=0xfcc
    11de:	05 5c       	LJMP      R5
    11e0:	03 14       	MOV       R0, #67
    11e2:	3a 45       	LD        R5, [PC + #58]        ;->0x12c8  :=0xfcc
    11e4:	05 5c       	LJMP      R5
    11e6:	2a 04       	SJMP      $+42                  ;->0x123a
    11e8:	06 10       	MOV       R0, #6
    11ea:	38 45       	LD        R5, [PC + #56]        ;->0x12c8  :=0xfcc
    11ec:	05 5c       	LJMP      R5
    11ee:	50 10       	MOV       R5, #0
    11f0:	61 04       	SJMP      $+97                  ;->0x12b2
    11f2:	05 0d       	LD.W      R5, [SP + #5]
    11f4:	65 cc       	SUB       R4, R5, #1
    11f6:	57 10       	MOV       R5, #7
    11f8:	6c d5       	ANL       R5, R4, R5
    11fa:	06 25       	ST.W      [SP + #6], R5
    11fc:	06 0d       	LD.W      R5, [SP + #6]
    11fe:	2f 7a       	LSL       R5, #7
    1200:	34 44       	LD        R4, [PC + #52]        ;->0x12d0  :=0x10000f40
    1202:	25 c3       	ADD       R4, R5, R4
    1204:	08 0d       	LD.W      R5, [SP + #8]
    1206:	ed c0       	ADD       R5, R5, #3
    1208:	04 58       	MOV       R0, R4
    120a:	25 58       	MOV       R1, R5
    120c:	20 18       	MOV       R2, #128
    120e:	32 45       	LD        R5, [PC + #50]        ;->0x12d4  :=0x12e0
    1210:	05 5c       	LJMP      R5
    1212:	06 0d       	LD.W      R5, [SP + #6]
    1214:	57 38       	CMP       R5, #7
    1216:	0f f1       	JNZ       $+15                  ;->0x1234
    1218:	30 45       	LD        R5, [PC + #48]        ;->0x12d8  :=0x10000e04
    121a:	55 82       	LD.W      R5, [R5]
    121c:	05 58       	MOV       R0, R5
    121e:	2d 41       	LD        R1, [PC + #45]        ;->0x12d0  :=0x10000f40
    1220:	20 18       	MOV       R2, #128
    1222:	2f 45       	LD        R5, [PC + #47]        ;->0x12dc  :=0xbd8
    1224:	05 5c       	LJMP      R5
    1226:	2d 45       	LD        R5, [PC + #45]        ;->0x12d8  :=0x10000e04
    1228:	45 82       	LD.W      R4, [R5]
    122a:	51 10       	MOV       R5, #1
    122c:	aa 7a       	LSL       R5, #10
    122e:	64 c3       	ADD       R4, R4, R5
    1230:	2a 45       	LD        R5, [PC + #42]        ;->0x12d8  :=0x10000e04
    1232:	54 85       	ST.W      [R5], R4
    1234:	06 10       	MOV       R0, #6
    1236:	25 45       	LD        R5, [PC + #37]        ;->0x12c8  :=0xfcc
    1238:	05 5c       	LJMP      R5
    123a:	22 44       	LD        R4, [PC + #34]        ;->0x12c0  :=0x50000040
    123c:	21 45       	LD        R5, [PC + #33]        ;->0x12c0  :=0x50000040
    123e:	5d 98       	LD.W      R3, [R5 + #1]
    1240:	51 10       	MOV       R5, #1
    1242:	ad 7a       	LSL       R5, #13
    1244:	6b d9       	XRL       R5, R3, R5
    1246:	65 a0       	ST.W      [R4 + #1], R5
    1248:	05 0d       	LD.W      R5, [SP + #5]
    124a:	6d c0       	ADD       R5, R5, #1
    124c:	05 25       	ST.W      [SP + #5], R5
    124e:	05 0d       	LD.W      R5, [SP + #5]
    1250:	50 3d       	CMP       R5, #80
    1252:	09 f9       	JLS       $+9                   ;->0x1264
    1254:	08 11       	MOV       R0, #24
    1256:	1d 45       	LD        R5, [PC + #29]        ;->0x12c8  :=0xfcc
    1258:	05 5c       	LJMP      R5
    125a:	08 11       	MOV       R0, #24
    125c:	1b 45       	LD        R5, [PC + #27]        ;->0x12c8  :=0xfcc
    125e:	05 5c       	LJMP      R5
    1260:	54 16       	MOV       R5, #100
    1262:	28 04       	SJMP      $+40                  ;->0x12b2
    1264:	51 10       	MOV       R5, #1
    1266:	04 25       	ST.W      [SP + #4], R5
    1268:	1f 04       	SJMP      $+31                  ;->0x12a6
    126a:	08 11       	MOV       R0, #24
    126c:	17 45       	LD        R5, [PC + #23]        ;->0x12c8  :=0xfcc
    126e:	05 5c       	LJMP      R5
    1270:	08 11       	MOV       R0, #24
    1272:	16 45       	LD        R5, [PC + #22]        ;->0x12c8  :=0xfcc
    1274:	05 5c       	LJMP      R5
    1276:	52 10       	MOV       R5, #2
    1278:	55 68       	NOT       R5, R5
    127a:	1c 04       	SJMP      $+28                  ;->0x12b2
    127c:	04 0d       	LD.W      R5, [SP + #4]
    127e:	50 38       	CMP       R5, #0
    1280:	04 fd       	JLE       $+4                   ;->0x1288
    1282:	03 0d       	LD.W      R5, [SP + #3]
    1284:	6d c0       	ADD       R5, R5, #1
    1286:	03 25       	ST.W      [SP + #3], R5
    1288:	03 0d       	LD.W      R5, [SP + #3]
    128a:	55 38       	CMP       R5, #5
    128c:	09 fd       	JLE       $+9                   ;->0x129e
    128e:	08 11       	MOV       R0, #24
    1290:	0e 45       	LD        R5, [PC + #14]        ;->0x12c8  :=0xfcc
    1292:	05 5c       	LJMP      R5
    1294:	08 11       	MOV       R0, #24
    1296:	0d 45       	LD        R5, [PC + #13]        ;->0x12c8  :=0xfcc
    1298:	05 5c       	LJMP      R5
    129a:	50 10       	MOV       R5, #0
    129c:	0b 04       	SJMP      $+11                  ;->0x12b2
    129e:	03 14       	MOV       R0, #67
    12a0:	0a 45       	LD        R5, [PC + #10]        ;->0x12c8  :=0xfcc
    12a2:	05 5c       	LJMP      R5
    12a4:	00 00       	NOP      NOP      
    12a6:	02 0d       	LD.W      R5, [SP + #2]
    12a8:	50 38       	CMP       R5, #0
    12aa:	02 f1       	JNZ       $+2                   ;->0x12ae
    12ac:	38 07       	SJMP      $-200                 ;->0x111c
    12ae:	00 00       	NOP      NOP      
    12b0:	54 16       	MOV       R5, #100
    12b2:	05 58       	MOV       R0, R5
    12b4:	e4 2a       	ADD       SP, #36
    12b6:	0d 5d       	POP       LR
    12b8:	1d 5c       	JMP       LR
    12ba:	00 00       	NOP      NOP      
    12bc:	04 10 00 00 	.long     0x00001004 ->4100
    12c0:	40 00 00 50 	.long     0x50000040 ->1342177344
    12c4:	b2 03 00 00 	.long     0x000003b2 ->946
    12c8:	cc 0f 00 00 	.long     0x00000fcc ->4044
    12cc:	40 0e 00 10 	.long     0x10000e40 ->268439104
    12d0:	40 0f 00 10 	.long     0x10000f40 ->268439360
    12d4:	e0 12 00 00 	.long     0x000012e0 ->4832
    12d8:	04 0e 00 10 	.long     0x10000e04 ->268439044
    12dc:	d8 0b 00 00 	.long     0x00000bd8 ->3032

000012e0 <memcpy>:
    12e0:	20 38       	CMP       R2, #0
    12e2:	07 f0       	JZ        $+7                   ;->0x12f0
    12e4:	90 c2       	ADD       R2, R0, R2
    12e6:	a0 58       	MOV       R5, R0
    12e8:	41 76       	LD.B      R4, [R1++]
    12ea:	54 77       	ST.B      [R5++], R4
    12ec:	52 70       	CMP       R5, R2
    12ee:	fd f1       	JNZ       $-3                   ;->0x12e8
    12f0:	1d 5c       	JMP       LR

000012f2 <memset>:
    12f2:	20 38       	CMP       R2, #0
    12f4:	06 f0       	JZ        $+6                   ;->0x1300
    12f6:	90 c2       	ADD       R2, R0, R2
    12f8:	a0 58       	MOV       R5, R0
    12fa:	51 77       	ST.B      [R5++], R1
    12fc:	52 70       	CMP       R5, R2
    12fe:	fe f1       	JNZ       $-2                   ;->0x12fa
    1300:	1d 5c       	JMP       LR
	...

Disassembly of section .data:

10000000 <CHECK_RESTRICTION_RAM>:
CHECK_RESTRICTION_RAM():
..\src\kf32f_basic_flash.c:51
  *   ##### FLASH殻會贋刈匂(FLASH)孔嬬塘崔痕方 #####
  */

void __attribute__((section(".indata")))
CHECK_RESTRICTION_RAM(int expr)
{
10000000:	e4 30       	SUB       SP, #4
10000002:	e0 85       	ST.W      [SP], R0
..\src\kf32f_basic_flash.c:52
	while(!expr)
10000004:	5e 82       	LD.W      R5, [SP]
10000006:	50 38       	CMP       R5, #0
10000008:	fe f0       	JZ        $-2                   ;->0x10000004
..\src\kf32f_basic_flash.c:54
		;
}
1000000a:	e4 28       	ADD       SP, #4
1000000c:	1d 5c       	JMP       LR

1000000e <SFR_Config_RAM>:
SFR_Config_RAM():
..\src\kf32f_basic_flash.c:59

/* 亟蒙歩孔嬬篠贋匂RAM */
static inline uint32_t   __attribute__((section(".indata")))
SFR_Config_RAM (uint32_t SfrMem, uint32_t SfrMask, uint32_t WriteVal)
{
1000000e:	ec 30       	SUB       SP, #12
10000010:	e0 85       	ST.W      [SP], R0
10000012:	01 21       	ST.W      [SP + #1], R1
10000014:	02 22       	ST.W      [SP + #2], R2
..\src\kf32f_basic_flash.c:60
    return ((SfrMem & SfrMask) | (WriteVal));
10000016:	5e 82       	LD.W      R5, [SP]
10000018:	01 0c       	LD.W      R4, [SP + #1]
1000001a:	25 d5       	ANL       R4, R5, R4
1000001c:	02 0d       	LD.W      R5, [SP + #2]
1000001e:	6c d7       	ORL       R5, R4, R5
..\src\kf32f_basic_flash.c:61
}
10000020:	05 58       	MOV       R0, R5
10000022:	ec 28       	ADD       SP, #12
10000024:	1d 5c       	JMP       LR

10000026 <FLASH_Get_NonVolatile_Memory_Unlock_Status_RAM>:
FLASH_Get_NonVolatile_Memory_Unlock_Status_RAM():
..\src\kf32f_basic_flash.c:71
  * 卦指  迄協彜蓑⇧1⦿盾迄彜蓑⇧0⦿迄協彜蓑。
  */
LockStatus __attribute__((section(".indata")))
FLASH_Get_NonVolatile_Memory_Unlock_Status_RAM (void)
{
    if (FLASH_ISPCON0 & FLASH_ISPCON0_NVMLOCK)
10000026:	06 45       	LD        R5, [PC + #6]         ;->0x1000003c  :=0x40200100
10000028:	45 82       	LD.W      R4, [R5]
1000002a:	51 10       	MOV       R5, #1
1000002c:	6c d5       	ANL       R5, R4, R5
1000002e:	50 38       	CMP       R5, #0
10000030:	03 f0       	JZ        $+3                   ;->0x10000036
..\src\kf32f_basic_flash.c:74
    {
        /* 盾迄彜蓑 */
        return UNLOCK;
10000032:	51 10       	MOV       R5, #1
10000034:	02 04       	SJMP      $+2                   ;->0x10000038
..\src\kf32f_basic_flash.c:79
    }
    else
    {
        /* 迄協彜蓑 */
        return LOCK;
10000036:	50 10       	MOV       R5, #0
..\src\kf32f_basic_flash.c:81
    }
}
10000038:	05 58       	MOV       R0, R5
1000003a:	1d 5c       	JMP       LR
1000003c:	00 01 20 40 	.long     0x40200100 ->1075839232

10000040 <FLASH_Clear_NonVolatile_Memory_Unlock_Status_RAM>:
FLASH_Clear_NonVolatile_Memory_Unlock_Status_RAM():
..\src\kf32f_basic_flash.c:90
  * 補秘  涙。
  * 卦指  涙。
  */
void __attribute__((section(".indata")))
FLASH_Clear_NonVolatile_Memory_Unlock_Status_RAM (void)
{
10000040:	81 5f       	PUSH      {R6,LR}
10000042:	e4 30       	SUB       SP, #4
..\src\kf32f_basic_flash.c:91
    uint32_t tmpreg = 0;
10000044:	50 10       	MOV       R5, #0
10000046:	e5 85       	ST.W      [SP], R5
..\src\kf32f_basic_flash.c:94

    /*---------------- 塘崔FLASH_ISPCON0篠贋匂NVMLOCK了 ----------------*/
    tmpreg = FLASH_ISPCON0_HIGH | FLASH_ISPCON0_NVMLOCK;
10000048:	07 45       	LD        R5, [PC + #7]         ;->0x10000064  :=0x50af0001
1000004a:	e5 85       	ST.W      [SP], R5
..\src\kf32f_basic_flash.c:95
    FLASH_ISPCON0 = SFR_Config_RAM (FLASH_ISPCON0,
1000004c:	07 46       	LD        R6, [PC + #7]         ;->0x10000068  :=0x40200100
1000004e:	07 45       	LD        R5, [PC + #7]         ;->0x10000068  :=0x40200100
10000050:	55 82       	LD.W      R5, [R5]
10000052:	05 58       	MOV       R0, R5
10000054:	06 41       	LD        R1, [PC + #6]         ;->0x1000006c  :=0xfffe
10000056:	2e 82       	LD.W      R2, [SP]
10000058:	06 45       	LD        R5, [PC + #6]         ;->0x10000070  :=0x1000000e
1000005a:	05 5c       	LJMP      R5
1000005c:	a0 58       	MOV       R5, R0
1000005e:	65 85       	ST.W      [R6], R5
..\src\kf32f_basic_flash.c:98
                        ~(FLASH_ISPCON0_HIGH_MSK | FLASH_ISPCON0_NVMLOCK),
                        tmpreg);
}
10000060:	e4 28       	ADD       SP, #4
10000062:	81 5e       	POP       {R6,PC}
10000064:	01 00 af 50 	.long     0x50af0001 ->1353646081
10000068:	00 01 20 40 	.long     0x40200100 ->1075839232
1000006c:	fe ff 00 00 	.long     0x0000fffe ->65534
10000070:	0e 00 00 10 	.long     0x1000000e ->268435470

10000074 <FLASH_Unlock_ISP_RAM>:
FLASH_Unlock_ISP_RAM():
..\src\kf32f_basic_flash.c:124
  */
void  __attribute__((section(".indata")))
FLASH_Unlock_ISP_RAM   (void)
{
    /* 亟秘KEY1 才 KEY2 */
    FLASH_NVMUNLOCK = FLASH_NVMUNLOCK_KEY1;
10000074:	04 45       	LD        R5, [PC + #4]         ;->0x10000084  :=0x40200100
10000076:	05 44       	LD        R4, [PC + #5]         ;->0x10000088  :=0x87654321
10000078:	ac a2       	ST.W      [R5 + #10], R4
..\src\kf32f_basic_flash.c:125
    FLASH_NVMUNLOCK = FLASH_NVMUNLOCK_KEY2;
1000007a:	03 45       	LD        R5, [PC + #3]         ;->0x10000084  :=0x40200100
1000007c:	04 44       	LD        R4, [PC + #4]         ;->0x1000008c  :=0x5040302
1000007e:	ac a2       	ST.W      [R5 + #10], R4
..\src\kf32f_basic_flash.c:126
}
10000080:	1d 5c       	JMP       LR
10000082:	00 00       	NOP      NOP      
10000084:	00 01 20 40 	.long     0x40200100 ->1075839232
10000088:	21 43 65 87 	.long     0x87654321 ->-2023406815
1000008c:	02 03 04 05 	.long     0x05040302 ->84148994

10000090 <FLASH_Get_Flash_Unlock_Status_RAM>:
FLASH_Get_Flash_Unlock_Status_RAM():
..\src\kf32f_basic_flash.c:148
  * 卦指  迄協彜蓑⇧1⦿盾迄彜蓑⇧0⦿迄協彜蓑。
  */
LockStatus __attribute__((section(".indata")))
FLASH_Get_Flash_Unlock_Status_RAM (void)
{
    if (FLASH_ISPCON0 & FLASH_ISPCON0_FLASHLOCK)
10000090:	06 45       	LD        R5, [PC + #6]         ;->0x100000a8  :=0x40200100
10000092:	45 82       	LD.W      R4, [R5]
10000094:	52 10       	MOV       R5, #2
10000096:	6c d5       	ANL       R5, R4, R5
10000098:	50 38       	CMP       R5, #0
1000009a:	03 f0       	JZ        $+3                   ;->0x100000a0
..\src\kf32f_basic_flash.c:151
    {
        /* 盾迄彜蓑 */
        return UNLOCK;
1000009c:	51 10       	MOV       R5, #1
1000009e:	02 04       	SJMP      $+2                   ;->0x100000a2
..\src\kf32f_basic_flash.c:156
    }
    else
    {
        /* 迄協彜蓑 */
        return LOCK;
100000a0:	50 10       	MOV       R5, #0
..\src\kf32f_basic_flash.c:158
    }
}
100000a2:	05 58       	MOV       R0, R5
100000a4:	1d 5c       	JMP       LR
100000a6:	00 00       	NOP      NOP      
100000a8:	00 01 20 40 	.long     0x40200100 ->1075839232

100000ac <FLASH_Clear_Flash_Unlock_Status_RAM>:
FLASH_Clear_Flash_Unlock_Status_RAM():
..\src\kf32f_basic_flash.c:167
  * 補秘  涙。
  * 卦指  涙。
  */
void __attribute__((section(".indata")))
FLASH_Clear_Flash_Unlock_Status_RAM (void)
{
100000ac:	81 5f       	PUSH      {R6,LR}
100000ae:	e4 30       	SUB       SP, #4
..\src\kf32f_basic_flash.c:168
    uint32_t tmpreg = 0;
100000b0:	50 10       	MOV       R5, #0
100000b2:	e5 85       	ST.W      [SP], R5
..\src\kf32f_basic_flash.c:171

    /*---------------- 塘崔FLASH_ISPCON0篠贋匂FLASHLOCK了 ----------------*/
    tmpreg = FLASH_ISPCON0_HIGH | FLASH_ISPCON0_FLASHLOCK;
100000b4:	07 45       	LD        R5, [PC + #7]         ;->0x100000d0  :=0x50af0002
100000b6:	e5 85       	ST.W      [SP], R5
..\src\kf32f_basic_flash.c:172
    FLASH_ISPCON0 = SFR_Config_RAM (FLASH_ISPCON0,
100000b8:	07 46       	LD        R6, [PC + #7]         ;->0x100000d4  :=0x40200100
100000ba:	07 45       	LD        R5, [PC + #7]         ;->0x100000d4  :=0x40200100
100000bc:	55 82       	LD.W      R5, [R5]
100000be:	05 58       	MOV       R0, R5
100000c0:	06 41       	LD        R1, [PC + #6]         ;->0x100000d8  :=0xfffd
100000c2:	2e 82       	LD.W      R2, [SP]
100000c4:	06 45       	LD        R5, [PC + #6]         ;->0x100000dc  :=0x1000000e
100000c6:	05 5c       	LJMP      R5
100000c8:	a0 58       	MOV       R5, R0
100000ca:	65 85       	ST.W      [R6], R5
..\src\kf32f_basic_flash.c:175
                        ~(FLASH_ISPCON0_HIGH_MSK | FLASH_ISPCON0_FLASHLOCK),
                        tmpreg);
}
100000cc:	e4 28       	ADD       SP, #4
100000ce:	81 5e       	POP       {R6,PC}
100000d0:	02 00 af 50 	.long     0x50af0002 ->1353646082
100000d4:	00 01 20 40 	.long     0x40200100 ->1075839232
100000d8:	fd ff 00 00 	.long     0x0000fffd ->65533
100000dc:	0e 00 00 10 	.long     0x1000000e ->268435470

100000e0 <FLASH_Unlock_Code_RAM>:
FLASH_Unlock_Code_RAM():
..\src\kf32f_basic_flash.c:201
  */
void  __attribute__((section(".indata")))
FLASH_Unlock_Code_RAM (void)
{
    /* 亟秘KEY1 才 KEY2 */
    FLASH_PROUNLOCK = FLASH_PROUNLOCK_KEY1;
100000e0:	04 45       	LD        R5, [PC + #4]         ;->0x100000f0  :=0x40200100
100000e2:	05 44       	LD        R4, [PC + #5]         ;->0x100000f4  :=0x789abcde
100000e4:	ec a2       	ST.W      [R5 + #11], R4
..\src\kf32f_basic_flash.c:202
    FLASH_PROUNLOCK = FLASH_PROUNLOCK_KEY2;
100000e6:	03 45       	LD        R5, [PC + #3]         ;->0x100000f0  :=0x40200100
100000e8:	04 44       	LD        R4, [PC + #4]         ;->0x100000f8  :=0x16151413
100000ea:	ec a2       	ST.W      [R5 + #11], R4
..\src\kf32f_basic_flash.c:203
}
100000ec:	1d 5c       	JMP       LR
100000ee:	00 00       	NOP      NOP      
100000f0:	00 01 20 40 	.long     0x40200100 ->1075839232
100000f4:	de bc 9a 78 	.long     0x789abcde ->2023406814
100000f8:	13 14 15 16 	.long     0x16151413 ->370480147

100000fc <FLASH_Get_Config_Unlock_Status_RAM>:
FLASH_Get_Config_Unlock_Status_RAM():
..\src\kf32f_basic_flash.c:225
  * 卦指  迄協彜蓑⇧1⦿盾迄彜蓑⇧0⦿迄協彜蓑。
  */
LockStatus __attribute__((section(".indata")))
FLASH_Get_Config_Unlock_Status_RAM (void)
{
    if (FLASH_ISPCON0 & FLASH_ISPCON0_CFGLOCK)
100000fc:	06 45       	LD        R5, [PC + #6]         ;->0x10000114  :=0x40200100
100000fe:	45 82       	LD.W      R4, [R5]
10000100:	54 10       	MOV       R5, #4
10000102:	6c d5       	ANL       R5, R4, R5
10000104:	50 38       	CMP       R5, #0
10000106:	03 f0       	JZ        $+3                   ;->0x1000010c
..\src\kf32f_basic_flash.c:228
    {
        /* 盾迄彜蓑 */
        return UNLOCK;
10000108:	51 10       	MOV       R5, #1
1000010a:	02 04       	SJMP      $+2                   ;->0x1000010e
..\src\kf32f_basic_flash.c:233
    }
    else
    {
        /* 迄協彜蓑 */
        return LOCK;
1000010c:	50 10       	MOV       R5, #0
..\src\kf32f_basic_flash.c:235
    }
}
1000010e:	05 58       	MOV       R0, R5
10000110:	1d 5c       	JMP       LR
10000112:	00 00       	NOP      NOP      
10000114:	00 01 20 40 	.long     0x40200100 ->1075839232

10000118 <FLASH_Clear_Config_Unlock_Status_RAM>:
FLASH_Clear_Config_Unlock_Status_RAM():
..\src\kf32f_basic_flash.c:244
  * 補秘  涙。
  * 卦指  涙。
  */
void __attribute__((section(".indata")))
FLASH_Clear_Config_Unlock_Status_RAM (void)
{
10000118:	81 5f       	PUSH      {R6,LR}
1000011a:	e4 30       	SUB       SP, #4
..\src\kf32f_basic_flash.c:245
    uint32_t tmpreg = 0;
1000011c:	50 10       	MOV       R5, #0
1000011e:	e5 85       	ST.W      [SP], R5
..\src\kf32f_basic_flash.c:248

    /*---------------- 塘崔FLASH_ISPCON0篠贋匂CFGLOCK了 ----------------*/
    tmpreg = FLASH_ISPCON0_HIGH | FLASH_ISPCON0_CFGLOCK;
10000120:	07 45       	LD        R5, [PC + #7]         ;->0x1000013c  :=0x50af0004
10000122:	e5 85       	ST.W      [SP], R5
..\src\kf32f_basic_flash.c:249
    FLASH_ISPCON0 = SFR_Config_RAM (FLASH_ISPCON0,
10000124:	07 46       	LD        R6, [PC + #7]         ;->0x10000140  :=0x40200100
10000126:	07 45       	LD        R5, [PC + #7]         ;->0x10000140  :=0x40200100
10000128:	55 82       	LD.W      R5, [R5]
1000012a:	05 58       	MOV       R0, R5
1000012c:	06 41       	LD        R1, [PC + #6]         ;->0x10000144  :=0xfffb
1000012e:	2e 82       	LD.W      R2, [SP]
10000130:	06 45       	LD        R5, [PC + #6]         ;->0x10000148  :=0x1000000e
10000132:	05 5c       	LJMP      R5
10000134:	a0 58       	MOV       R5, R0
10000136:	65 85       	ST.W      [R6], R5
..\src\kf32f_basic_flash.c:252
                        ~(FLASH_ISPCON0_HIGH_MSK | FLASH_ISPCON0_CFGLOCK),
                        tmpreg);
}
10000138:	e4 28       	ADD       SP, #4
1000013a:	81 5e       	POP       {R6,PC}
1000013c:	04 00 af 50 	.long     0x50af0004 ->1353646084
10000140:	00 01 20 40 	.long     0x40200100 ->1075839232
10000144:	fb ff 00 00 	.long     0x0000fffb ->65531
10000148:	0e 00 00 10 	.long     0x1000000e ->268435470

1000014c <FLASH_Unlock_User_Config_RAM>:
FLASH_Unlock_User_Config_RAM():
..\src\kf32f_basic_flash.c:278
  */
void  __attribute__((section(".indata")))
FLASH_Unlock_User_Config_RAM (void)
{
    /* 亟秘KEY1 才 KEY2 */
    FLASH_CFGUNLOCK = FLASH_CFGUNLOCK_KEY1;
1000014c:	04 45       	LD        R5, [PC + #4]         ;->0x1000015c  :=0x40200100
1000014e:	05 44       	LD        R4, [PC + #5]         ;->0x10000160  :=0x879a43de
10000150:	2c a3       	ST.W      [R5 + #12], R4
..\src\kf32f_basic_flash.c:279
    FLASH_CFGUNLOCK = FLASH_CFGUNLOCK_KEY2;
10000152:	03 45       	LD        R5, [PC + #3]         ;->0x1000015c  :=0x40200100
10000154:	04 44       	LD        R4, [PC + #4]         ;->0x10000164  :=0x27262524
10000156:	2c a3       	ST.W      [R5 + #12], R4
..\src\kf32f_basic_flash.c:280
}
10000158:	1d 5c       	JMP       LR
1000015a:	00 00       	NOP      NOP      
1000015c:	00 01 20 40 	.long     0x40200100 ->1075839232
10000160:	de 43 9a 87 	.long     0x879a43de ->-2019933218
10000164:	24 25 26 27 	.long     0x27262524 ->656811300

10000168 <FLASH_Zone_Config_RAM>:
FLASH_Zone_Config_RAM():
..\src\kf32f_basic_flash.c:327
  *                     FLASH_NVM_INFORMATION_ZONE: FLASH_NVM_CODE_ZONE
  * 卦指  涙。
  */
void __attribute__((section(".indata")))
FLASH_Zone_Config_RAM (uint32_t ZoneSelect)
{
10000168:	2d 5d       	PUSH      LR
1000016a:	e4 30       	SUB       SP, #4
1000016c:	e0 85       	ST.W      [SP], R0
..\src\kf32f_basic_flash.c:329
    /* 歌方丕刮 */
    CHECK_RESTRICTION_RAM(CHECK_FLASH_NVM_ZONE(ZoneSelect));
1000016e:	5e 82       	LD.W      R5, [SP]
10000170:	50 38       	CMP       R5, #0
10000172:	04 f0       	JZ        $+4                   ;->0x1000017a
10000174:	5e 82       	LD.W      R5, [SP]
10000176:	50 39       	CMP       R5, #16
10000178:	03 f1       	JNZ       $+3                   ;->0x1000017e
1000017a:	51 10       	MOV       R5, #1
1000017c:	02 04       	SJMP      $+2                   ;->0x10000180
1000017e:	50 10       	MOV       R5, #0
10000180:	05 58       	MOV       R0, R5
10000182:	07 45       	LD        R5, [PC + #7]         ;->0x1000019c  :=0x10000000
10000184:	05 5c       	LJMP      R5
..\src\kf32f_basic_flash.c:332

    /*---------------- 塘崔FLASH_ISPCON0篠贋匂IFEN了 ----------------*/
    if (ZoneSelect != FLASH_NVM_CODE_ZONE)
10000186:	5e 82       	LD.W      R5, [SP]
10000188:	50 38       	CMP       R5, #0
1000018a:	04 f0       	JZ        $+4                   ;->0x10000192
..\src\kf32f_basic_flash.c:335
    {
        /* NVM荷恬贋刈匂僉夲FLASH佚連曝 */
        __asm volatile("SET [%0], #%1"::"r"(&(FLASH_ISPCON0)),"i"(FLASH_ISPCON0_IFEN_POS));
1000018c:	05 45       	LD        R5, [PC + #5]         ;->0x100001a0  :=0x40200100
1000018e:	2c 4c       	SET       [R5], #4
10000190:	03 04       	SJMP      $+3                   ;->0x10000196
..\src\kf32f_basic_flash.c:340
    }
    else
    {
        /* NVM荷恬贋刈匂僉夲FLASH殻會曝 */
        __asm volatile("CLR [%0], #%1"::"r"(&(FLASH_ISPCON0)),"i"(FLASH_ISPCON0_IFEN_POS));
10000192:	04 45       	LD        R5, [PC + #4]         ;->0x100001a0  :=0x40200100
10000194:	2c 4e       	CLR       [R5], #4
..\src\kf32f_basic_flash.c:342
    }
}
10000196:	e4 28       	ADD       SP, #4
10000198:	0d 5d       	POP       LR
1000019a:	1d 5c       	JMP       LR
1000019c:	00 00 00 10 	.long     0x10000000 ->268435456
100001a0:	00 01 20 40 	.long     0x40200100 ->1075839232

100001a4 <FLASH_Standby_Mode_Config_RAM>:
FLASH_Standby_Mode_Config_RAM():
..\src\kf32f_basic_flash.c:379
  *                     FLASH_MODE_STANDBY1_STANDBY2: 譲序秘Stanby庁塀
  * 卦指  涙。
  */
void __attribute__((section(".indata")))
FLASH_Standby_Mode_Config_RAM (uint32_t ModeSelect)
{
100001a4:	81 5f       	PUSH      {R6,LR}
100001a6:	e8 30       	SUB       SP, #8
100001a8:	01 20       	ST.W      [SP + #1], R0
..\src\kf32f_basic_flash.c:380
    uint32_t tmpreg = 0;
100001aa:	50 10       	MOV       R5, #0
100001ac:	e5 85       	ST.W      [SP], R5
..\src\kf32f_basic_flash.c:383

    /* 歌方丕刮 */
    CHECK_RESTRICTION_RAM(CHECK_FLASH_MODE(ModeSelect));
100001ae:	01 0d       	LD.W      R5, [SP + #1]
100001b0:	50 38       	CMP       R5, #0
100001b2:	0a f0       	JZ        $+10                  ;->0x100001c6
100001b4:	01 0d       	LD.W      R5, [SP + #1]
100001b6:	50 3a       	CMP       R5, #32
100001b8:	07 f0       	JZ        $+7                   ;->0x100001c6
100001ba:	01 0d       	LD.W      R5, [SP + #1]
100001bc:	50 3c       	CMP       R5, #64
100001be:	04 f0       	JZ        $+4                   ;->0x100001c6
100001c0:	01 0d       	LD.W      R5, [SP + #1]
100001c2:	50 3e       	CMP       R5, #96
100001c4:	03 f1       	JNZ       $+3                   ;->0x100001ca
100001c6:	51 10       	MOV       R5, #1
100001c8:	02 04       	SJMP      $+2                   ;->0x100001cc
100001ca:	50 10       	MOV       R5, #0
100001cc:	05 58       	MOV       R0, R5
100001ce:	0a 45       	LD        R5, [PC + #10]        ;->0x100001f4  :=0x10000000
100001d0:	05 5c       	LJMP      R5
..\src\kf32f_basic_flash.c:386

    /*---------------- 塘崔FLASH_ISPCON0篠贋匂CFGLOCK了 ----------------*/
    tmpreg = FLASH_ISPCON0_HIGH | ModeSelect;
100001d2:	01 0c       	LD.W      R4, [SP + #1]
100001d4:	09 45       	LD        R5, [PC + #9]         ;->0x100001f8  :=0x50af0000
100001d6:	6c d7       	ORL       R5, R4, R5
100001d8:	e5 85       	ST.W      [SP], R5
..\src\kf32f_basic_flash.c:387
    FLASH_ISPCON0 = SFR_Config_RAM (FLASH_ISPCON0,
100001da:	09 46       	LD        R6, [PC + #9]         ;->0x100001fc  :=0x40200100
100001dc:	08 45       	LD        R5, [PC + #8]         ;->0x100001fc  :=0x40200100
100001de:	55 82       	LD.W      R5, [R5]
100001e0:	05 58       	MOV       R0, R5
100001e2:	08 41       	LD        R1, [PC + #8]         ;->0x10000200  :=0xffdf
100001e4:	2e 82       	LD.W      R2, [SP]
100001e6:	08 45       	LD        R5, [PC + #8]         ;->0x10000204  :=0x1000000e
100001e8:	05 5c       	LJMP      R5
100001ea:	a0 58       	MOV       R5, R0
100001ec:	65 85       	ST.W      [R6], R5
..\src\kf32f_basic_flash.c:390
                        ~(FLASH_ISPCON0_HIGH_MSK | FLASH_ISPCON0_STANDBY1),
                        tmpreg);
}
100001ee:	e8 28       	ADD       SP, #8
100001f0:	81 5e       	POP       {R6,PC}
100001f2:	00 00       	NOP      NOP      
100001f4:	00 00 00 10 	.long     0x10000000 ->268435456
100001f8:	00 00 af 50 	.long     0x50af0000 ->1353646080
100001fc:	00 01 20 40 	.long     0x40200100 ->1075839232
10000200:	df ff 00 00 	.long     0x0000ffdf ->65503
10000204:	0e 00 00 10 	.long     0x1000000e ->268435470

10000208 <FLASH_Read_Mode_Config_RAM>:
FLASH_Read_Mode_Config_RAM():
..\src\kf32f_basic_flash.c:403
  *                   FLASH_READ_MODE_RECALL: RECALL庁塀
  * 卦指  涙。
  */
void __attribute__((section(".indata")))
FLASH_Read_Mode_Config_RAM (uint32_t ReadMode)
{
10000208:	2d 5d       	PUSH      LR
1000020a:	e4 30       	SUB       SP, #4
1000020c:	e0 85       	ST.W      [SP], R0
..\src\kf32f_basic_flash.c:405
    /* 歌方丕刮 */
    CHECK_RESTRICTION_RAM(CHECK_FLASH_READ_MODE(ReadMode));
1000020e:	5e 82       	LD.W      R5, [SP]
10000210:	50 38       	CMP       R5, #0
10000212:	04 f0       	JZ        $+4                   ;->0x1000021a
10000214:	5e 82       	LD.W      R5, [SP]
10000216:	52 38       	CMP       R5, #2
10000218:	03 f1       	JNZ       $+3                   ;->0x1000021e
1000021a:	51 10       	MOV       R5, #1
1000021c:	02 04       	SJMP      $+2                   ;->0x10000220
1000021e:	50 10       	MOV       R5, #0
10000220:	05 58       	MOV       R0, R5
10000222:	07 45       	LD        R5, [PC + #7]         ;->0x1000023c  :=0x10000000
10000224:	05 5c       	LJMP      R5
..\src\kf32f_basic_flash.c:408

    /*---------------- 塘崔FLASH_ISPCON1篠贋匂RECALLEN了 ----------------*/
    if (ReadMode != FLASH_IP1)
10000226:	5e 82       	LD.W      R5, [SP]
10000228:	50 38       	CMP       R5, #0
1000022a:	04 f0       	JZ        $+4                   ;->0x10000232
..\src\kf32f_basic_flash.c:411
    {
        /* FLASH響瓜譜崔葎屎械庁塀 */
        __asm volatile("SET [%0], #%1"::"r"(&(FLASH_ISPCON1)),"i"(FLASH_ISPCON1_RECALLEN_POS));
1000022c:	05 45       	LD        R5, [PC + #5]         ;->0x10000240  :=0x40200104
1000022e:	29 4c       	SET       [R5], #1
10000230:	03 04       	SJMP      $+3                   ;->0x10000236
..\src\kf32f_basic_flash.c:416
    }
    else
    {
        /* FLASH響瓜譜崔葎RECALL庁塀 */
        __asm volatile("CLR [%0], #%1"::"r"(&(FLASH_ISPCON1)),"i"(FLASH_ISPCON1_RECALLEN_POS));
10000232:	04 45       	LD        R5, [PC + #4]         ;->0x10000240  :=0x40200104
10000234:	29 4e       	CLR       [R5], #1
..\src\kf32f_basic_flash.c:418
    }
}
10000236:	e4 28       	ADD       SP, #4
10000238:	0d 5d       	POP       LR
1000023a:	1d 5c       	JMP       LR
1000023c:	00 00 00 10 	.long     0x10000000 ->268435456
10000240:	04 01 20 40 	.long     0x40200104 ->1075839236

10000244 <FLASH_Calibration_Updata_Enable_RAM>:
FLASH_Calibration_Updata_Enable_RAM():
..\src\kf32f_basic_flash.c:427
  * 補秘  NewState: FLASH丕彈佚連厚仟聞嬬彜蓑⇧函峙葎TRUE 賜 FALSE。
  * 卦指  涙。
  */
void __attribute__((section(".indata")))
FLASH_Calibration_Updata_Enable_RAM (FunctionalState NewState)
{
10000244:	81 5f       	PUSH      {R6,LR}
10000246:	e8 30       	SUB       SP, #8
10000248:	01 20       	ST.W      [SP + #1], R0
..\src\kf32f_basic_flash.c:428
    uint32_t tmpreg = 0;
1000024a:	50 10       	MOV       R5, #0
1000024c:	e5 85       	ST.W      [SP], R5
..\src\kf32f_basic_flash.c:431

    /* 歌方丕刮 */
    CHECK_RESTRICTION_RAM(CHECK_FUNCTIONAL_STATE(NewState));
1000024e:	01 0d       	LD.W      R5, [SP + #1]
10000250:	50 38       	CMP       R5, #0
10000252:	04 f0       	JZ        $+4                   ;->0x1000025a
10000254:	01 0d       	LD.W      R5, [SP + #1]
10000256:	51 38       	CMP       R5, #1
10000258:	03 f1       	JNZ       $+3                   ;->0x1000025e
1000025a:	51 10       	MOV       R5, #1
1000025c:	02 04       	SJMP      $+2                   ;->0x10000260
1000025e:	50 10       	MOV       R5, #0
10000260:	05 58       	MOV       R0, R5
10000262:	0a 45       	LD        R5, [PC + #10]        ;->0x10000288  :=0x10000000
10000264:	05 5c       	LJMP      R5
..\src\kf32f_basic_flash.c:435

    /*---------------- 塘崔FLASH_ISPCON1篠贋匂CONFEN了 ----------------*/
    tmpreg = FLASH_ISPCON1_HIGH \
           | (NewState << FLASH_ISPCON1_CONFEN_POS);
10000266:	01 0d       	LD.W      R5, [SP + #1]
10000268:	2a 7a       	LSL       R5, #2
..\src\kf32f_basic_flash.c:434

    /* 歌方丕刮 */
    CHECK_RESTRICTION_RAM(CHECK_FUNCTIONAL_STATE(NewState));

    /*---------------- 塘崔FLASH_ISPCON1篠贋匂CONFEN了 ----------------*/
    tmpreg = FLASH_ISPCON1_HIGH \
1000026a:	09 44       	LD        R4, [PC + #9]         ;->0x1000028c  :=0xa05f0000
1000026c:	2d d7       	ORL       R5, R5, R4
1000026e:	e5 85       	ST.W      [SP], R5
..\src\kf32f_basic_flash.c:436
           | (NewState << FLASH_ISPCON1_CONFEN_POS);
    FLASH_ISPCON1 = SFR_Config_RAM (FLASH_ISPCON1,
10000270:	08 46       	LD        R6, [PC + #8]         ;->0x10000290  :=0x40200100
10000272:	08 45       	LD        R5, [PC + #8]         ;->0x10000290  :=0x40200100
10000274:	6d 98       	LD.W      R5, [R5 + #1]
10000276:	05 58       	MOV       R0, R5
10000278:	07 41       	LD        R1, [PC + #7]         ;->0x10000294  :=0xfffe
1000027a:	2e 82       	LD.W      R2, [SP]
1000027c:	07 45       	LD        R5, [PC + #7]         ;->0x10000298  :=0x1000000e
1000027e:	05 5c       	LJMP      R5
10000280:	a0 58       	MOV       R5, R0
10000282:	75 a0       	ST.W      [R6 + #1], R5
..\src\kf32f_basic_flash.c:439
                        ~(FLASH_ISPCON1_HIGH_MSK | FLASH_ISPCON1_CONFEN),
                        tmpreg);
}
10000284:	e8 28       	ADD       SP, #8
10000286:	81 5e       	POP       {R6,PC}
10000288:	00 00 00 10 	.long     0x10000000 ->268435456
1000028c:	00 00 5f a0 	.long     0xa05f0000 ->-1604386816
10000290:	00 01 20 40 	.long     0x40200100 ->1075839232
10000294:	fe ff 00 00 	.long     0x0000fffe ->65534
10000298:	0e 00 00 10 	.long     0x1000000e ->268435470

1000029c <FLASH_Information_Zone_Wipe_Unlock_Config_RAM>:
FLASH_Information_Zone_Wipe_Unlock_Config_RAM():
..\src\kf32f_basic_flash.c:450
  *                   UNLOCK: 盾迄彜蓑
  * 卦指  涙。
  */
void __attribute__((section(".indata")))
FLASH_Information_Zone_Wipe_Unlock_Config_RAM (LockStatus NewState)
{
1000029c:	81 5f       	PUSH      {R6,LR}
1000029e:	e8 30       	SUB       SP, #8
100002a0:	01 20       	ST.W      [SP + #1], R0
..\src\kf32f_basic_flash.c:451
    uint32_t tmpreg = 0;
100002a2:	50 10       	MOV       R5, #0
100002a4:	e5 85       	ST.W      [SP], R5
..\src\kf32f_basic_flash.c:454

    /* 歌方丕刮 */
    CHECK_RESTRICTION_RAM(CHECK_LOCK_STATUS(NewState));
100002a6:	01 0d       	LD.W      R5, [SP + #1]
100002a8:	50 38       	CMP       R5, #0
100002aa:	04 f0       	JZ        $+4                   ;->0x100002b2
100002ac:	01 0d       	LD.W      R5, [SP + #1]
100002ae:	51 38       	CMP       R5, #1
100002b0:	03 f1       	JNZ       $+3                   ;->0x100002b6
100002b2:	51 10       	MOV       R5, #1
100002b4:	02 04       	SJMP      $+2                   ;->0x100002b8
100002b6:	50 10       	MOV       R5, #0
100002b8:	05 58       	MOV       R0, R5
100002ba:	0a 45       	LD        R5, [PC + #10]        ;->0x100002e0  :=0x10000000
100002bc:	05 5c       	LJMP      R5
..\src\kf32f_basic_flash.c:458

    /*---------------- 塘崔FLASH_ISPCON1篠贋匂CONFEN了 ----------------*/
    tmpreg = FLASH_ISPCON1_HIGH \
           | (NewState << FLASH_ISPCON1_CHIPONEN_POS);
100002be:	01 0d       	LD.W      R5, [SP + #1]
100002c0:	af 7a       	LSL       R5, #15
..\src\kf32f_basic_flash.c:457

    /* 歌方丕刮 */
    CHECK_RESTRICTION_RAM(CHECK_LOCK_STATUS(NewState));

    /*---------------- 塘崔FLASH_ISPCON1篠贋匂CONFEN了 ----------------*/
    tmpreg = FLASH_ISPCON1_HIGH \
100002c2:	09 44       	LD        R4, [PC + #9]         ;->0x100002e4  :=0xa05f0000
100002c4:	2d d7       	ORL       R5, R5, R4
100002c6:	e5 85       	ST.W      [SP], R5
..\src\kf32f_basic_flash.c:459
           | (NewState << FLASH_ISPCON1_CHIPONEN_POS);
    FLASH_ISPCON1 = SFR_Config_RAM (FLASH_ISPCON1,
100002c8:	08 46       	LD        R6, [PC + #8]         ;->0x100002e8  :=0x40200100
100002ca:	08 45       	LD        R5, [PC + #8]         ;->0x100002e8  :=0x40200100
100002cc:	6d 98       	LD.W      R5, [R5 + #1]
100002ce:	05 58       	MOV       R0, R5
100002d0:	07 41       	LD        R1, [PC + #7]         ;->0x100002ec  :=0xfffe
100002d2:	2e 82       	LD.W      R2, [SP]
100002d4:	07 45       	LD        R5, [PC + #7]         ;->0x100002f0  :=0x1000000e
100002d6:	05 5c       	LJMP      R5
100002d8:	a0 58       	MOV       R5, R0
100002da:	75 a0       	ST.W      [R6 + #1], R5
..\src\kf32f_basic_flash.c:462
                        ~(FLASH_ISPCON1_HIGH_MSK | FLASH_ISPCON1_CHIPONEN),
                        tmpreg);
}
100002dc:	e8 28       	ADD       SP, #8
100002de:	81 5e       	POP       {R6,PC}
100002e0:	00 00 00 10 	.long     0x10000000 ->268435456
100002e4:	00 00 5f a0 	.long     0xa05f0000 ->-1604386816
100002e8:	00 01 20 40 	.long     0x40200100 ->1075839232
100002ec:	fe ff 00 00 	.long     0x0000fffe ->65534
100002f0:	0e 00 00 10 	.long     0x1000000e ->268435470

100002f4 <FLASH_Half_Page_Write_Size_Config_RAM>:
FLASH_Half_Page_Write_Size_Config_RAM():
..\src\kf32f_basic_flash.c:471
  * 補秘  WriteSize: 俶勣亟秘議忖方⇧函峙6了方峙。
  * 卦指  涙。
  */
void __attribute__((section(".indata")))
FLASH_Half_Page_Write_Size_Config_RAM (uint32_t WriteSize)
{
100002f4:	81 5f       	PUSH      {R6,LR}
100002f6:	e8 30       	SUB       SP, #8
100002f8:	01 20       	ST.W      [SP + #1], R0
..\src\kf32f_basic_flash.c:472
    uint32_t tmpreg = 0;
100002fa:	50 10       	MOV       R5, #0
100002fc:	e5 85       	ST.W      [SP], R5
..\src\kf32f_basic_flash.c:475

    /* 歌方丕刮 */
    CHECK_RESTRICTION_RAM(CHECK_FLASH_WRITE_SIZE(WriteSize));
100002fe:	01 0d       	LD.W      R5, [SP + #1]
10000300:	36 10       	MOV       R3, #6
10000302:	e5 dc       	LSR       R4, R5, R3
10000304:	51 10       	MOV       R5, #1
10000306:	40 38       	CMP       R4, #0
10000308:	02 f0       	JZ        $+2                   ;->0x1000030c
1000030a:	50 10       	MOV       R5, #0
1000030c:	55 d1       	ZXT.B     R5, R5
1000030e:	05 58       	MOV       R0, R5
10000310:	09 45       	LD        R5, [PC + #9]         ;->0x10000334  :=0x10000000
10000312:	05 5c       	LJMP      R5
..\src\kf32f_basic_flash.c:478

    /*---------------- 塘崔FLASH_ISPCMD篠贋匂WSIZE了 ----------------*/
    tmpreg = WriteSize << FLASH_ISPCMD_WSIZE0_POS;
10000314:	01 0d       	LD.W      R5, [SP + #1]
10000316:	2d 7a       	LSL       R5, #5
10000318:	e5 85       	ST.W      [SP], R5
..\src\kf32f_basic_flash.c:479
    FLASH_ISPCMD = SFR_Config_RAM (FLASH_ISPCMD,
1000031a:	08 46       	LD        R6, [PC + #8]         ;->0x10000338  :=0x40200100
1000031c:	07 45       	LD        R5, [PC + #7]         ;->0x10000338  :=0x40200100
1000031e:	ad 98       	LD.W      R5, [R5 + #2]
10000320:	05 58       	MOV       R0, R5
10000322:	07 41       	LD        R1, [PC + #7]         ;->0x1000033c  :=0xfffff81f
10000324:	2e 82       	LD.W      R2, [SP]
10000326:	07 45       	LD        R5, [PC + #7]         ;->0x10000340  :=0x1000000e
10000328:	05 5c       	LJMP      R5
1000032a:	a0 58       	MOV       R5, R0
1000032c:	b5 a0       	ST.W      [R6 + #2], R5
..\src\kf32f_basic_flash.c:482
                        ~FLASH_ISPCMD_WSIZE,
                        tmpreg);
}
1000032e:	e8 28       	ADD       SP, #8
10000330:	81 5e       	POP       {R6,PC}
10000332:	00 00       	NOP      NOP      
10000334:	00 00 00 10 	.long     0x10000000 ->268435456
10000338:	00 01 20 40 	.long     0x40200100 ->1075839232
1000033c:	1f f8 ff ff 	.long     0xfffff81f ->-2017
10000340:	0e 00 00 10 	.long     0x1000000e ->268435470

10000344 <FLASH_Program_Cmd_Config_RAM>:
FLASH_Program_Cmd_Config_RAM():
..\src\kf32f_basic_flash.c:495
  *                    FLASH_PROGRAM_CMD_HALF_PAGE: 磯匈園殻
  * 卦指  涙。
  */
void __attribute__((section(".indata")))
FLASH_Program_Cmd_Config_RAM (uint32_t CmdSelect)
{
10000344:	81 5f       	PUSH      {R6,LR}
10000346:	e4 30       	SUB       SP, #4
10000348:	e0 85       	ST.W      [SP], R0
..\src\kf32f_basic_flash.c:497
    /* 歌方丕刮 */
    CHECK_RESTRICTION_RAM(CHECK_FLASH_PROGRAM_CMD(CmdSelect));
1000034a:	5e 82       	LD.W      R5, [SP]
1000034c:	55 39       	CMP       R5, #21
1000034e:	0a f0       	JZ        $+10                  ;->0x10000362
10000350:	5e 82       	LD.W      R5, [SP]
10000352:	5a 38       	CMP       R5, #10
10000354:	07 f0       	JZ        $+7                   ;->0x10000362
10000356:	5e 82       	LD.W      R5, [SP]
10000358:	5b 39       	CMP       R5, #27
1000035a:	04 f0       	JZ        $+4                   ;->0x10000362
1000035c:	5e 82       	LD.W      R5, [SP]
1000035e:	55 38       	CMP       R5, #5
10000360:	03 f1       	JNZ       $+3                   ;->0x10000366
10000362:	51 10       	MOV       R5, #1
10000364:	02 04       	SJMP      $+2                   ;->0x10000368
10000366:	50 10       	MOV       R5, #0
10000368:	05 58       	MOV       R0, R5
1000036a:	08 45       	LD        R5, [PC + #8]         ;->0x10000388  :=0x10000000
1000036c:	05 5c       	LJMP      R5
..\src\kf32f_basic_flash.c:500

    /*---------------- 塘崔FLASH_ISPCMD篠贋匂CMD了 ----------------*/
    FLASH_ISPCMD = SFR_Config_RAM (FLASH_ISPCMD,
1000036e:	08 46       	LD        R6, [PC + #8]         ;->0x1000038c  :=0x40200100
10000370:	07 45       	LD        R5, [PC + #7]         ;->0x1000038c  :=0x40200100
10000372:	ad 98       	LD.W      R5, [R5 + #2]
10000374:	05 58       	MOV       R0, R5
10000376:	1f 11       	MOV       R1, #31
10000378:	11 68       	NOT       R1, R1
1000037a:	2e 82       	LD.W      R2, [SP]
1000037c:	05 45       	LD        R5, [PC + #5]         ;->0x10000390  :=0x1000000e
1000037e:	05 5c       	LJMP      R5
10000380:	a0 58       	MOV       R5, R0
10000382:	b5 a0       	ST.W      [R6 + #2], R5
..\src\kf32f_basic_flash.c:503
                        ~FLASH_ISPCMD_CMD,
                        CmdSelect);
}
10000384:	e4 28       	ADD       SP, #4
10000386:	81 5e       	POP       {R6,PC}
10000388:	00 00 00 10 	.long     0x10000000 ->268435456
1000038c:	00 01 20 40 	.long     0x40200100 ->1075839232
10000390:	0e 00 00 10 	.long     0x1000000e ->268435470

10000394 <FLASH_Executive_Cmd_RAM>:
FLASH_Executive_Cmd_RAM():
..\src\kf32f_basic_flash.c:513
  * 補秘  涙。
  * 卦指  涙。
  */
void __attribute__((section(".indata")))
FLASH_Executive_Cmd_RAM(void)
{
10000394:	81 5f       	PUSH      {R6,LR}
10000396:	e4 30       	SUB       SP, #4
..\src\kf32f_basic_flash.c:514
    uint32_t tmpreg = 0;
10000398:	50 10       	MOV       R5, #0
1000039a:	e5 85       	ST.W      [SP], R5
..\src\kf32f_basic_flash.c:517

    /*---------------- 塘崔FLASH_ISPTRG篠贋匂ISPGO了 ----------------*/
    tmpreg = FLASH_ISPTRG_HIGH | FLASH_ISPTRG_ISPGO;
1000039c:	07 45       	LD        R5, [PC + #7]         ;->0x100003b8  :=0x50af0001
1000039e:	e5 85       	ST.W      [SP], R5
..\src\kf32f_basic_flash.c:518
    FLASH_ISPTRG = SFR_Config_RAM (FLASH_ISPTRG,
100003a0:	07 46       	LD        R6, [PC + #7]         ;->0x100003bc  :=0x40200100
100003a2:	07 45       	LD        R5, [PC + #7]         ;->0x100003bc  :=0x40200100
100003a4:	ed 98       	LD.W      R5, [R5 + #3]
100003a6:	05 58       	MOV       R0, R5
100003a8:	06 41       	LD        R1, [PC + #6]         ;->0x100003c0  :=0xfffe
100003aa:	2e 82       	LD.W      R2, [SP]
100003ac:	06 45       	LD        R5, [PC + #6]         ;->0x100003c4  :=0x1000000e
100003ae:	05 5c       	LJMP      R5
100003b0:	a0 58       	MOV       R5, R0
100003b2:	f5 a0       	ST.W      [R6 + #3], R5
..\src\kf32f_basic_flash.c:521
                        ~(FLASH_ISPTRG_HIGH_MSK | FLASH_ISPTRG_ISPGO),
                        tmpreg);
}
100003b4:	e4 28       	ADD       SP, #4
100003b6:	81 5e       	POP       {R6,PC}
100003b8:	01 00 af 50 	.long     0x50af0001 ->1353646081
100003bc:	00 01 20 40 	.long     0x40200100 ->1075839232
100003c0:	fe ff 00 00 	.long     0x0000fffe ->65534
100003c4:	0e 00 00 10 	.long     0x1000000e ->268435470

100003c8 <FLASH_NonVolatile_Memory_ECC_Enable_RAM>:
FLASH_NonVolatile_Memory_ECC_Enable_RAM():
..\src\kf32f_basic_flash.c:546
  * 補秘  NewState: FLASH掲叟払來贋刈匂ECC聞嬬彜蓑⇧函峙葎TRUE 賜 FALSE。
  * 卦指  涙。
  */
void __attribute__((section(".indata")))
FLASH_NonVolatile_Memory_ECC_Enable_RAM (FunctionalState NewState)
{
100003c8:	2d 5d       	PUSH      LR
100003ca:	e4 30       	SUB       SP, #4
100003cc:	e0 85       	ST.W      [SP], R0
..\src\kf32f_basic_flash.c:548
    /* 歌方丕刮 */
    CHECK_RESTRICTION_RAM(CHECK_FUNCTIONAL_STATE(NewState));
100003ce:	5e 82       	LD.W      R5, [SP]
100003d0:	50 38       	CMP       R5, #0
100003d2:	04 f0       	JZ        $+4                   ;->0x100003da
100003d4:	5e 82       	LD.W      R5, [SP]
100003d6:	51 38       	CMP       R5, #1
100003d8:	03 f1       	JNZ       $+3                   ;->0x100003de
100003da:	51 10       	MOV       R5, #1
100003dc:	02 04       	SJMP      $+2                   ;->0x100003e0
100003de:	50 10       	MOV       R5, #0
100003e0:	05 58       	MOV       R0, R5
100003e2:	07 45       	LD        R5, [PC + #7]         ;->0x100003fc  :=0x10000000
100003e4:	05 5c       	LJMP      R5
..\src\kf32f_basic_flash.c:551

    /*---------------- 塘崔FLASH_CFG篠贋匂ECCREADEN了 ----------------*/
    if (NewState != FALSE)
100003e6:	5e 82       	LD.W      R5, [SP]
100003e8:	50 38       	CMP       R5, #0
100003ea:	04 f0       	JZ        $+4                   ;->0x100003f2
..\src\kf32f_basic_flash.c:554
    {
        /* 聞嬬ECC丕刮 */
        __asm volatile("SET [%0], #%1"::"r"(&(FLASH_CFG)),"i"(FLASH_CFG_ECCREADEN_POS));
100003ec:	05 45       	LD        R5, [PC + #5]         ;->0x10000400  :=0x40200114
100003ee:	2f 4c       	SET       [R5], #7
100003f0:	03 04       	SJMP      $+3                   ;->0x100003f6
..\src\kf32f_basic_flash.c:559
    }
    else
    {
        /* 音聞嬬ECC丕刮 */
        __asm volatile("CLR [%0], #%1"::"r"(&(FLASH_CFG)),"i"(FLASH_CFG_ECCREADEN_POS));
100003f2:	04 45       	LD        R5, [PC + #4]         ;->0x10000400  :=0x40200114
100003f4:	2f 4e       	CLR       [R5], #7
..\src\kf32f_basic_flash.c:561
    }
}
100003f6:	e4 28       	ADD       SP, #4
100003f8:	0d 5d       	POP       LR
100003fa:	1d 5c       	JMP       LR
100003fc:	00 00 00 10 	.long     0x10000000 ->268435456
10000400:	14 01 20 40 	.long     0x40200114 ->1075839252

10000404 <FLASH_Linear_Prefetch_Enable_RAM>:
FLASH_Linear_Prefetch_Enable_RAM():
..\src\kf32f_basic_flash.c:570
  * 補秘  NewState: FLASH㞍來圓函聞嬬彜蓑⇧函峙葎TRUE 賜 FALSE。
  * 卦指  涙。
  */
void __attribute__((section(".indata")))
FLASH_Linear_Prefetch_Enable_RAM (FunctionalState NewState)
{
10000404:	2d 5d       	PUSH      LR
10000406:	e4 30       	SUB       SP, #4
10000408:	e0 85       	ST.W      [SP], R0
..\src\kf32f_basic_flash.c:572
    /* 歌方丕刮 */
    CHECK_RESTRICTION_RAM(CHECK_FUNCTIONAL_STATE(NewState));
1000040a:	5e 82       	LD.W      R5, [SP]
1000040c:	50 38       	CMP       R5, #0
1000040e:	04 f0       	JZ        $+4                   ;->0x10000416
10000410:	5e 82       	LD.W      R5, [SP]
10000412:	51 38       	CMP       R5, #1
10000414:	03 f1       	JNZ       $+3                   ;->0x1000041a
10000416:	51 10       	MOV       R5, #1
10000418:	02 04       	SJMP      $+2                   ;->0x1000041c
1000041a:	50 10       	MOV       R5, #0
1000041c:	05 58       	MOV       R0, R5
1000041e:	07 45       	LD        R5, [PC + #7]         ;->0x10000438  :=0x10000000
10000420:	05 5c       	LJMP      R5
..\src\kf32f_basic_flash.c:575

    /*---------------- 塘崔FLASH_CFG篠贋匂PREFETCHEN了 ----------------*/
    if (NewState != FALSE)
10000422:	5e 82       	LD.W      R5, [SP]
10000424:	50 38       	CMP       R5, #0
10000426:	04 f0       	JZ        $+4                   ;->0x1000042e
..\src\kf32f_basic_flash.c:578
    {
        /* 聞嬬㞍來圓函 */
        __asm volatile("SET [%0], #%1"::"r"(&(FLASH_CFG)),"i"(FLASH_CFG_PREFETCHEN_POS));
10000428:	05 45       	LD        R5, [PC + #5]         ;->0x1000043c  :=0x40200114
1000042a:	2e 4c       	SET       [R5], #6
1000042c:	03 04       	SJMP      $+3                   ;->0x10000432
..\src\kf32f_basic_flash.c:583
    }
    else
    {
        /* 音聞嬬㞍來圓函 */
    	__asm volatile("CLR [%0], #%1"::"r"(&(FLASH_CFG)),"i"(FLASH_CFG_PREFETCHEN_POS));
1000042e:	04 45       	LD        R5, [PC + #4]         ;->0x1000043c  :=0x40200114
10000430:	2e 4e       	CLR       [R5], #6
..\src\kf32f_basic_flash.c:585
    }
}
10000432:	e4 28       	ADD       SP, #4
10000434:	0d 5d       	POP       LR
10000436:	1d 5c       	JMP       LR
10000438:	00 00 00 10 	.long     0x10000000 ->268435456
1000043c:	14 01 20 40 	.long     0x40200114 ->1075839252

10000440 <FLASH_Period_Number_Config_RAM>:
FLASH_Period_Number_Config_RAM():
..\src\kf32f_basic_flash.c:594
  * 補秘  PeriodNum: FLASH恵諒狼由巓豚倖方⇧函峙葎1~16。
  * 卦指  涙。
  */
void __attribute__((section(".indata")))
FLASH_Period_Number_Config_RAM (uint32_t PeriodNum)
{
10000440:	81 5f       	PUSH      {R6,LR}
10000442:	e8 30       	SUB       SP, #8
10000444:	01 20       	ST.W      [SP + #1], R0
..\src\kf32f_basic_flash.c:595
    uint32_t tmpreg = 0;
10000446:	50 10       	MOV       R5, #0
10000448:	e5 85       	ST.W      [SP], R5
..\src\kf32f_basic_flash.c:598

    /* 歌方丕刮 */
    CHECK_RESTRICTION_RAM(CHECK_FLASH_PERIOD(PeriodNum));
1000044a:	01 0d       	LD.W      R5, [SP + #1]
1000044c:	34 10       	MOV       R3, #4
1000044e:	e5 dc       	LSR       R4, R5, R3
10000450:	51 10       	MOV       R5, #1
10000452:	40 38       	CMP       R4, #0
10000454:	02 f0       	JZ        $+2                   ;->0x10000458
10000456:	50 10       	MOV       R5, #0
10000458:	55 d1       	ZXT.B     R5, R5
1000045a:	05 58       	MOV       R0, R5
1000045c:	09 45       	LD        R5, [PC + #9]         ;->0x10000480  :=0x10000000
1000045e:	05 5c       	LJMP      R5
..\src\kf32f_basic_flash.c:601

    /*---------------- 塘崔FLASH_CFG篠贋匂TCFG了 ----------------*/
    tmpreg = (PeriodNum - 1) << FLASH_CFG_TCFG0_POS;
10000460:	01 0d       	LD.W      R5, [SP + #1]
10000462:	6d cc       	SUB       R5, R5, #1
10000464:	e5 85       	ST.W      [SP], R5
..\src\kf32f_basic_flash.c:602
    FLASH_CFG = SFR_Config_RAM (FLASH_CFG,
10000466:	08 46       	LD        R6, [PC + #8]         ;->0x10000484  :=0x40200100
10000468:	07 45       	LD        R5, [PC + #7]         ;->0x10000484  :=0x40200100
1000046a:	6d 99       	LD.W      R5, [R5 + #5]
1000046c:	05 58       	MOV       R0, R5
1000046e:	1f 10       	MOV       R1, #15
10000470:	11 68       	NOT       R1, R1
10000472:	2e 82       	LD.W      R2, [SP]
10000474:	05 45       	LD        R5, [PC + #5]         ;->0x10000488  :=0x1000000e
10000476:	05 5c       	LJMP      R5
10000478:	a0 58       	MOV       R5, R0
1000047a:	75 a1       	ST.W      [R6 + #5], R5
..\src\kf32f_basic_flash.c:605
                        ~FLASH_CFG_TCFG,
                        tmpreg);
}
1000047c:	e8 28       	ADD       SP, #8
1000047e:	81 5e       	POP       {R6,PC}
10000480:	00 00 00 10 	.long     0x10000000 ->268435456
10000484:	00 01 20 40 	.long     0x40200100 ->1075839232
10000488:	0e 00 00 10 	.long     0x1000000e ->268435470

1000048c <FLASH_Program_Addr_Config_RAM>:
FLASH_Program_Addr_Config_RAM():
..\src\kf32f_basic_flash.c:614
  * 補秘  ProgramAddr: FLASH園殻仇峽⇧函峙葎0x0~0xFFFFF⇧啣周策待詰2了。
  * 卦指  涙。
  */
void __attribute__((section(".indata")))
FLASH_Program_Addr_Config_RAM (uint32_t ProgramAddr)
{
1000048c:	81 5f       	PUSH      {R6,LR}
1000048e:	e8 30       	SUB       SP, #8
10000490:	01 20       	ST.W      [SP + #1], R0
..\src\kf32f_basic_flash.c:615
    uint32_t tmpreg = 0;
10000492:	50 10       	MOV       R5, #0
10000494:	e5 85       	ST.W      [SP], R5
..\src\kf32f_basic_flash.c:618

    /* 歌方丕刮 */
    CHECK_RESTRICTION_RAM(CHECK_FLASH_ADDR_20BITS(ProgramAddr));
10000496:	01 0d       	LD.W      R5, [SP + #1]
10000498:	34 11       	MOV       R3, #20
1000049a:	e5 dc       	LSR       R4, R5, R3
1000049c:	51 10       	MOV       R5, #1
1000049e:	40 38       	CMP       R4, #0
100004a0:	02 f0       	JZ        $+2                   ;->0x100004a4
100004a2:	50 10       	MOV       R5, #0
100004a4:	55 d1       	ZXT.B     R5, R5
100004a6:	05 58       	MOV       R0, R5
100004a8:	08 45       	LD        R5, [PC + #8]         ;->0x100004c8  :=0x10000000
100004aa:	05 5c       	LJMP      R5
..\src\kf32f_basic_flash.c:621

    /*---------------- 塘崔FLASH_ISPADDR篠贋匂SADDR了 ----------------*/
    tmpreg = ProgramAddr << FLASH_ISPADDR_SADDR0_POS;
100004ac:	01 0d       	LD.W      R5, [SP + #1]
100004ae:	e5 85       	ST.W      [SP], R5
..\src\kf32f_basic_flash.c:622
    FLASH_ISPADDR = SFR_Config_RAM (FLASH_ISPADDR,
100004b0:	07 46       	LD        R6, [PC + #7]         ;->0x100004cc  :=0x40200100
100004b2:	07 45       	LD        R5, [PC + #7]         ;->0x100004cc  :=0x40200100
100004b4:	ed 99       	LD.W      R5, [R5 + #7]
100004b6:	05 58       	MOV       R0, R5
100004b8:	06 41       	LD        R1, [PC + #6]         ;->0x100004d0  :=0xfff00000
100004ba:	2e 82       	LD.W      R2, [SP]
100004bc:	06 45       	LD        R5, [PC + #6]         ;->0x100004d4  :=0x1000000e
100004be:	05 5c       	LJMP      R5
100004c0:	a0 58       	MOV       R5, R0
100004c2:	f5 a1       	ST.W      [R6 + #7], R5
..\src\kf32f_basic_flash.c:625
                        ~FLASH_ISPADDR_SADDR,
                        tmpreg);
}
100004c4:	e8 28       	ADD       SP, #8
100004c6:	81 5e       	POP       {R6,PC}
100004c8:	00 00 00 10 	.long     0x10000000 ->268435456
100004cc:	00 01 20 40 	.long     0x40200100 ->1075839232
100004d0:	00 00 f0 ff 	.long     0xfff00000 ->-1048576
100004d4:	0e 00 00 10 	.long     0x1000000e ->268435470

100004d8 <FLASH_Get_Program_Status_RAM>:
FLASH_Get_Program_Status_RAM():
..\src\kf32f_basic_flash.c:635
  * 卦指  園殻彜蓑⇧1⦿FLASH屎侃噐園殻彜蓑⇧0⦿FLASH音壓園殻彜蓑。
  */
FlagStatus  __attribute__((section(".indata")))
FLASH_Get_Program_Status_RAM (void)
{
    if (FLASH_STATE & FLASH_STATE_TBUSY)
100004d8:	06 45       	LD        R5, [PC + #6]         ;->0x100004f0  :=0x40200100
100004da:	25 9a       	LD.W      R4, [R5 + #8]
100004dc:	58 10       	MOV       R5, #8
100004de:	6c d5       	ANL       R5, R4, R5
100004e0:	50 38       	CMP       R5, #0
100004e2:	03 f0       	JZ        $+3                   ;->0x100004e8
..\src\kf32f_basic_flash.c:638
    {
        /* 園殻彜蓑 */
        return SET;
100004e4:	51 10       	MOV       R5, #1
100004e6:	02 04       	SJMP      $+2                   ;->0x100004ea
..\src\kf32f_basic_flash.c:643
    }
    else
    {
        /* 音壓園殻彜蓑 */
        return RESET;
100004e8:	50 10       	MOV       R5, #0
..\src\kf32f_basic_flash.c:645
    }
}
100004ea:	05 58       	MOV       R0, R5
100004ec:	1d 5c       	JMP       LR
100004ee:	00 00       	NOP      NOP      
100004f0:	00 01 20 40 	.long     0x40200100 ->1075839232

100004f4 <FLASH_Get_Wipe_Status_RAM>:
FLASH_Get_Wipe_Status_RAM():
..\src\kf32f_basic_flash.c:676
  * 卦指  園殻彜蓑⇧1⦿ISP屎壓峇佩価茅賜宀亟凋綜⇧0⦿ISP侃噐腎椀彜蓑。
  */
FlagStatus   __attribute__((section(".indata")))
FLASH_Get_Wipe_Status_RAM (void)
{
    if (FLASH_STATE & FLASH_STATE_TBIT)
100004f4:	06 45       	LD        R5, [PC + #6]         ;->0x1000050c  :=0x40200100
100004f6:	25 9a       	LD.W      R4, [R5 + #8]
100004f8:	54 10       	MOV       R5, #4
100004fa:	6c d5       	ANL       R5, R4, R5
100004fc:	50 38       	CMP       R5, #0
100004fe:	03 f0       	JZ        $+3                   ;->0x10000504
..\src\kf32f_basic_flash.c:679
    {
        /* 屎壓峇佩価茅賜宀亟凋綜 */
        return SET;
10000500:	51 10       	MOV       R5, #1
10000502:	02 04       	SJMP      $+2                   ;->0x10000506
..\src\kf32f_basic_flash.c:684
    }
    else
    {
        /* 侃噐腎椀彜蓑 */
        return RESET;
10000504:	50 10       	MOV       R5, #0
..\src\kf32f_basic_flash.c:686
    }
}
10000506:	05 58       	MOV       R0, R5
10000508:	1d 5c       	JMP       LR
1000050a:	00 00       	NOP      NOP      
1000050c:	00 01 20 40 	.long     0x40200100 ->1075839232

10000510 <FLASH_Get_Compute_Complete_Status_RAM>:
FLASH_Get_Compute_Complete_Status_RAM():
..\src\kf32f_basic_flash.c:715
  * 卦指  園殻彜蓑⇧1⦿柴麻頼撹⇧0⦿隆柴麻賜宀柴麻嶄。
  */
FlagStatus __attribute__((section(".indata")))
FLASH_Get_Compute_Complete_Status_RAM (void)
{
    if (FLASH_STATE & FLASH_STATE_SIGDONE)
10000510:	06 45       	LD        R5, [PC + #6]         ;->0x10000528  :=0x40200100
10000512:	25 9a       	LD.W      R4, [R5 + #8]
10000514:	52 10       	MOV       R5, #2
10000516:	6c d5       	ANL       R5, R4, R5
10000518:	50 38       	CMP       R5, #0
1000051a:	03 f0       	JZ        $+3                   ;->0x10000520
..\src\kf32f_basic_flash.c:718
    {
        /* 柴麻頼撹 */
        return SET;
1000051c:	51 10       	MOV       R5, #1
1000051e:	02 04       	SJMP      $+2                   ;->0x10000522
..\src\kf32f_basic_flash.c:723
    }
    else
    {
        /* 隆柴麻賜宀柴麻嶄 */
        return RESET;
10000520:	50 10       	MOV       R5, #0
..\src\kf32f_basic_flash.c:725
    }
}
10000522:	05 58       	MOV       R0, R5
10000524:	1d 5c       	JMP       LR
10000526:	00 00       	NOP      NOP      
10000528:	00 01 20 40 	.long     0x40200100 ->1075839232

1000052c <FLASH_Clear_Compute_Complete_Status_RAM>:
FLASH_Clear_Compute_Complete_Status_RAM():
..\src\kf32f_basic_flash.c:736
  */
void __attribute__((section(".indata")))
FLASH_Clear_Compute_Complete_Status_RAM (void)
{
    /* 亟 1 賠巣 */
    while((FLASH_STATE & FLASH_STATE_SIGDONE)>>FLASH_STATE_SIGDONE_POS)
1000052c:	03 04       	SJMP      $+3                   ;->0x10000532
..\src\kf32f_basic_flash.c:738
    {
    	__asm volatile("SET [%0], #%1"::"r"(&(FLASH_STATE)),"i"(FLASH_STATE_SIGDONE_POS));
1000052e:	06 45       	LD        R5, [PC + #6]         ;->0x10000544  :=0x40200120
10000530:	29 4c       	SET       [R5], #1
..\src\kf32f_basic_flash.c:736
  */
void __attribute__((section(".indata")))
FLASH_Clear_Compute_Complete_Status_RAM (void)
{
    /* 亟 1 賠巣 */
    while((FLASH_STATE & FLASH_STATE_SIGDONE)>>FLASH_STATE_SIGDONE_POS)
10000532:	06 45       	LD        R5, [PC + #6]         ;->0x10000548  :=0x40200100
10000534:	25 9a       	LD.W      R4, [R5 + #8]
10000536:	52 10       	MOV       R5, #2
10000538:	6c d5       	ANL       R5, R4, R5
1000053a:	29 7c       	LSR       R5, #1
1000053c:	50 38       	CMP       R5, #0
1000053e:	f8 f1       	JNZ       $-8                   ;->0x1000052e
..\src\kf32f_basic_flash.c:740
    {
    	__asm volatile("SET [%0], #%1"::"r"(&(FLASH_STATE)),"i"(FLASH_STATE_SIGDONE_POS));
    }
}
10000540:	1d 5c       	JMP       LR
10000542:	00 00       	NOP      NOP      
10000544:	20 01 20 40 	.long     0x40200120 ->1075839264
10000548:	00 01 20 40 	.long     0x40200100 ->1075839232

1000054c <FLASH_Get_CFG_Error_Flag_RAM>:
FLASH_Get_CFG_Error_Flag_RAM():
..\src\kf32f_basic_flash.c:752
  * 卦指  園殻危列炎崗⇧1⦿CFG塘崔曝園殻危列⇧0⦿屎械。
  */
FlagStatus  __attribute__((section(".indata")))
FLASH_Get_CFG_Error_Flag_RAM (void)
{
    if (FLASH_STATE & FLASH_STATE_CFGERROR)
1000054c:	06 45       	LD        R5, [PC + #6]         ;->0x10000564  :=0x40200100
1000054e:	25 9a       	LD.W      R4, [R5 + #8]
10000550:	51 10       	MOV       R5, #1
10000552:	6c d5       	ANL       R5, R4, R5
10000554:	50 38       	CMP       R5, #0
10000556:	03 f0       	JZ        $+3                   ;->0x1000055c
..\src\kf32f_basic_flash.c:755
    {
        /* CFG塘崔曝園殻危列 */
        return SET;
10000558:	51 10       	MOV       R5, #1
1000055a:	02 04       	SJMP      $+2                   ;->0x1000055e
..\src\kf32f_basic_flash.c:760
    }
    else
    {
        /* 屎械 */
        return RESET;
1000055c:	50 10       	MOV       R5, #0
..\src\kf32f_basic_flash.c:762
    }
}
1000055e:	05 58       	MOV       R0, R5
10000560:	1d 5c       	JMP       LR
10000562:	00 00       	NOP      NOP      
10000564:	00 01 20 40 	.long     0x40200100 ->1075839232

10000568 <FLASH_Clear_CFG_Error_Flag_RAM>:
FLASH_Clear_CFG_Error_Flag_RAM():
..\src\kf32f_basic_flash.c:774
void  __attribute__((section(".indata")))
FLASH_Clear_CFG_Error_Flag_RAM (void)
{
    /* 亟 1 賠巣 */

    while((FLASH_STATE & FLASH_STATE_CFGERROR)>>FLASH_STATE_CFGERROR_POS)
10000568:	03 04       	SJMP      $+3                   ;->0x1000056e
..\src\kf32f_basic_flash.c:776
    {
    	__asm volatile("SET [%0], #%1"::"r"(&(FLASH_STATE)),"i"(FLASH_STATE_CFGERROR_POS));
1000056a:	05 45       	LD        R5, [PC + #5]         ;->0x1000057c  :=0x40200120
1000056c:	28 4c       	SET       [R5], #0
..\src\kf32f_basic_flash.c:774
void  __attribute__((section(".indata")))
FLASH_Clear_CFG_Error_Flag_RAM (void)
{
    /* 亟 1 賠巣 */

    while((FLASH_STATE & FLASH_STATE_CFGERROR)>>FLASH_STATE_CFGERROR_POS)
1000056e:	05 45       	LD        R5, [PC + #5]         ;->0x10000580  :=0x40200100
10000570:	25 9a       	LD.W      R4, [R5 + #8]
10000572:	51 10       	MOV       R5, #1
10000574:	6c d5       	ANL       R5, R4, R5
10000576:	50 38       	CMP       R5, #0
10000578:	f9 f1       	JNZ       $-7                   ;->0x1000056a
..\src\kf32f_basic_flash.c:778
    {
    	__asm volatile("SET [%0], #%1"::"r"(&(FLASH_STATE)),"i"(FLASH_STATE_CFGERROR_POS));
    }
}
1000057a:	1d 5c       	JMP       LR
1000057c:	20 01 20 40 	.long     0x40200120 ->1075839264
10000580:	00 01 20 40 	.long     0x40200100 ->1075839232

10000584 <FLASH_CheckSum_Addr_Config_RAM>:
FLASH_CheckSum_Addr_Config_RAM():
..\src\kf32f_basic_flash.c:789
  *       StopAddr: FLASH CheckSum議硫仇峽⇧仇峽曝寂葎0x0~0xFFFFF⇧啣周策待詰4了。
  * 卦指  涙。
  */
void  __attribute__((section(".indata")))
FLASH_CheckSum_Addr_Config_RAM(uint32_t StartAddr, uint32_t StopAddr)
{
10000584:	2d 5d       	PUSH      LR
10000586:	e8 30       	SUB       SP, #8
10000588:	e0 85       	ST.W      [SP], R0
1000058a:	01 21       	ST.W      [SP + #1], R1
..\src\kf32f_basic_flash.c:791
    /* 歌方丕刮 */
    CHECK_RESTRICTION_RAM(CHECK_FLASH_ADDR_20BITS(StartAddr));
1000058c:	5e 82       	LD.W      R5, [SP]
1000058e:	34 11       	MOV       R3, #20
10000590:	e5 dc       	LSR       R4, R5, R3
10000592:	51 10       	MOV       R5, #1
10000594:	40 38       	CMP       R4, #0
10000596:	02 f0       	JZ        $+2                   ;->0x1000059a
10000598:	50 10       	MOV       R5, #0
1000059a:	55 d1       	ZXT.B     R5, R5
1000059c:	05 58       	MOV       R0, R5
1000059e:	0c 45       	LD        R5, [PC + #12]        ;->0x100005cc  :=0x10000000
100005a0:	05 5c       	LJMP      R5
..\src\kf32f_basic_flash.c:792
    CHECK_RESTRICTION_RAM(CHECK_FLASH_ADDR_20BITS(StopAddr));
100005a2:	01 0d       	LD.W      R5, [SP + #1]
100005a4:	34 11       	MOV       R3, #20
100005a6:	e5 dc       	LSR       R4, R5, R3
100005a8:	51 10       	MOV       R5, #1
100005aa:	40 38       	CMP       R4, #0
100005ac:	02 f0       	JZ        $+2                   ;->0x100005b0
100005ae:	50 10       	MOV       R5, #0
100005b0:	55 d1       	ZXT.B     R5, R5
100005b2:	05 58       	MOV       R0, R5
100005b4:	06 45       	LD        R5, [PC + #6]         ;->0x100005cc  :=0x10000000
100005b6:	05 5c       	LJMP      R5
..\src\kf32f_basic_flash.c:794

    FLASH_CSSTART = StartAddr;
100005b8:	06 45       	LD        R5, [PC + #6]         ;->0x100005d0  :=0x40200100
100005ba:	4e 82       	LD.W      R4, [SP]
100005bc:	ac a3       	ST.W      [R5 + #14], R4
..\src\kf32f_basic_flash.c:795
    FLASH_CSSTOP = StopAddr;
100005be:	05 45       	LD        R5, [PC + #5]         ;->0x100005d0  :=0x40200100
100005c0:	01 0c       	LD.W      R4, [SP + #1]
100005c2:	ec a3       	ST.W      [R5 + #15], R4
..\src\kf32f_basic_flash.c:796
}
100005c4:	e8 28       	ADD       SP, #8
100005c6:	0d 5d       	POP       LR
100005c8:	1d 5c       	JMP       LR
100005ca:	00 00       	NOP      NOP      
100005cc:	00 00 00 10 	.long     0x10000000 ->268435456
100005d0:	00 01 20 40 	.long     0x40200100 ->1075839232

100005d4 <FLASH_Start_SIG_Compute_Enable_RAM>:
FLASH_Start_SIG_Compute_Enable_RAM():
..\src\kf32f_basic_flash.c:805
  * 補秘  NewState: FLASH尼強SIG柴麻聞嬬彜蓑⇧函峙葎TRUE 賜 FALSE。
  * 卦指  涙。
  */
void  __attribute__((section(".indata")))
FLASH_Start_SIG_Compute_Enable_RAM (FunctionalState NewState)
{
100005d4:	2d 5d       	PUSH      LR
100005d6:	e4 30       	SUB       SP, #4
100005d8:	e0 85       	ST.W      [SP], R0
..\src\kf32f_basic_flash.c:807
    /* 歌方丕刮 */
    CHECK_RESTRICTION_RAM(CHECK_FUNCTIONAL_STATE(NewState));
100005da:	5e 82       	LD.W      R5, [SP]
100005dc:	50 38       	CMP       R5, #0
100005de:	04 f0       	JZ        $+4                   ;->0x100005e6
100005e0:	5e 82       	LD.W      R5, [SP]
100005e2:	51 38       	CMP       R5, #1
100005e4:	03 f1       	JNZ       $+3                   ;->0x100005ea
100005e6:	51 10       	MOV       R5, #1
100005e8:	02 04       	SJMP      $+2                   ;->0x100005ec
100005ea:	50 10       	MOV       R5, #0
100005ec:	05 58       	MOV       R0, R5
100005ee:	07 45       	LD        R5, [PC + #7]         ;->0x10000608  :=0x10000000
100005f0:	05 5c       	LJMP      R5
..\src\kf32f_basic_flash.c:810

    /*---------------- 塘崔FLASH_CSSTOP篠贋匂SIGGO了 ----------------*/
    if (NewState != FALSE)
100005f2:	5e 82       	LD.W      R5, [SP]
100005f4:	50 38       	CMP       R5, #0
100005f6:	04 f0       	JZ        $+4                   ;->0x100005fe
..\src\kf32f_basic_flash.c:813
    {
        /* 尼強SIG柴麻 */
        __asm volatile("SET [%0], #%1"::"r"(&(FLASH_CSSTOP)),"i"(FLASH_CSSTOP_SIGGO_POS));
100005f8:	05 45       	LD        R5, [PC + #5]         ;->0x1000060c  :=0x4020013c
100005fa:	2c 4d       	SET       [R5], #20
100005fc:	03 04       	SJMP      $+3                   ;->0x10000602
..\src\kf32f_basic_flash.c:818
    }
    else
    {
        /* 音尼強SIG柴麻 */
        __asm volatile("CLR [%0], #%1"::"r"(&(FLASH_CSSTOP)),"i"(FLASH_CSSTOP_SIGGO_POS));
100005fe:	04 45       	LD        R5, [PC + #4]         ;->0x1000060c  :=0x4020013c
10000600:	2c 4f       	CLR       [R5], #20
..\src\kf32f_basic_flash.c:820
    }
}
10000602:	e4 28       	ADD       SP, #4
10000604:	0d 5d       	POP       LR
10000606:	1d 5c       	JMP       LR
10000608:	00 00 00 10 	.long     0x10000000 ->268435456
1000060c:	3c 01 20 40 	.long     0x4020013c ->1075839292

10000610 <FLASH_Get_CheckSum_Result_RAM>:
FLASH_Get_CheckSum_Result_RAM():
..\src\kf32f_basic_flash.c:830
  *                       峺寞駅倬峺﨑辛亟議仇峽腎寂。
  * 卦指  涙。
  */
void __attribute__((section(".indata")))
FLASH_Get_CheckSum_Result_RAM (FLASH_CheckSumResult* CheckSumStruct)
{
10000610:	e8 30       	SUB       SP, #8
10000612:	01 20       	ST.W      [SP + #1], R0
..\src\kf32f_basic_flash.c:831
    uint32_t tmpreg = 0;
10000614:	50 10       	MOV       R5, #0
10000616:	e5 85       	ST.W      [SP], R5
..\src\kf32f_basic_flash.c:834

    /*---------------- 塘崔FLASH_CSRESx篠贋匂CKSPRES了 ----------------*/
    tmpreg = FLASH_CSRES0;
10000618:	0d 45       	LD        R5, [PC + #13]        ;->0x1000064c  :=0x40200100
1000061a:	2d 9c       	LD.W      R5, [R5 + #16]
1000061c:	e5 85       	ST.W      [SP], R5
..\src\kf32f_basic_flash.c:835
    CheckSumStruct->m_ResultWord[0] = tmpreg;
1000061e:	01 0c       	LD.W      R4, [SP + #1]
10000620:	5e 82       	LD.W      R5, [SP]
10000622:	45 85       	ST.W      [R4], R5
..\src\kf32f_basic_flash.c:837

    tmpreg = FLASH_CSRES1;
10000624:	0a 45       	LD        R5, [PC + #10]        ;->0x1000064c  :=0x40200100
10000626:	6d 9c       	LD.W      R5, [R5 + #17]
10000628:	e5 85       	ST.W      [SP], R5
..\src\kf32f_basic_flash.c:838
    CheckSumStruct->m_ResultWord[1] = tmpreg;
1000062a:	01 0d       	LD.W      R5, [SP + #1]
1000062c:	4e 82       	LD.W      R4, [SP]
1000062e:	6c a0       	ST.W      [R5 + #1], R4
..\src\kf32f_basic_flash.c:840

    tmpreg = FLASH_CSRES2;
10000630:	07 45       	LD        R5, [PC + #7]         ;->0x1000064c  :=0x40200100
10000632:	ad 9c       	LD.W      R5, [R5 + #18]
10000634:	e5 85       	ST.W      [SP], R5
..\src\kf32f_basic_flash.c:841
    CheckSumStruct->m_ResultWord[2] = tmpreg;
10000636:	01 0d       	LD.W      R5, [SP + #1]
10000638:	4e 82       	LD.W      R4, [SP]
1000063a:	ac a0       	ST.W      [R5 + #2], R4
..\src\kf32f_basic_flash.c:843

    tmpreg = FLASH_CSRES3;
1000063c:	04 45       	LD        R5, [PC + #4]         ;->0x1000064c  :=0x40200100
1000063e:	ed 9c       	LD.W      R5, [R5 + #19]
10000640:	e5 85       	ST.W      [SP], R5
..\src\kf32f_basic_flash.c:844
    CheckSumStruct->m_ResultWord[3] = tmpreg;
10000642:	01 0d       	LD.W      R5, [SP + #1]
10000644:	4e 82       	LD.W      R4, [SP]
10000646:	ec a0       	ST.W      [R5 + #3], R4
..\src\kf32f_basic_flash.c:845
}
10000648:	e8 28       	ADD       SP, #8
1000064a:	1d 5c       	JMP       LR
1000064c:	00 01 20 40 	.long     0x40200100 ->1075839232

10000650 <FLASH_Wipe_Configuration_RAM>:
FLASH_Wipe_Configuration_RAM():
..\src\kf32f_basic_flash.c:865
  *       WipeAddr: 価茅仇峽⇧函峙葎0x0~0xFFFFF⇧啣周策待詰10了。
  * 卦指  涙。
  */
void __attribute__((section(".indata")))
FLASH_Wipe_Configuration_RAM (uint32_t WipeMode,uint32_t WipeAddr)
{
10000650:	81 5f       	PUSH      {R6,LR}
10000652:	ec 30       	SUB       SP, #12
10000654:	01 20       	ST.W      [SP + #1], R0
10000656:	02 21       	ST.W      [SP + #2], R1
..\src\kf32f_basic_flash.c:866
    uint32_t tmpreg = 0;
10000658:	50 10       	MOV       R5, #0
1000065a:	e5 85       	ST.W      [SP], R5
..\src\kf32f_basic_flash.c:869

    /* 歌方丕刮 */
    CHECK_RESTRICTION_RAM(CHECK_FLASH_WIPE_MODE(WipeMode));
1000065c:	01 0d       	LD.W      R5, [SP + #1]
1000065e:	50 38       	CMP       R5, #0
10000660:	07 f0       	JZ        $+7                   ;->0x1000066e
10000662:	01 0d       	LD.W      R5, [SP + #1]
10000664:	51 38       	CMP       R5, #1
10000666:	04 f0       	JZ        $+4                   ;->0x1000066e
10000668:	01 0d       	LD.W      R5, [SP + #1]
1000066a:	52 38       	CMP       R5, #2
1000066c:	03 f1       	JNZ       $+3                   ;->0x10000672
1000066e:	51 10       	MOV       R5, #1
10000670:	02 04       	SJMP      $+2                   ;->0x10000674
10000672:	50 10       	MOV       R5, #0
10000674:	05 58       	MOV       R0, R5
10000676:	23 45       	LD        R5, [PC + #35]        ;->0x10000700  :=0x10000000
10000678:	05 5c       	LJMP      R5
..\src\kf32f_basic_flash.c:870
    CHECK_RESTRICTION_RAM(CHECK_FLASH_ADDR_20BITS(WipeAddr));
1000067a:	02 0d       	LD.W      R5, [SP + #2]
1000067c:	34 11       	MOV       R3, #20
1000067e:	e5 dc       	LSR       R4, R5, R3
10000680:	51 10       	MOV       R5, #1
10000682:	40 38       	CMP       R4, #0
10000684:	02 f0       	JZ        $+2                   ;->0x10000688
10000686:	50 10       	MOV       R5, #0
10000688:	55 d1       	ZXT.B     R5, R5
1000068a:	05 58       	MOV       R0, R5
1000068c:	1d 45       	LD        R5, [PC + #29]        ;->0x10000700  :=0x10000000
1000068e:	05 5c       	LJMP      R5
..\src\kf32f_basic_flash.c:875



    /* 盾迄ISP孔嬬篠贋匂 */
    FLASH_Unlock_ISP_RAM();
10000690:	1d 45       	LD        R5, [PC + #29]        ;->0x10000704  :=0x10000074
10000692:	05 5c       	LJMP      R5
..\src\kf32f_basic_flash.c:878

	/* 盾迄FLASH殻會曝 */
	FLASH_Unlock_Code_RAM();
10000694:	1d 45       	LD        R5, [PC + #29]        ;->0x10000708  :=0x100000e0
10000696:	05 5c       	LJMP      R5
..\src\kf32f_basic_flash.c:881

	/* 盾迄FLASH喘薩塘崔曝 */
	FLASH_Unlock_User_Config_RAM();
10000698:	1d 45       	LD        R5, [PC + #29]        ;->0x1000070c  :=0x1000014c
1000069a:	05 5c       	LJMP      R5
..\src\kf32f_basic_flash.c:885


    /* 譜崔棋価茅議PAGE */
    if (WipeMode != FLASH_WIPE_CODE_ALL)
1000069c:	01 0d       	LD.W      R5, [SP + #1]
1000069e:	52 38       	CMP       R5, #2
100006a0:	09 f0       	JZ        $+9                   ;->0x100006b2
..\src\kf32f_basic_flash.c:888
    {
        /* 匈価 */
        FLASH_ISPADDR = WipeAddr;
100006a2:	1c 45       	LD        R5, [PC + #28]        ;->0x10000710  :=0x40200100
100006a4:	02 0c       	LD.W      R4, [SP + #2]
100006a6:	ec a1       	ST.W      [R5 + #7], R4
..\src\kf32f_basic_flash.c:891


        if (FLASH_WIPE_CFG_PAGE == WipeMode)
100006a8:	01 0d       	LD.W      R5, [SP + #1]
100006aa:	51 38       	CMP       R5, #1
100006ac:	03 f1       	JNZ       $+3                   ;->0x100006b2
..\src\kf32f_basic_flash.c:896
        {

            /* 聞嬬佚連曝啌符 */
            /*---------------- 塘崔FLASH_ISPCON0篠贋匂IFEN了 ----------------*/
            __asm volatile("SET [%0], #%1"::"r"(&(FLASH_ISPCON0)),"i"(FLASH_ISPCON0_IFEN_POS));
100006ae:	19 45       	LD        R5, [PC + #25]        ;->0x10000710  :=0x40200100
100006b0:	2c 4c       	SET       [R5], #4
..\src\kf32f_basic_flash.c:908
    else
    {
        /* 頭価 */
    }
    /* 譜崔価茅庁塀 */
    if (WipeMode != FLASH_WIPE_CODE_ALL)
100006b2:	01 0d       	LD.W      R5, [SP + #1]
100006b4:	52 38       	CMP       R5, #2
100006b6:	04 f0       	JZ        $+4                   ;->0x100006be
..\src\kf32f_basic_flash.c:911
    {
        /* 匈価 */
        tmpreg = FLASH_PROGRAM_CMD_PAGE;
100006b8:	5b 11       	MOV       R5, #27
100006ba:	e5 85       	ST.W      [SP], R5
100006bc:	03 04       	SJMP      $+3                   ;->0x100006c2
..\src\kf32f_basic_flash.c:916
    }
    else
    {
        /* 頭価 */
        tmpreg = FLASH_PROGRAM_CMD_ALL_CODE;
100006be:	5a 10       	MOV       R5, #10
100006c0:	e5 85       	ST.W      [SP], R5
..\src\kf32f_basic_flash.c:919
    }
    /*---------------- 塘崔FLASH_ISPCMD篠贋匂CMD了 ----------------*/
    FLASH_ISPCMD = SFR_Config_RAM (FLASH_ISPCMD,
100006c2:	14 46       	LD        R6, [PC + #20]        ;->0x10000710  :=0x40200100
100006c4:	13 45       	LD        R5, [PC + #19]        ;->0x10000710  :=0x40200100
100006c6:	ad 98       	LD.W      R5, [R5 + #2]
100006c8:	05 58       	MOV       R0, R5
100006ca:	1f 11       	MOV       R1, #31
100006cc:	11 68       	NOT       R1, R1
100006ce:	2e 82       	LD.W      R2, [SP]
100006d0:	11 45       	LD        R5, [PC + #17]        ;->0x10000714  :=0x1000000e
100006d2:	05 5c       	LJMP      R5
100006d4:	a0 58       	MOV       R5, R0
100006d6:	b5 a0       	ST.W      [R6 + #2], R5
..\src\kf32f_basic_flash.c:926
                        tmpreg);



    /* 乾窟凋綜 */
    FLASH_Executive_Cmd_RAM();
100006d8:	10 45       	LD        R5, [PC + #16]        ;->0x10000718  :=0x10000394
100006da:	05 5c       	LJMP      R5
..\src\kf32f_basic_flash.c:928

    while(FLASH_Get_Wipe_Status_RAM());//吉棋亟秘頼撹
100006dc:	00 00       	NOP      NOP      
100006de:	10 45       	LD        R5, [PC + #16]        ;->0x1000071c  :=0x100004f4
100006e0:	05 5c       	LJMP      R5
100006e2:	a0 58       	MOV       R5, R0
100006e4:	50 38       	CMP       R5, #0
100006e6:	fc f1       	JNZ       $-4                   ;->0x100006de
..\src\kf32f_basic_flash.c:930

   	FLASH_Zone_Config_RAM (FLASH_NVM_CODE_ZONE);//指欺殻會曝
100006e8:	00 10       	MOV       R0, #0
100006ea:	0e 45       	LD        R5, [PC + #14]        ;->0x10000720  :=0x10000168
100006ec:	05 5c       	LJMP      R5
..\src\kf32f_basic_flash.c:933

    //貧迄
	FLASH_Clear_NonVolatile_Memory_Unlock_Status_RAM ();//賠巣FLASH園殻怏周盾迄彜蓑了。
100006ee:	0e 45       	LD        R5, [PC + #14]        ;->0x10000724  :=0x10000040
100006f0:	05 5c       	LJMP      R5
..\src\kf32f_basic_flash.c:934
	FLASH_Clear_Flash_Unlock_Status_RAM ();//賠巣FLASH盾迄彜蓑了。
100006f2:	0e 45       	LD        R5, [PC + #14]        ;->0x10000728  :=0x100000ac
100006f4:	05 5c       	LJMP      R5
..\src\kf32f_basic_flash.c:935
	FLASH_Clear_Config_Unlock_Status_RAM ();//賠巣FLASH塘崔曝盾迄彜蓑了。
100006f6:	0e 45       	LD        R5, [PC + #14]        ;->0x1000072c  :=0x10000118
100006f8:	05 5c       	LJMP      R5
..\src\kf32f_basic_flash.c:938


}
100006fa:	ec 28       	ADD       SP, #12
100006fc:	81 5e       	POP       {R6,PC}
100006fe:	00 00       	NOP      NOP      
10000700:	00 00 00 10 	.long     0x10000000 ->268435456
10000704:	74 00 00 10 	.long     0x10000074 ->268435572
10000708:	e0 00 00 10 	.long     0x100000e0 ->268435680
1000070c:	4c 01 00 10 	.long     0x1000014c ->268435788
10000710:	00 01 20 40 	.long     0x40200100 ->1075839232
10000714:	0e 00 00 10 	.long     0x1000000e ->268435470
10000718:	94 03 00 10 	.long     0x10000394 ->268436372
1000071c:	f4 04 00 10 	.long     0x100004f4 ->268436724
10000720:	68 01 00 10 	.long     0x10000168 ->268435816
10000724:	40 00 00 10 	.long     0x10000040 ->268435520
10000728:	ac 00 00 10 	.long     0x100000ac ->268435628
1000072c:	18 01 00 10 	.long     0x10000118 ->268435736

10000730 <FLASH_Program_Configuration_RAM>:
FLASH_Program_Configuration_RAM():
..\src\kf32f_basic_flash.c:1034
  * 補秘  flashProgramStruct: FLASH園殻佚連潤更悶峺寞。
  * 卦指  涙。
  */
void __attribute__((section(".indata")))
FLASH_Program_Configuration_RAM (FLASH_ProgramTypeDef * flashProgramStruct)
{
10000730:	81 5f       	PUSH      {R6,LR}
10000732:	e4 31       	SUB       SP, #20
10000734:	04 20       	ST.W      [SP + #4], R0
..\src\kf32f_basic_flash.c:1035
	uint32_t tmpreg = 0;
10000736:	50 10       	MOV       R5, #0
10000738:	03 25       	ST.W      [SP + #3], R5
..\src\kf32f_basic_flash.c:1036
	uint32_t tmpaddr = 0;
1000073a:	50 10       	MOV       R5, #0
1000073c:	e5 85       	ST.W      [SP], R5
..\src\kf32f_basic_flash.c:1037
	uint32_t * tmpptr = NULL;
1000073e:	50 10       	MOV       R5, #0
10000740:	01 25       	ST.W      [SP + #1], R5
..\src\kf32f_basic_flash.c:1041

    /* 歌方丕刮 */

	CHECK_RESTRICTION_RAM(CHECK_FLASH_PROGRAM_MODE(flashProgramStruct->m_Mode));
10000742:	04 0d       	LD.W      R5, [SP + #4]
10000744:	55 82       	LD.W      R5, [R5]
10000746:	55 39       	CMP       R5, #21
10000748:	05 f0       	JZ        $+5                   ;->0x10000752
1000074a:	04 0d       	LD.W      R5, [SP + #4]
1000074c:	55 82       	LD.W      R5, [R5]
1000074e:	55 38       	CMP       R5, #5
10000750:	03 f1       	JNZ       $+3                   ;->0x10000756
10000752:	51 10       	MOV       R5, #1
10000754:	02 04       	SJMP      $+2                   ;->0x10000758
10000756:	50 10       	MOV       R5, #0
10000758:	05 58       	MOV       R0, R5
1000075a:	55 45       	LD        R5, [PC + #85]        ;->0x100008ac  :=0x10000000
1000075c:	05 5c       	LJMP      R5
..\src\kf32f_basic_flash.c:1042
	CHECK_RESTRICTION_RAM(CHECK_FLASH_PROGRAM_ZONE(flashProgramStruct->m_Zone));
1000075e:	04 0d       	LD.W      R5, [SP + #4]
10000760:	6d 98       	LD.W      R5, [R5 + #1]
10000762:	50 38       	CMP       R5, #0
10000764:	05 f0       	JZ        $+5                   ;->0x1000076e
10000766:	04 0d       	LD.W      R5, [SP + #4]
10000768:	6d 98       	LD.W      R5, [R5 + #1]
1000076a:	51 38       	CMP       R5, #1
1000076c:	03 f1       	JNZ       $+3                   ;->0x10000772
1000076e:	51 10       	MOV       R5, #1
10000770:	02 04       	SJMP      $+2                   ;->0x10000774
10000772:	50 10       	MOV       R5, #0
10000774:	05 58       	MOV       R0, R5
10000776:	4e 45       	LD        R5, [PC + #78]        ;->0x100008ac  :=0x10000000
10000778:	05 5c       	LJMP      R5
..\src\kf32f_basic_flash.c:1043
	CHECK_RESTRICTION_RAM(CHECK_FLASH_ADDR_20BITS(flashProgramStruct->m_Addr));
1000077a:	04 0d       	LD.W      R5, [SP + #4]
1000077c:	ad 98       	LD.W      R5, [R5 + #2]
1000077e:	34 11       	MOV       R3, #20
10000780:	e5 dc       	LSR       R4, R5, R3
10000782:	51 10       	MOV       R5, #1
10000784:	40 38       	CMP       R4, #0
10000786:	02 f0       	JZ        $+2                   ;->0x1000078a
10000788:	50 10       	MOV       R5, #0
1000078a:	55 d1       	ZXT.B     R5, R5
1000078c:	05 58       	MOV       R0, R5
1000078e:	48 45       	LD        R5, [PC + #72]        ;->0x100008ac  :=0x10000000
10000790:	05 5c       	LJMP      R5
..\src\kf32f_basic_flash.c:1044
	CHECK_RESTRICTION_RAM(CHECK_FLASH_WRITE_SIZE(flashProgramStruct->m_WriteSize));
10000792:	04 0d       	LD.W      R5, [SP + #4]
10000794:	ed 98       	LD.W      R5, [R5 + #3]
10000796:	36 10       	MOV       R3, #6
10000798:	e5 dc       	LSR       R4, R5, R3
1000079a:	51 10       	MOV       R5, #1
1000079c:	40 38       	CMP       R4, #0
1000079e:	02 f0       	JZ        $+2                   ;->0x100007a2
100007a0:	50 10       	MOV       R5, #0
100007a2:	55 d1       	ZXT.B     R5, R5
100007a4:	05 58       	MOV       R0, R5
100007a6:	42 45       	LD        R5, [PC + #66]        ;->0x100008ac  :=0x10000000
100007a8:	05 5c       	LJMP      R5
..\src\kf32f_basic_flash.c:1051
    /* 盾迄篠贋匂 */




    FLASH_Unlock_ISP_RAM();
100007aa:	42 45       	LD        R5, [PC + #66]        ;->0x100008b0  :=0x10000074
100007ac:	05 5c       	LJMP      R5
..\src\kf32f_basic_flash.c:1052
    FLASH_Unlock_User_Config_RAM();
100007ae:	42 45       	LD        R5, [PC + #66]        ;->0x100008b4  :=0x1000014c
100007b0:	05 5c       	LJMP      R5
..\src\kf32f_basic_flash.c:1053
    FLASH_Unlock_Code_RAM();
100007b2:	42 45       	LD        R5, [PC + #66]        ;->0x100008b8  :=0x100000e0
100007b4:	05 5c       	LJMP      R5
..\src\kf32f_basic_flash.c:1059




    /*---------------- 塘崔FLASH_ISPCON0篠贋匂DWEN了 ----------------*/
    __asm volatile("SET [%0], #%1"::"r"(&(FLASH_ISPCON0)),"i"(FLASH_ISPCON0_DWEN_POS));
100007b6:	42 45       	LD        R5, [PC + #66]        ;->0x100008bc  :=0x40200100
100007b8:	2b 4c       	SET       [R5], #3
..\src\kf32f_basic_flash.c:1061

    if (flashProgramStruct->m_Zone != FLASH_PROGRAM_CODE)
100007ba:	04 0d       	LD.W      R5, [SP + #4]
100007bc:	6d 98       	LD.W      R5, [R5 + #1]
100007be:	50 38       	CMP       R5, #0
100007c0:	03 f0       	JZ        $+3                   ;->0x100007c6
..\src\kf32f_basic_flash.c:1064
    {
        /*---------------- 塘崔FLASH_ISPCON0篠贋匂IFEN了 ----------------*/
        __asm volatile("SET [%0], #%1"::"r"(&(FLASH_ISPCON0)),"i"(FLASH_ISPCON0_IFEN_POS));
100007c2:	3f 45       	LD        R5, [PC + #63]        ;->0x100008bc  :=0x40200100
100007c4:	2c 4c       	SET       [R5], #4
..\src\kf32f_basic_flash.c:1072
    else
    {
    }

    /* 聞喘匝扮延楚序佩徭奐⇧閲窒俐個潤更悶坪否 */
	  tmpaddr = flashProgramStruct->m_Addr;
100007c6:	04 0d       	LD.W      R5, [SP + #4]
100007c8:	ad 98       	LD.W      R5, [R5 + #2]
100007ca:	e5 85       	ST.W      [SP], R5
..\src\kf32f_basic_flash.c:1073
	  tmpptr =  flashProgramStruct->m_Data;
100007cc:	04 0d       	LD.W      R5, [SP + #4]
100007ce:	2d 99       	LD.W      R5, [R5 + #4]
100007d0:	01 25       	ST.W      [SP + #1], R5
..\src\kf32f_basic_flash.c:1076

    /* 塘崔園殻庁塀 */
    if (flashProgramStruct->m_Mode != FLASH_PROGRAM_WORD)
100007d2:	04 0d       	LD.W      R5, [SP + #4]
100007d4:	55 82       	LD.W      R5, [R5]
100007d6:	55 39       	CMP       R5, #21
100007d8:	38 f0       	JZ        $+56                  ;->0x10000848
..\src\kf32f_basic_flash.c:1080
    {
        /* 磯匈園殻 */
        /*----------- 塘崔FLASH_ISPCMD篠贋匂CMD/WSIZE了 -----------*/
        tmpreg = flashProgramStruct->m_Mode \
100007da:	04 0d       	LD.W      R5, [SP + #4]
100007dc:	55 82       	LD.W      R5, [R5]
..\src\kf32f_basic_flash.c:1081
               | (flashProgramStruct->m_WriteSize << FLASH_ISPCMD_WSIZE0_POS);
100007de:	04 0c       	LD.W      R4, [SP + #4]
100007e0:	e4 98       	LD.W      R4, [R4 + #3]
100007e2:	25 7a       	LSL       R4, #5
..\src\kf32f_basic_flash.c:1080
    /* 塘崔園殻庁塀 */
    if (flashProgramStruct->m_Mode != FLASH_PROGRAM_WORD)
    {
        /* 磯匈園殻 */
        /*----------- 塘崔FLASH_ISPCMD篠贋匂CMD/WSIZE了 -----------*/
        tmpreg = flashProgramStruct->m_Mode \
100007e4:	2d d7       	ORL       R5, R5, R4
100007e6:	03 25       	ST.W      [SP + #3], R5
..\src\kf32f_basic_flash.c:1082
               | (flashProgramStruct->m_WriteSize << FLASH_ISPCMD_WSIZE0_POS);
        FLASH_ISPCMD = SFR_Config_RAM(FLASH_ISPCMD,
100007e8:	35 46       	LD        R6, [PC + #53]        ;->0x100008bc  :=0x40200100
100007ea:	35 45       	LD        R5, [PC + #53]        ;->0x100008bc  :=0x40200100
100007ec:	ad 98       	LD.W      R5, [R5 + #2]
100007ee:	05 58       	MOV       R0, R5
100007f0:	34 41       	LD        R1, [PC + #52]        ;->0x100008c0  :=0xfffff800
100007f2:	03 0a       	LD.W      R2, [SP + #3]
100007f4:	34 45       	LD        R5, [PC + #52]        ;->0x100008c4  :=0x1000000e
100007f6:	05 5c       	LJMP      R5
100007f8:	a0 58       	MOV       R5, R0
100007fa:	b5 a0       	ST.W      [R6 + #2], R5
..\src\kf32f_basic_flash.c:1085
                            ~(FLASH_ISPCMD_CMD | FLASH_ISPCMD_WSIZE),
                            tmpreg);
        FLASH_Executive_Cmd_RAM();
100007fc:	33 45       	LD        R5, [PC + #51]        ;->0x100008c8  :=0x10000394
100007fe:	05 5c       	LJMP      R5
..\src\kf32f_basic_flash.c:1087
		unsigned char j;
		for(j=0;j<=0x3f;j++)//0x3f恷寄峙
10000800:	50 10       	MOV       R5, #0
10000802:	a8 e3       	ST.B      [SP + #8], R5
10000804:	1e 04       	SJMP      $+30                  ;->0x10000840
..\src\kf32f_basic_flash.c:1089
		{
			__asm volatile("ST.w [%0], %1"::"r"(tmpaddr),"r"(*tmpptr));
10000806:	01 0d       	LD.W      R5, [SP + #1]
10000808:	45 82       	LD.W      R4, [R5]
1000080a:	5e 82       	LD.W      R5, [SP]
1000080c:	54 85       	ST.W      [R5], R4
..\src\kf32f_basic_flash.c:1090
			tmpaddr=tmpaddr+4;
1000080e:	5e 82       	LD.W      R5, [SP]
10000810:	2d c1       	ADD       R5, R5, #4
10000812:	e5 85       	ST.W      [SP], R5
..\src\kf32f_basic_flash.c:1091
			tmpptr++;
10000814:	01 0d       	LD.W      R5, [SP + #1]
10000816:	2d c1       	ADD       R5, R5, #4
10000818:	01 25       	ST.W      [SP + #1], R5
..\src\kf32f_basic_flash.c:1092
			__asm volatile("ST.w [%0], %1"::"r"(tmpaddr),"r"(*tmpptr));
1000081a:	01 0d       	LD.W      R5, [SP + #1]
1000081c:	45 82       	LD.W      R4, [R5]
1000081e:	5e 82       	LD.W      R5, [SP]
10000820:	54 85       	ST.W      [R5], R4
..\src\kf32f_basic_flash.c:1093
			tmpaddr=tmpaddr+4;
10000822:	5e 82       	LD.W      R5, [SP]
10000824:	2d c1       	ADD       R5, R5, #4
10000826:	e5 85       	ST.W      [SP], R5
..\src\kf32f_basic_flash.c:1094
			tmpptr++;
10000828:	01 0d       	LD.W      R5, [SP + #1]
1000082a:	2d c1       	ADD       R5, R5, #4
1000082c:	01 25       	ST.W      [SP + #1], R5
..\src\kf32f_basic_flash.c:1095
			while(FLASH_Get_Program_Status_RAM());
1000082e:	00 00       	NOP      NOP      
10000830:	27 45       	LD        R5, [PC + #39]        ;->0x100008cc  :=0x100004d8
10000832:	05 5c       	LJMP      R5
10000834:	a0 58       	MOV       R5, R0
10000836:	50 38       	CMP       R5, #0
10000838:	fc f1       	JNZ       $-4                   ;->0x10000830
..\src\kf32f_basic_flash.c:1087
        FLASH_ISPCMD = SFR_Config_RAM(FLASH_ISPCMD,
                            ~(FLASH_ISPCMD_CMD | FLASH_ISPCMD_WSIZE),
                            tmpreg);
        FLASH_Executive_Cmd_RAM();
		unsigned char j;
		for(j=0;j<=0x3f;j++)//0x3f恷寄峙
1000083a:	a8 e1       	LD.B      R5, [SP + #8]
1000083c:	6d c0       	ADD       R5, R5, #1
1000083e:	a8 e3       	ST.B      [SP + #8], R5
10000840:	a8 e1       	LD.B      R5, [SP + #8]
10000842:	5f 3b       	CMP       R5, #63
10000844:	e1 f9       	JLS       $-31                  ;->0x10000806
10000846:	1f 04       	SJMP      $+31                  ;->0x10000884
..\src\kf32f_basic_flash.c:1102
    }
    else
    {
        /* 汽忖園殻 */
        /*------------- 塘崔FLASH_ISPCMD篠贋匂CMD了 --------------*/
        FLASH_ISPCMD = SFR_Config_RAM (FLASH_ISPCMD,
10000848:	1d 46       	LD        R6, [PC + #29]        ;->0x100008bc  :=0x40200100
1000084a:	1d 45       	LD        R5, [PC + #29]        ;->0x100008bc  :=0x40200100
1000084c:	a5 98       	LD.W      R4, [R5 + #2]
..\src\kf32f_basic_flash.c:1104
                            ~FLASH_ISPCMD_CMD,
                            flashProgramStruct->m_Mode);
1000084e:	04 0d       	LD.W      R5, [SP + #4]
..\src\kf32f_basic_flash.c:1102
    }
    else
    {
        /* 汽忖園殻 */
        /*------------- 塘崔FLASH_ISPCMD篠贋匂CMD了 --------------*/
        FLASH_ISPCMD = SFR_Config_RAM (FLASH_ISPCMD,
10000850:	55 82       	LD.W      R5, [R5]
10000852:	04 58       	MOV       R0, R4
10000854:	1f 11       	MOV       R1, #31
10000856:	11 68       	NOT       R1, R1
10000858:	45 58       	MOV       R2, R5
1000085a:	1b 45       	LD        R5, [PC + #27]        ;->0x100008c4  :=0x1000000e
1000085c:	05 5c       	LJMP      R5
1000085e:	a0 58       	MOV       R5, R0
10000860:	b5 a0       	ST.W      [R6 + #2], R5
..\src\kf32f_basic_flash.c:1108
                            ~FLASH_ISPCMD_CMD,
                            flashProgramStruct->m_Mode);
        /* 汽忖園殻⇧枠紗墮方象⇧朔乾窟凋綜 */
        /* 紗墮64了方象 */

    	__asm volatile("ST.w [%0], %1"::"r"(tmpaddr),"r"(*tmpptr));
10000862:	01 0d       	LD.W      R5, [SP + #1]
10000864:	45 82       	LD.W      R4, [R5]
10000866:	5e 82       	LD.W      R5, [SP]
10000868:	54 85       	ST.W      [R5], R4
..\src\kf32f_basic_flash.c:1109
    	tmpaddr=tmpaddr+4;
1000086a:	5e 82       	LD.W      R5, [SP]
1000086c:	2d c1       	ADD       R5, R5, #4
1000086e:	e5 85       	ST.W      [SP], R5
..\src\kf32f_basic_flash.c:1110
    	tmpptr++;
10000870:	01 0d       	LD.W      R5, [SP + #1]
10000872:	2d c1       	ADD       R5, R5, #4
10000874:	01 25       	ST.W      [SP + #1], R5
..\src\kf32f_basic_flash.c:1111
    	__asm volatile("ST.w [%0], %1"::"r"(tmpaddr),"r"(*tmpptr));
10000876:	01 0d       	LD.W      R5, [SP + #1]
10000878:	45 82       	LD.W      R4, [R5]
1000087a:	5e 82       	LD.W      R5, [SP]
1000087c:	54 85       	ST.W      [R5], R4
..\src\kf32f_basic_flash.c:1115

        /* 乾窟凋綜 */

        FLASH_Executive_Cmd_RAM();
1000087e:	13 45       	LD        R5, [PC + #19]        ;->0x100008c8  :=0x10000394
10000880:	05 5c       	LJMP      R5
..\src\kf32f_basic_flash.c:1119

    }

    while(FLASH_Get_Wipe_Status_RAM());//吉棋亟秘頼撹
10000882:	01 04       	SJMP      $+1                   ;->0x10000884
10000884:	00 00       	NOP      NOP      
10000886:	13 45       	LD        R5, [PC + #19]        ;->0x100008d0  :=0x100004f4
10000888:	05 5c       	LJMP      R5
1000088a:	a0 58       	MOV       R5, R0
1000088c:	50 38       	CMP       R5, #0
1000088e:	fc f1       	JNZ       $-4                   ;->0x10000886
..\src\kf32f_basic_flash.c:1124

    /*---------------- 賠巣FLASH_ISPCON0篠贋匂DWEN了 ----------------*/


   	FLASH_Zone_Config_RAM (FLASH_NVM_CODE_ZONE);//指欺殻會曝
10000890:	00 10       	MOV       R0, #0
10000892:	11 45       	LD        R5, [PC + #17]        ;->0x100008d4  :=0x10000168
10000894:	05 5c       	LJMP      R5
..\src\kf32f_basic_flash.c:1126

   	FLASH_Data_Write_Enable_RAM (FALSE);
10000896:	00 10       	MOV       R0, #0
10000898:	10 45       	LD        R5, [PC + #16]        ;->0x100008d8  :=0x2b4
1000089a:	05 5c       	LJMP      R5
..\src\kf32f_basic_flash.c:1128
    //貧迄
	FLASH_Clear_NonVolatile_Memory_Unlock_Status_RAM ();//賠巣FLASH園殻怏周盾迄彜蓑了。
1000089c:	10 45       	LD        R5, [PC + #16]        ;->0x100008dc  :=0x10000040
1000089e:	05 5c       	LJMP      R5
..\src\kf32f_basic_flash.c:1129
	FLASH_Clear_Flash_Unlock_Status_RAM ();//賠巣FLASH盾迄彜蓑了。
100008a0:	10 45       	LD        R5, [PC + #16]        ;->0x100008e0  :=0x100000ac
100008a2:	05 5c       	LJMP      R5
..\src\kf32f_basic_flash.c:1130
	FLASH_Clear_Config_Unlock_Status_RAM ();//賠巣FLASH塘崔曝盾迄彜蓑了。
100008a4:	10 45       	LD        R5, [PC + #16]        ;->0x100008e4  :=0x10000118
100008a6:	05 5c       	LJMP      R5
..\src\kf32f_basic_flash.c:1132

}
100008a8:	e4 29       	ADD       SP, #20
100008aa:	81 5e       	POP       {R6,PC}
100008ac:	00 00 00 10 	.long     0x10000000 ->268435456
100008b0:	74 00 00 10 	.long     0x10000074 ->268435572
100008b4:	4c 01 00 10 	.long     0x1000014c ->268435788
100008b8:	e0 00 00 10 	.long     0x100000e0 ->268435680
100008bc:	00 01 20 40 	.long     0x40200100 ->1075839232
100008c0:	00 f8 ff ff 	.long     0xfffff800 ->-2048
100008c4:	0e 00 00 10 	.long     0x1000000e ->268435470
100008c8:	94 03 00 10 	.long     0x10000394 ->268436372
100008cc:	d8 04 00 10 	.long     0x100004d8 ->268436696
100008d0:	f4 04 00 10 	.long     0x100004f4 ->268436724
100008d4:	68 01 00 10 	.long     0x10000168 ->268435816
100008d8:	b4 02 00 00 	.long     0x000002b4 ->692
100008dc:	40 00 00 10 	.long     0x10000040 ->268435520
100008e0:	ac 00 00 10 	.long     0x100000ac ->268435628
100008e4:	18 01 00 10 	.long     0x10000118 ->268435736

100008e8 <Read_Flash_or_CFR_RAM>:
Read_Flash_or_CFR_RAM():
..\src\kf32f_basic_flash.c:1251
  * 卦指  補秘峺﨑仇峽議32了方象
  */
uint32_t read_data;
uint32_t __attribute__((section(".indata")))
Read_Flash_or_CFR_RAM (uint32_t address,uint32_t ZoneSelect)
{
100008e8:	2d 5d       	PUSH      LR
100008ea:	ec 30       	SUB       SP, #12
100008ec:	01 20       	ST.W      [SP + #1], R0
100008ee:	02 21       	ST.W      [SP + #2], R1
..\src\kf32f_basic_flash.c:1253
	uint32_t *read_adr;
	CHECK_RESTRICTION_RAM(CHECK_FLASH_PROGRAM_ZONE(ZoneSelect));
100008f0:	02 0d       	LD.W      R5, [SP + #2]
100008f2:	50 38       	CMP       R5, #0
100008f4:	04 f0       	JZ        $+4                   ;->0x100008fc
100008f6:	02 0d       	LD.W      R5, [SP + #2]
100008f8:	51 38       	CMP       R5, #1
100008fa:	03 f1       	JNZ       $+3                   ;->0x10000900
100008fc:	51 10       	MOV       R5, #1
100008fe:	02 04       	SJMP      $+2                   ;->0x10000902
10000900:	50 10       	MOV       R5, #0
10000902:	05 58       	MOV       R0, R5
10000904:	15 45       	LD        R5, [PC + #21]        ;->0x10000958  :=0x10000000
10000906:	05 5c       	LJMP      R5
..\src\kf32f_basic_flash.c:1255
	//盾迄
	FLASH_Unlock_ISP_RAM();
10000908:	15 45       	LD        R5, [PC + #21]        ;->0x1000095c  :=0x10000074
1000090a:	05 5c       	LJMP      R5
..\src\kf32f_basic_flash.c:1256
	FLASH_Unlock_User_Config_RAM();
1000090c:	15 45       	LD        R5, [PC + #21]        ;->0x10000960  :=0x1000014c
1000090e:	05 5c       	LJMP      R5
..\src\kf32f_basic_flash.c:1257
	FLASH_Unlock_Code_RAM();
10000910:	15 45       	LD        R5, [PC + #21]        ;->0x10000964  :=0x100000e0
10000912:	05 5c       	LJMP      R5
..\src\kf32f_basic_flash.c:1258
	if(ZoneSelect!=FLASH_PROGRAM_CFG)
10000914:	02 0d       	LD.W      R5, [SP + #2]
10000916:	51 38       	CMP       R5, #1
10000918:	08 f0       	JZ        $+8                   ;->0x10000928
..\src\kf32f_basic_flash.c:1260
	{
		read_adr = (uint32_t *)address;
1000091a:	01 0d       	LD.W      R5, [SP + #1]
1000091c:	e5 85       	ST.W      [SP], R5
..\src\kf32f_basic_flash.c:1261
		read_data = *read_adr;
1000091e:	5e 82       	LD.W      R5, [SP]
10000920:	55 82       	LD.W      R5, [R5]
10000922:	12 44       	LD        R4, [PC + #18]        ;->0x10000968  :=0x10000e08
10000924:	45 85       	ST.W      [R4], R5
10000926:	0d 04       	SJMP      $+13                  ;->0x10000940
..\src\kf32f_basic_flash.c:1265
	}
	else
	{
		FLASH_Zone_Config_RAM (FLASH_NVM_INFORMATION_ZONE);//俳欺佚連曝
10000928:	00 11       	MOV       R0, #16
1000092a:	11 45       	LD        R5, [PC + #17]        ;->0x1000096c  :=0x10000168
1000092c:	05 5c       	LJMP      R5
..\src\kf32f_basic_flash.c:1266
		read_adr = (uint32_t *)address;
1000092e:	01 0d       	LD.W      R5, [SP + #1]
10000930:	e5 85       	ST.W      [SP], R5
..\src\kf32f_basic_flash.c:1267
		read_data = *read_adr;
10000932:	5e 82       	LD.W      R5, [SP]
10000934:	55 82       	LD.W      R5, [R5]
10000936:	0d 44       	LD        R4, [PC + #13]        ;->0x10000968  :=0x10000e08
10000938:	45 85       	ST.W      [R4], R5
..\src\kf32f_basic_flash.c:1268
		FLASH_Zone_Config_RAM (FLASH_NVM_CODE_ZONE);//指欺殻會曝
1000093a:	00 10       	MOV       R0, #0
1000093c:	0c 45       	LD        R5, [PC + #12]        ;->0x1000096c  :=0x10000168
1000093e:	05 5c       	LJMP      R5
..\src\kf32f_basic_flash.c:1271
	}
	 //貧迄
	FLASH_Clear_NonVolatile_Memory_Unlock_Status ();//賠巣FLASH園殻怏周盾迄彜蓑了。
10000940:	0c 45       	LD        R5, [PC + #12]        ;->0x10000970  :=0x218
10000942:	05 5c       	LJMP      R5
..\src\kf32f_basic_flash.c:1272
	FLASH_Clear_Flash_Unlock_Status ();//賠巣FLASH盾迄彜蓑了。
10000944:	0c 45       	LD        R5, [PC + #12]        ;->0x10000974  :=0x24c
10000946:	05 5c       	LJMP      R5
..\src\kf32f_basic_flash.c:1273
	FLASH_Clear_Config_Unlock_Status ();//賠巣FLASH塘崔曝盾迄彜蓑了。
10000948:	0c 45       	LD        R5, [PC + #12]        ;->0x10000978  :=0x280
1000094a:	05 5c       	LJMP      R5
..\src\kf32f_basic_flash.c:1274
	return read_data;
1000094c:	07 45       	LD        R5, [PC + #7]         ;->0x10000968  :=0x10000e08
1000094e:	55 82       	LD.W      R5, [R5]
..\src\kf32f_basic_flash.c:1276

}
10000950:	05 58       	MOV       R0, R5
10000952:	ec 28       	ADD       SP, #12
10000954:	0d 5d       	POP       LR
10000956:	1d 5c       	JMP       LR
10000958:	00 00 00 10 	.long     0x10000000 ->268435456
1000095c:	74 00 00 10 	.long     0x10000074 ->268435572
10000960:	4c 01 00 10 	.long     0x1000014c ->268435788
10000964:	e0 00 00 10 	.long     0x100000e0 ->268435680
10000968:	08 0e 00 10 	.long     0x10000e08 ->268439048
1000096c:	68 01 00 10 	.long     0x10000168 ->268435816
10000970:	18 02 00 00 	.long     0x00000218 ->536
10000974:	4c 02 00 00 	.long     0x0000024c ->588
10000978:	80 02 00 00 	.long     0x00000280 ->640

1000097c <Flash_Buff1.5142>:
	...

10000b7c <Flash_Buff2.5143>:
	...

10000d7c <tab_133>:
	...

10000e04 <FlashDestination>:
10000e04:	00 80 00 00                                         ....

10000e08 <read_data>:
	...

10000e10 <flash_write>:
	...

10000e24 <JumpAddress>:
10000e24:	00 00 00 00                                         ....

10000e28 <Jump_To_Application>:
	...

10000e30 <RamSource>:
	...

10000e40 <file_name>:
	...

10000f40 <test>:
	...
