	.file	"kf32f_basic_can.c"
	.text	
.Ltext0:
	.cfi_sections	.debug_frame
	.section .text$CAN_Reset
	.type	.text$CAN_Reset$scode_local_1, @function
	.text$CAN_Reset$scode_local_1:
	.align	1
	.export	CAN_Reset
	.type	CAN_Reset, @function
CAN_Reset:
.LFB1:
.LM1:
	.cfi_startproc
.LVL0:
	PUSH	lr
	.cfi_def_cfa_offset 4
.LM2:
	LD	r5,#1073746176
	CMP	r0,r5
	JZ	.L5
.LM3:
	LD	r5,#1073746304
	CMP	r0,r5
	JZ	.L6
.LVL1:
.L1:
.LM4:
	POP	lr
	.cfi_remember_state
	.cfi_def_cfa_offset 0
	JMP	lr
.LVL2:
.L6:
	.cfi_restore_state
.LM5:
	MOV	r0,#8
.LVL3:
	MOV	r1,#1
	LJMP	PCLK_CTL2_Peripheral_Clock_Enable
.LVL4:
.LM6:
	MOV	r0,#8
	MOV	r1,#1
	LJMP	RST_CTL2_Peripheral_Reset_Enable
.LVL5:
.LM7:
	MOV	r0,#8
	MOV	r1,#0
	LJMP	RST_CTL2_Peripheral_Reset_Enable
.LVL6:
.LM8:
	POP	lr
	.cfi_remember_state
	.cfi_def_cfa_offset 0
	JMP	lr
.LVL7:
.L5:
	.cfi_restore_state
.LM9:
	MOV	r0,#4
.LVL8:
	MOV	r1,#1
	LJMP	PCLK_CTL2_Peripheral_Clock_Enable
.LVL9:
.LM10:
	MOV	r0,#4
	MOV	r1,#1
	LJMP	RST_CTL2_Peripheral_Reset_Enable
.LVL10:
.LM11:
	MOV	r0,#4
	MOV	r1,#0
	LJMP	RST_CTL2_Peripheral_Reset_Enable
.LVL11:
	JMP	.L1
	.cfi_endproc
.LFE1:
	.size	CAN_Reset, .-CAN_Reset
	.section .text$CAN_Configuration
	.type	.text$CAN_Configuration$scode_local_2, @function
	.text$CAN_Configuration$scode_local_2:
	.align	1
	.export	CAN_Configuration
	.type	CAN_Configuration, @function
CAN_Configuration:
.LFB2:
.LM12:
	.cfi_startproc
.LVL12:
.LM13:
	LD.w	r3,[r0]
.LVL13:
.LM14:
	LD.w	r2,[r1+#1]
	LD.w	r4,[r1+#2]
	ORL	r5,r2,r4
.LM15:
	SET	r5,#0
.LM16:
	LD.w	r4,[r1]
	LSL	r4,#7
	ORL	r5,r5,r4
.LBB38:
.LBB39:
.LM17:
	MOV	r4,#231
	NOT	r4,r4
	ANL	r4,r3,r4
	ORL	r5,r5,r4
.LBE39:
.LBE38:
.LM18:
	ST.w	[r0],r5
.LVL14:
.LM19:
	LD.w	r3,[r0+#1]
.LVL15:
.LM20:
	LD.b	r5,[r1+#12]
.LBB40:
.LBB41:
.LM21:
	LD	r4,#-65536
	ANL	r4,r3,r4
.LBE41:
.LBE40:
.LM22:
	ORL	r4,r5,r4
.LM23:
	LD.w	r5,[r1+#4]
	ORL	r4,r4,r5
.LM24:
	LD.b	r5,[r1+#13]
	LSL	r5,#6
.LM25:
	ORL	r5,r4,r5
.LM26:
	LD.b	r4,[r1+#14]
	LSL	r4,#8
.LM27:
	ORL	r5,r5,r4
.LM28:
	LD.b	r4,[r1+#15]
	LSL	r4,#12
.LBB43:
.LBB42:
.LM29:
	ORL	r5,r5,r4
.LBE42:
.LBE43:
.LM30:
	ST.w	[r0+#1],r5
.LM31:
	LD.w	r2,[r1+#5]
	ST.w	[r0+#4],r2
.LM32:
	LD.w	r5,[r1+#6]
	ST.w	[r0+#5],r5
.LM33:
// inline asm begin
	// 176 "../Peripherals/src/kf32f_basic_can.c" 1
	CLR [r0], #0
	// 0 "" 2
.LM34:
// inline asm end
	JMP	lr
	.cfi_endproc
.LFE2:
	.size	CAN_Configuration, .-CAN_Configuration
	.section .text$CAN_Configuration_With_Reset_Mode
	.type	.text$CAN_Configuration_With_Reset_Mode$scode_local_3, @function
	.text$CAN_Configuration_With_Reset_Mode$scode_local_3:
	.align	1
	.export	CAN_Configuration_With_Reset_Mode
	.type	CAN_Configuration_With_Reset_Mode, @function
CAN_Configuration_With_Reset_Mode:
.LFB3:
.LM35:
	.cfi_startproc
.LVL16:
.LM36:
	LD.w	r3,[r0]
.LVL17:
.LM37:
	LD.w	r2,[r1+#1]
	LD.w	r4,[r1+#2]
	ORL	r5,r2,r4
.LM38:
	SET	r5,#0
.LM39:
	LD.w	r4,[r1]
	LSL	r4,#7
	ORL	r5,r5,r4
.LBB44:
.LBB45:
.LM40:
	MOV	r4,#231
	NOT	r4,r4
	ANL	r4,r3,r4
	ORL	r5,r5,r4
.LBE45:
.LBE44:
.LM41:
	ST.w	[r0],r5
.LVL18:
.LM42:
	LD.w	r3,[r0+#1]
.LVL19:
.LM43:
	LD.b	r5,[r1+#12]
.LBB46:
.LBB47:
.LM44:
	LD	r4,#-65536
	ANL	r4,r3,r4
.LBE47:
.LBE46:
.LM45:
	ORL	r4,r5,r4
.LM46:
	LD.w	r5,[r1+#4]
	ORL	r4,r4,r5
.LM47:
	LD.b	r5,[r1+#13]
	LSL	r5,#6
.LM48:
	ORL	r5,r4,r5
.LM49:
	LD.b	r4,[r1+#14]
	LSL	r4,#8
.LM50:
	ORL	r5,r5,r4
.LM51:
	LD.b	r4,[r1+#15]
	LSL	r4,#12
.LBB49:
.LBB48:
.LM52:
	ORL	r5,r5,r4
.LBE48:
.LBE49:
.LM53:
	ST.w	[r0+#1],r5
.LM54:
	LD.w	r2,[r1+#5]
	ST.w	[r0+#4],r2
.LM55:
	LD.w	r5,[r1+#6]
	ST.w	[r0+#5],r5
.LM56:
	JMP	lr
	.cfi_endproc
.LFE3:
	.size	CAN_Configuration_With_Reset_Mode, .-CAN_Configuration_With_Reset_Mode
	.section .text$CAN_Struct_Init
	.type	.text$CAN_Struct_Init$scode_local_4, @function
	.text$CAN_Struct_Init$scode_local_4:
	.align	1
	.export	CAN_Struct_Init
	.type	CAN_Struct_Init, @function
CAN_Struct_Init:
.LFB4:
.LM57:
	.cfi_startproc
.LVL20:
.LM58:
	MOV	r5,#0
	ST.w	[r0],r5
.LM59:
	ST.w	[r0+#1],r5
.LM60:
	ST.w	[r0+#2],r5
.LM61:
	ST.b	[r0+#12],r5
.LM62:
	ST.b	[r0+#13],r5
.LM63:
	ST.b	[r0+#14],r5
.LM64:
	ST.b	[r0+#15],r5
.LM65:
	ST.w	[r0+#4],r5
.LM66:
	ST.w	[r0+#5],r5
.LM67:
	ST.w	[r0+#6],r5
.LM68:
	JMP	lr
	.cfi_endproc
.LFE4:
	.size	CAN_Struct_Init, .-CAN_Struct_Init
	.section .text$CAN_Get_Receive_Message_Counter
	.type	.text$CAN_Get_Receive_Message_Counter$scode_local_5, @function
	.text$CAN_Get_Receive_Message_Counter$scode_local_5:
	.align	1
	.export	CAN_Get_Receive_Message_Counter
	.type	CAN_Get_Receive_Message_Counter, @function
CAN_Get_Receive_Message_Counter:
.LFB5:
.LM69:
	.cfi_startproc
.LVL21:
.LM70:
	LD.w	r0,[r0]
.LVL22:
.LM71:
	LD	r5,#520093696
	ANL	r0,r0,r5
.LVL23:
.LM72:
	LSR	r0,#24
.LVL24:
	JMP	lr
	.cfi_endproc
.LFE5:
	.size	CAN_Get_Receive_Message_Counter, .-CAN_Get_Receive_Message_Counter
	.section .text$CAN_Get_Transmit_Status
	.type	.text$CAN_Get_Transmit_Status$scode_local_6, @function
	.text$CAN_Get_Transmit_Status$scode_local_6:
	.align	1
	.export	CAN_Get_Transmit_Status
	.type	CAN_Get_Transmit_Status, @function
CAN_Get_Transmit_Status:
.LFB6:
.LM73:
	.cfi_startproc
.LVL25:
.LM74:
	LD.w	r5,[r0]
.LVL26:
.LM75:
	ANL	r1,r1,r5
.LVL27:
	MOV	r5,#0
.LVL28:
	SUB	r5,r5,r1
	ORL	r0,r5,r1
.LVL29:
.LM76:
	LSR	r0,#31
	JMP	lr
	.cfi_endproc
.LFE6:
	.size	CAN_Get_Transmit_Status, .-CAN_Get_Transmit_Status
	.section .text$CAN_Cmd
	.type	.text$CAN_Cmd$scode_local_7, @function
	.text$CAN_Cmd$scode_local_7:
	.align	1
	.export	CAN_Cmd
	.type	CAN_Cmd, @function
CAN_Cmd:
.LFB7:
.LM77:
	.cfi_startproc
.LVL30:
.LM78:
	CMP	r1,#0
	JNZ	.L15
.LM79:
// inline asm begin
	// 362 "../Peripherals/src/kf32f_basic_can.c" 1
	CLR [r0], #7
	// 0 "" 2
.LM80:
// inline asm end
	JMP	lr
.L15:
.LM81:
// inline asm begin
	// 357 "../Peripherals/src/kf32f_basic_can.c" 1
	SET [r0], #7
	// 0 "" 2
.LM82:
// inline asm end
	JMP	lr
	.cfi_endproc
.LFE7:
	.size	CAN_Cmd, .-CAN_Cmd
	.section .text$CAN_Clock_Source_Config
	.type	.text$CAN_Clock_Source_Config$scode_local_8, @function
	.text$CAN_Clock_Source_Config$scode_local_8:
	.align	1
	.export	CAN_Clock_Source_Config
	.type	CAN_Clock_Source_Config, @function
CAN_Clock_Source_Config:
.LFB8:
.LM83:
	.cfi_startproc
.LVL31:
.LM84:
	LD.w	r5,[r0]
.LVL32:
.LBB50:
.LBB51:
.LM85:
	CLR	r5,#5
	CLR	r5,#6
.LVL33:
	ORL	r1,r1,r5
.LVL34:
.LBE51:
.LBE50:
.LM86:
	ST.w	[r0],r1
.LM87:
	JMP	lr
	.cfi_endproc
.LFE8:
	.size	CAN_Clock_Source_Config, .-CAN_Clock_Source_Config
	.section .text$CAN_Sleep_Mode_Enable
	.type	.text$CAN_Sleep_Mode_Enable$scode_local_9, @function
	.text$CAN_Sleep_Mode_Enable$scode_local_9:
	.align	1
	.export	CAN_Sleep_Mode_Enable
	.type	CAN_Sleep_Mode_Enable, @function
CAN_Sleep_Mode_Enable:
.LFB9:
.LM88:
	.cfi_startproc
.LVL35:
.LM89:
	CMP	r1,#0
	JNZ	.L20
.LM90:
// inline asm begin
	// 408 "../Peripherals/src/kf32f_basic_can.c" 1
	CLR [r0], #3
	// 0 "" 2
.LM91:
// inline asm end
	JMP	lr
.L20:
.LM92:
// inline asm begin
	// 403 "../Peripherals/src/kf32f_basic_can.c" 1
	SET [r0], #3
	// 0 "" 2
.LM93:
// inline asm end
	JMP	lr
	.cfi_endproc
.LFE9:
	.size	CAN_Sleep_Mode_Enable, .-CAN_Sleep_Mode_Enable
	.section .text$CAN_Reset_Mode_Enable
	.type	.text$CAN_Reset_Mode_Enable$scode_local_10, @function
	.text$CAN_Reset_Mode_Enable$scode_local_10:
	.align	1
	.export	CAN_Reset_Mode_Enable
	.type	CAN_Reset_Mode_Enable, @function
CAN_Reset_Mode_Enable:
.LFB10:
.LM94:
	.cfi_startproc
.LVL36:
.LM95:
	CMP	r1,#0
	JNZ	.L24
.LM96:
// inline asm begin
	// 434 "../Peripherals/src/kf32f_basic_can.c" 1
	CLR [r0], #0
	// 0 "" 2
.LM97:
// inline asm end
	JMP	lr
.L24:
.LM98:
// inline asm begin
	// 429 "../Peripherals/src/kf32f_basic_can.c" 1
	SET [r0], #0
	// 0 "" 2
.LM99:
// inline asm end
	JMP	lr
	.cfi_endproc
.LFE10:
	.size	CAN_Reset_Mode_Enable, .-CAN_Reset_Mode_Enable
	.section .text$CAN_Work_Mode_Config
	.type	.text$CAN_Work_Mode_Config$scode_local_11, @function
	.text$CAN_Work_Mode_Config$scode_local_11:
	.align	1
	.export	CAN_Work_Mode_Config
	.type	CAN_Work_Mode_Config, @function
CAN_Work_Mode_Config:
.LFB11:
.LM100:
	.cfi_startproc
.LVL37:
.LM101:
	LD.w	r5,[r0]
.LVL38:
.LBB52:
.LBB53:
.LM102:
	CLR	r5,#1
	CLR	r5,#2
.LVL39:
	ORL	r1,r1,r5
.LVL40:
.LBE53:
.LBE52:
.LM103:
	ST.w	[r0],r1
.LM104:
	JMP	lr
	.cfi_endproc
.LFE11:
	.size	CAN_Work_Mode_Config, .-CAN_Work_Mode_Config
	.section .text$CAN_Bus_Sample_Times_Config
	.type	.text$CAN_Bus_Sample_Times_Config$scode_local_12, @function
	.text$CAN_Bus_Sample_Times_Config$scode_local_12:
	.align	1
	.export	CAN_Bus_Sample_Times_Config
	.type	CAN_Bus_Sample_Times_Config, @function
CAN_Bus_Sample_Times_Config:
.LFB12:
.LM105:
	.cfi_startproc
.LVL41:
.LM106:
	ADD	r0,r0,#4
.LVL42:
.LM107:
	CMP	r1,#0
	JNZ	.L29
.LM108:
// inline asm begin
	// 485 "../Peripherals/src/kf32f_basic_can.c" 1
	CLR [r0], #15
	// 0 "" 2
.LM109:
// inline asm end
	JMP	lr
.L29:
.LM110:
// inline asm begin
	// 480 "../Peripherals/src/kf32f_basic_can.c" 1
	SET [r0], #15
	// 0 "" 2
.LM111:
// inline asm end
	JMP	lr
	.cfi_endproc
.LFE12:
	.size	CAN_Bus_Sample_Times_Config, .-CAN_Bus_Sample_Times_Config
	.section .text$CAN_Time_Segment_Config
	.type	.text$CAN_Time_Segment_Config$scode_local_13, @function
	.text$CAN_Time_Segment_Config$scode_local_13:
	.align	1
	.export	CAN_Time_Segment_Config
	.type	CAN_Time_Segment_Config, @function
CAN_Time_Segment_Config:
.LFB13:
.LM112:
	.cfi_startproc
.LVL43:
.LM113:
	LD.w	r5,[r0+#1]
.LVL44:
.LM114:
	LSL	r1,#8
.LVL45:
.LBB54:
.LBB55:
.LM115:
	LD	r4,#-32513
	ANL	r5,r5,r4
.LVL46:
.LBE55:
.LBE54:
.LM116:
	ORL	r5,r1,r5
.LM117:
	LSL	r2,#12
.LVL47:
.LBB57:
.LBB56:
.LM118:
	ORL	r5,r5,r2
.LBE56:
.LBE57:
.LM119:
	ST.w	[r0+#1],r5
.LM120:
	JMP	lr
	.cfi_endproc
.LFE13:
	.size	CAN_Time_Segment_Config, .-CAN_Time_Segment_Config
	.section .text$CAN_Sync_Jump_Width_Config
	.type	.text$CAN_Sync_Jump_Width_Config$scode_local_14, @function
	.text$CAN_Sync_Jump_Width_Config$scode_local_14:
	.align	1
	.export	CAN_Sync_Jump_Width_Config
	.type	CAN_Sync_Jump_Width_Config, @function
CAN_Sync_Jump_Width_Config:
.LFB14:
.LM121:
	.cfi_startproc
.LVL48:
.LM122:
	LD.w	r5,[r0+#1]
.LVL49:
.LM123:
	LSL	r1,#6
.LVL50:
.LBB58:
.LBB59:
.LM124:
	CLR	r5,#6
	CLR	r5,#7
.LVL51:
	ORL	r5,r1,r5
.LBE59:
.LBE58:
.LM125:
	ST.w	[r0+#1],r5
.LM126:
	JMP	lr
	.cfi_endproc
.LFE14:
	.size	CAN_Sync_Jump_Width_Config, .-CAN_Sync_Jump_Width_Config
	.section .text$CAN_Baud_Rate_Preset_Config
	.type	.text$CAN_Baud_Rate_Preset_Config$scode_local_15, @function
	.text$CAN_Baud_Rate_Preset_Config$scode_local_15:
	.align	1
	.export	CAN_Baud_Rate_Preset_Config
	.type	CAN_Baud_Rate_Preset_Config, @function
CAN_Baud_Rate_Preset_Config:
.LFB15:
.LM127:
	.cfi_startproc
.LVL52:
.LM128:
	LD.w	r4,[r0+#1]
.LVL53:
.LBB60:
.LBB61:
.LM129:
	MOV	r5,#63
	NOT	r5,r5
	ANL	r5,r4,r5
	ORL	r1,r1,r5
.LVL54:
.LBE61:
.LBE60:
.LM130:
	ST.w	[r0+#1],r1
.LM131:
	JMP	lr
	.cfi_endproc
.LFE15:
	.size	CAN_Baud_Rate_Preset_Config, .-CAN_Baud_Rate_Preset_Config
	.section .text$CAN_Get_Point_Of_RAM_Mailbox
	.type	.text$CAN_Get_Point_Of_RAM_Mailbox$scode_local_16, @function
	.text$CAN_Get_Point_Of_RAM_Mailbox$scode_local_16:
	.align	1
	.export	CAN_Get_Point_Of_RAM_Mailbox
	.type	CAN_Get_Point_Of_RAM_Mailbox, @function
CAN_Get_Point_Of_RAM_Mailbox:
.LFB16:
.LM132:
	.cfi_startproc
.LVL55:
.LM133:
	LD.w	r0,[r0+#2]
.LVL56:
	MOV	r5,#1
	LSL	r5,#16
	ANL	r0,r0,r5
.LVL57:
.LM134:
	LSR	r0,#16
	ZXT.b	r0,r0
.LM135:
	JMP	lr
	.cfi_endproc
.LFE16:
	.size	CAN_Get_Point_Of_RAM_Mailbox, .-CAN_Get_Point_Of_RAM_Mailbox
	.section .text$CAN_Get_Error_Code
	.type	.text$CAN_Get_Error_Code$scode_local_17, @function
	.text$CAN_Get_Error_Code$scode_local_17:
	.align	1
	.export	CAN_Get_Error_Code
	.type	CAN_Get_Error_Code, @function
CAN_Get_Error_Code:
.LFB17:
.LM136:
	.cfi_startproc
.LVL58:
.LM137:
	LD.w	r5,[r0+#2]
.LVL59:
.LM138:
	LD	r4,#49152
	ANL	r4,r5,r4
.LVL60:
.LM139:
	LSR	r4,#14
.LVL61:
.LM140:
	ST.b	[r1],r4
.LM141:
	MOV	r4,#1
.LVL62:
	LSL	r4,#13
	ANL	r4,r5,r4
.LVL63:
.LM142:
	LSR	r4,#13
.LVL64:
.LM143:
	ST.b	[r1+#1],r4
.LM144:
	LD	r4,#7936
.LVL65:
	ANL	r4,r5,r4
.LVL66:
.LM145:
	LSR	r4,#8
.LVL67:
.LM146:
	ST.b	[r1+#2],r4
.LVL68:
.LM147:
	MOV	r4,#31
	ANL	r5,r5,r4
.LVL69:
.LM148:
	ST.b	[r1+#3],r5
.LM149:
	JMP	lr
	.cfi_endproc
.LFE17:
	.size	CAN_Get_Error_Code, .-CAN_Get_Error_Code
	.section .text$CAN_Get_Error_Warning_Limit
	.type	.text$CAN_Get_Error_Warning_Limit$scode_local_18, @function
	.text$CAN_Get_Error_Warning_Limit$scode_local_18:
	.align	1
	.export	CAN_Get_Error_Warning_Limit
	.type	CAN_Get_Error_Warning_Limit, @function
CAN_Get_Error_Warning_Limit:
.LFB18:
.LM150:
	.cfi_startproc
.LVL70:
.LM151:
	LD.w	r0,[r0+#3]
.LVL71:
.LM152:
	ZXT.b	r0,r0
.LVL72:
	JMP	lr
	.cfi_endproc
.LFE18:
	.size	CAN_Get_Error_Warning_Limit, .-CAN_Get_Error_Warning_Limit
	.section .text$CAN_Get_Error_Counter
	.type	.text$CAN_Get_Error_Counter$scode_local_19, @function
	.text$CAN_Get_Error_Counter$scode_local_19:
	.align	1
	.export	CAN_Get_Error_Counter
	.type	CAN_Get_Error_Counter, @function
CAN_Get_Error_Counter:
.LFB19:
.LM153:
	.cfi_startproc
.LVL73:
.LM154:
	LD.w	r0,[r0+#3]
.LVL74:
.LM155:
	CMP	r1,#0
	JNZ	.L39
.LM156:
	LD	r5,#65280
	ANL	r0,r0,r5
.LVL75:
.LM157:
	LSR	r0,#8
.LVL76:
.LM158:
	JMP	lr
.L39:
.LM159:
	ZXT.b	r0,r0
.LVL77:
.LM160:
	JMP	lr
	.cfi_endproc
.LFE19:
	.size	CAN_Get_Error_Counter, .-CAN_Get_Error_Counter
	.section .text$CAN_Error_Warning_Limit_Config
	.type	.text$CAN_Error_Warning_Limit_Config$scode_local_20, @function
	.text$CAN_Error_Warning_Limit_Config$scode_local_20:
	.align	1
	.export	CAN_Error_Warning_Limit_Config
	.type	CAN_Error_Warning_Limit_Config, @function
CAN_Error_Warning_Limit_Config:
.LFB20:
.LM161:
	.cfi_startproc
.LVL78:
	ZXT.b	r1,r1
.LVL79:
.LM162:
	LD.w	r3,[r0+#3]
.LVL80:
.LM163:
	MOV	r4,#16
	LSL	r5,r1,r4
.LBB62:
.LBB63:
.LM164:
	LD	r4,#-16711681
	ANL	r1,r3,r4
.LVL81:
	ORL	r1,r5,r1
.LBE63:
.LBE62:
.LM165:
	ST.w	[r0+#3],r1
.LM166:
	JMP	lr
	.cfi_endproc
.LFE20:
	.size	CAN_Error_Warning_Limit_Config, .-CAN_Error_Warning_Limit_Config
	.section .text$CAN_Error_Counter_Config
	.type	.text$CAN_Error_Counter_Config$scode_local_21, @function
	.text$CAN_Error_Counter_Config$scode_local_21:
	.align	1
	.export	CAN_Error_Counter_Config
	.type	CAN_Error_Counter_Config, @function
CAN_Error_Counter_Config:
.LFB21:
.LM167:
	.cfi_startproc
.LVL82:
	ZXT.b	r2,r2
.LVL83:
.LM168:
	CMP	r1,#0
	JNZ	.L44
.LM169:
	LSL	r2,#8
.LVL84:
	LD	r4,#-65281
.LVL85:
.LM170:
	LD.w	r5,[r0+#3]
.LVL86:
.LBB64:
.LBB65:
.LM171:
	ANL	r5,r4,r5
.LVL87:
	ORL	r2,r5,r2
.LVL88:
.LBE65:
.LBE64:
.LM172:
	ST.w	[r0+#3],r2
.LM173:
	JMP	lr
.LVL89:
.L44:
.LM174:
	MOV	r4,#255
	NOT	r4,r4
.LVL90:
.LM175:
	LD.w	r5,[r0+#3]
.LVL91:
.LBB67:
.LBB66:
.LM176:
	ANL	r5,r4,r5
.LVL92:
	ORL	r2,r5,r2
.LVL93:
.LBE66:
.LBE67:
.LM177:
	ST.w	[r0+#3],r2
.LM178:
	JMP	lr
	.cfi_endproc
.LFE21:
	.size	CAN_Error_Counter_Config, .-CAN_Error_Counter_Config
	.section .text$CAN_Acceptance_Config
	.type	.text$CAN_Acceptance_Config$scode_local_22, @function
	.text$CAN_Acceptance_Config$scode_local_22:
	.align	1
	.export	CAN_Acceptance_Config
	.type	CAN_Acceptance_Config, @function
CAN_Acceptance_Config:
.LFB22:
.LM179:
	.cfi_startproc
.LVL94:
.LM180:
	ST.w	[r0+#4],r1
.LM181:
	JMP	lr
	.cfi_endproc
.LFE22:
	.size	CAN_Acceptance_Config, .-CAN_Acceptance_Config
	.section .text$CAN_Get_Acceptance
	.type	.text$CAN_Get_Acceptance$scode_local_23, @function
	.text$CAN_Get_Acceptance$scode_local_23:
	.align	1
	.export	CAN_Get_Acceptance
	.type	CAN_Get_Acceptance, @function
CAN_Get_Acceptance:
.LFB23:
.LM182:
	.cfi_startproc
.LVL95:
.LM183:
	LD.w	r0,[r0+#4]
.LVL96:
.LM184:
	JMP	lr
	.cfi_endproc
.LFE23:
	.size	CAN_Get_Acceptance, .-CAN_Get_Acceptance
	.section .text$CAN_Acceptance_Mask_Config
	.type	.text$CAN_Acceptance_Mask_Config$scode_local_24, @function
	.text$CAN_Acceptance_Mask_Config$scode_local_24:
	.align	1
	.export	CAN_Acceptance_Mask_Config
	.type	CAN_Acceptance_Mask_Config, @function
CAN_Acceptance_Mask_Config:
.LFB24:
.LM185:
	.cfi_startproc
.LVL97:
.LM186:
	ST.w	[r0+#5],r1
.LM187:
	JMP	lr
	.cfi_endproc
.LFE24:
	.size	CAN_Acceptance_Mask_Config, .-CAN_Acceptance_Mask_Config
	.section .text$CAN_Get_Acceptance_Mask
	.type	.text$CAN_Get_Acceptance_Mask$scode_local_25, @function
	.text$CAN_Get_Acceptance_Mask$scode_local_25:
	.align	1
	.export	CAN_Get_Acceptance_Mask
	.type	CAN_Get_Acceptance_Mask, @function
CAN_Get_Acceptance_Mask:
.LFB25:
.LM188:
	.cfi_startproc
.LVL98:
.LM189:
	LD.w	r0,[r0+#5]
.LVL99:
.LM190:
	JMP	lr
	.cfi_endproc
.LFE25:
	.size	CAN_Get_Acceptance_Mask, .-CAN_Get_Acceptance_Mask
	.section .text$CAN_Transmit_Message_Configuration
	.type	.text$CAN_Transmit_Message_Configuration$scode_local_26, @function
	.text$CAN_Transmit_Message_Configuration$scode_local_26:
	.align	1
	.export	CAN_Transmit_Message_Configuration
	.type	CAN_Transmit_Message_Configuration, @function
CAN_Transmit_Message_Configuration:
.LFB26:
.LM191:
	.cfi_startproc
.LVL100:
.LM192:
	LD.w	r5,[r1]
.LVL101:
.LM193:
	LD.w	r2,[r0+#8]
.LVL102:
.LM194:
	MOV	r4,#7
	LSL	r3,r5,r4
.LM195:
	LD.w	r4,[r1+#1]
	LSL	r4,#6
	ORL	r3,r3,r4
.LM196:
	LD.w	r4,[r1+#2]
	ORL	r3,r3,r4
.LVL103:
.LBB68:
.LBB69:
.LM197:
	MOV	r4,#207
	NOT	r4,r4
	ANL	r4,r2,r4
	ORL	r4,r3,r4
.LBE69:
.LBE68:
.LM198:
	ST.w	[r0+#8],r4
.LM199:
	CMP	r5,#1
	JZ	.L50
.LVL104:
.LM200:
	LD.w	r3,[r0+#9]
.LVL105:
.LM201:
	LD.b	r4,[r1+#21]
.LM202:
	LD.w	r5,[r1+#3]
.LVL106:
	LSL	r5,#21
.LM203:
	ORL	r4,r4,r5
.LBB70:
.LBB71:
.LM204:
	LD	r5,#2031616
	ANL	r5,r3,r5
.LBE71:
.LBE70:
.LM205:
	ORL	r5,r4,r5
.LM206:
	LD.b	r4,[r1+#20]
	LSL	r4,#8
.LBB73:
.LBB72:
.LM207:
	ORL	r5,r5,r4
.LBE72:
.LBE73:
.LM208:
	ST.w	[r0+#9],r5
.LM209:
	LD.b	r4,[r1+#22]
	LSL	r4,#24
.LM210:
	LD.b	r5,[r1+#23]
	LSL	r5,#16
	ORL	r5,r4,r5
.LM211:
	LD.b	r4,[r1+#25]
.LM212:
	ORL	r5,r5,r4
	LD.b	r4,[r1+#24]
	LSL	r4,#8
.LM213:
	ORL	r5,r5,r4
.LVL107:
.LM214:
	ST.w	[r0+#10],r5
.LVL108:
.LM215:
	LD.w	r4,[r0+#11]
.LVL109:
.LM216:
	LD.b	r3,[r1+#26]
.LVL110:
	LSL	r3,#24
.LM217:
	LD.b	r5,[r1+#27]
	LSL	r5,#16
.LM218:
	ORL	r5,r3,r5
.LVL111:
.LBB74:
.LBB75:
.LM219:
	ZXT.h	r4,r4
.LVL112:
	ORL	r5,r5,r4
.LVL113:
.LBE75:
.LBE74:
.LM220:
	ST.w	[r0+#11],r5
.LM221:
	JMP	lr
.LVL114:
.L50:
.LM222:
	LD.w	r4,[r0+#9]
.LVL115:
.LBB76:
.LBB77:
.LM223:
	MOV	r5,#7
	ANL	r5,r4,r5
.LBE77:
.LBE76:
.LM224:
	LD.w	r4,[r1+#4]
.LVL116:
	LSL	r4,#3
.LVL117:
.LBB79:
.LBB78:
.LM225:
	ORL	r5,r5,r4
.LBE78:
.LBE79:
.LM226:
	ST.w	[r0+#9],r5
.LM227:
	LD.b	r4,[r1+#20]
.LVL118:
	LSL	r4,#24
.LM228:
	LD.b	r5,[r1+#21]
	LSL	r5,#16
	ORL	r5,r4,r5
.LM229:
	LD.b	r4,[r1+#23]
.LM230:
	ORL	r5,r5,r4
	LD.b	r4,[r1+#22]
	LSL	r4,#8
.LM231:
	ORL	r5,r5,r4
.LVL119:
.LM232:
	ST.w	[r0+#10],r5
.LM233:
	LD.b	r4,[r1+#24]
	LSL	r4,#24
.LM234:
	LD.b	r5,[r1+#25]
.LVL120:
	LSL	r5,#16
	ORL	r5,r4,r5
.LM235:
	LD.b	r4,[r1+#27]
.LM236:
	ORL	r5,r5,r4
	LD.b	r4,[r1+#26]
	LSL	r4,#8
.LM237:
	ORL	r5,r5,r4
.LVL121:
.LM238:
	ST.w	[r0+#11],r5
.LM239:
	JMP	lr
	.cfi_endproc
.LFE26:
	.size	CAN_Transmit_Message_Configuration, .-CAN_Transmit_Message_Configuration
	.section .text$CAN_Receive_Message_Configuration
	.type	.text$CAN_Receive_Message_Configuration$scode_local_27, @function
	.text$CAN_Receive_Message_Configuration$scode_local_27:
	.align	1
	.export	CAN_Receive_Message_Configuration
	.type	CAN_Receive_Message_Configuration, @function
CAN_Receive_Message_Configuration:
.LFB27:
.LM240:
	.cfi_startproc
.LVL122:
	PUSH	r6
	.cfi_def_cfa_offset 4
	SUB	sp,#8
	.cfi_def_cfa_offset 12
.LVL123:
.LM241:
	MOV	r5,#1
	ST.b	[sp],r5
	MOV	r5,#0
	ST.b	[sp+#1],r5
	MOV	r4,#7
	ST.b	[sp+#2],r4
	MOV	r4,#6
	ST.b	[sp+#3],r4
	MOV	r4,#5
	ST.b	[sp+#4],r4
	MOV	r4,#4
	ST.b	[sp+#5],r4
	MOV	r4,#11
	ST.b	[sp+#6],r4
	MOV	r4,#10
	ST.b	[sp+#7],r4
.LVL124:
.LM242:
	LD	r4,#1073746176
	CMP	r0,r4
	JZ	.L66
	LD	r4,#1073746304
	CMP	r0,r4
	JZ	.L76
.LVL125:
.L54:
.LM243:
	ADD	r0,r5,r1
.LVL126:
.LM244:
	LD.w	r5,[r5+r1]
.LVL127:
.LM245:
	MOV	r3,#128
	ANL	r3,r5,r3
	LSR	r3,#7
.LVL128:
.LM246:
	ST.w	[r2],r3
.LM247:
	MOV	r4,#64
	ANL	r4,r5,r4
	LSR	r4,#6
.LVL129:
.LM248:
	ST.w	[r2+#1],r4
.LM249:
	MOV	r1,#15
.LVL130:
	ANL	r1,r5,r1
.LVL131:
.LM250:
	ST.w	[r2+#2],r1
.LM251:
	CMP	r4,#0
	JNZ	.L52
.LM252:
	CMP	r3,#1
	JZ	.L57
.LM253:
	ADD	r3,r0,#4
.LVL132:
.LM254:
	LD.w	r5,[r0+#1]
.LVL133:
.LM255:
	LSR	r5,#21
.LVL134:
.LM256:
	ST.w	[r2+#3],r5
.LM257:
	CMP	r1,#0
	JZ	.L52
.LM258:
	ADD	r2,#20
.LVL135:
	MOV	r4,sp
	ADD	r5,r4,#1
.LVL136:
	ADD	r1,sp
	MOV	r4,#1
	JMP	.L61
.LVL137:
.L77:
	LD.b	r4,[r5++]
.L61:
.LM259:
	LD.b	r4,[r3+r4]
.LM260:
	ST.b	[r2++],r4
.LM261:
	CMP	r5,r1
	JNZ	.L77
.LVL138:
.L52:
.LM262:
	ADD	sp,#8
	.cfi_remember_state
	.cfi_def_cfa_offset 4
	POP	r6
	.cfi_def_cfa_offset 0
	JMP	lr
.LVL139:
.L76:
	.cfi_restore_state
.LM263:
	LD	r5,#536803584
.LM264:
	JMP	.L54
.LVL140:
.L66:
.LM265:
	LD	r5,#536803328
	JMP	.L54
.LVL141:
.L57:
.LM266:
	LD.w	r5,[r0+#1]
.LVL142:
.LM267:
	LSR	r5,#3
.LVL143:
.LM268:
	ST.w	[r2+#4],r5
.LVL144:
.LM269:
	CMP	r1,#3
	JHI	.L62
.LM270:
	CMP	r1,#0
	JZ	.L52
	ADD	r0,#11
.LVL145:
.L63:
.LM271:
	SUB	r5,r0,r4
.LM272:
	LD.b	r3,[r5]
.LM273:
	ADD	r5,r2,r4
.LM274:
	ST.b	[r5+#20],r3
.LM275:
	ADD	r4,r4,#1
.LVL146:
	CMP	r4,r1
	JNZ	.L63
	JMP	.L52
.LVL147:
.L62:
	MOV	r5,#11
.LVL148:
	ADD	r6,r0,r5
.LVL149:
.L64:
.LM276:
	SUB	r5,r6,r4
.LM277:
	LD.b	r3,[r5]
.LM278:
	ADD	r5,r2,r4
.LM279:
	ST.b	[r5+#20],r3
.LM280:
	ADD	r4,r4,#1
.LVL150:
	CMP	r4,#4
	JNZ	.L64
.LVL151:
.LM281:
	CMP	r1,#4
	JZ	.L52
	MOV	r5,#15
	ADD	r4,r0,r5
.LM282:
	ADD	r2,#24
.LVL152:
	ADD	r0,#19
.LVL153:
	SUB	r1,r0,r1
.LVL154:
.L65:
.LM283:
	LD.b	r3,[r4]
.LM284:
	ST.b	[r2++],r3
	SUB	r4,r4,#1
.LM285:
	CMP	r4,r1
	JNZ	.L65
	JMP	.L52
	.cfi_endproc
.LFE27:
	.size	CAN_Receive_Message_Configuration, .-CAN_Receive_Message_Configuration
	.section .text$CAN_Receive_Message_Configuration_From_Register
	.type	.text$CAN_Receive_Message_Configuration_From_Register$scode_local_28, @function
	.text$CAN_Receive_Message_Configuration_From_Register$scode_local_28:
	.align	1
	.export	CAN_Receive_Message_Configuration_From_Register
	.type	CAN_Receive_Message_Configuration_From_Register, @function
CAN_Receive_Message_Configuration_From_Register:
.LFB28:
.LM286:
	.cfi_startproc
.LVL155:
	PUSH	r6
	.cfi_def_cfa_offset 4
	SUB	sp,#24
	.cfi_def_cfa_offset 28
.LVL156:
.LM287:
	MOV	r5,sp
	ADD	r5,#16
	MOV	r4,#1
	ST.b	[sp+#16],r4
	MOV	r4,#0
	ST.b	[r5+#1],r4
	MOV	r4,#7
	ST.b	[r5+#2],r4
	MOV	r4,#6
	ST.b	[r5+#3],r4
	MOV	r4,#5
	ST.b	[r5+#4],r4
	MOV	r4,#4
	ST.b	[r5+#5],r4
	MOV	r4,#11
	ST.b	[r5+#6],r4
	MOV	r4,#10
	ST.b	[r5+#7],r4
.LVL157:
.LM288:
	LD.w	r4,[r0+#12]
	ST.w	[sp],r4
.LM289:
	LD.w	r6,[r0+#13]
	ST.w	[sp+#1],r6
.LM290:
	LD.w	r3,[r0+#14]
	ST.w	[sp+#2],r3
.LM291:
	LD.w	r0,[r0+#15]
.LVL158:
	ST.w	[sp+#3],r0
.LM292:
	MOV	r0,#128
	ANL	r0,r4,r0
	LSR	r0,#7
	ST.w	[r1],r0
.LM293:
	MOV	r2,#64
	ANL	r2,r4,r2
	LSR	r2,#6
	ST.w	[r1+#1],r2
.LM294:
	MOV	r3,#15
	ANL	r3,r4,r3
	ST.w	[r1+#2],r3
.LM295:
	CMP	r0,#1
	JZ	.L79
.LM296:
	LSR	r6,#21
	ST.w	[r1+#3],r6
.LM297:
	CMP	r2,#0
	JZ	.L101
.LVL159:
.L78:
.LM298:
	ADD	sp,#24
	.cfi_remember_state
	.cfi_def_cfa_offset 4
	POP	r6
	.cfi_def_cfa_offset 0
	JMP	lr
.LVL160:
.L101:
	.cfi_restore_state
.LM299:
	CMP	r3,#8
	JHI	.L90
.LM300:
	CMP	r3,#0
	JZ	.L78
.L81:
.LVL161:
.LM301:
	MOV	r4,sp
	ADD	r0,r4,#4
.LVL162:
.LM302:
	ADD	r1,#20
.LVL163:
	MOV	r2,#1
.LM303:
	MOV	r4,#0
	JMP	.L84
.LVL164:
.L102:
	LD.b	r2,[r5+r4]
.LVL165:
.L84:
.LM304:
	LD.b	r2,[r2+r0]
.LM305:
	ST.b	[r1++],r2
.LM306:
	ADD	r4,r4,#1
.LVL166:
	CMP	r3,r4
	JHI	.L102
.LM307:
	ADD	sp,#24
	.cfi_remember_state
	.cfi_def_cfa_offset 4
	POP	r6
	.cfi_def_cfa_offset 0
	JMP	lr
.LVL167:
.L79:
	.cfi_restore_state
.LM308:
	LSR	r6,#3
	ST.w	[r1+#4],r6
.LM309:
	CMP	r2,#0
	JNZ	.L78
.LM310:
	CMP	r3,#8
	JHI	.L91
.LM311:
	CMP	r3,#0
	JZ	.L78
.L85:
.LVL168:
.LM312:
	ADD	r1,#20
.LVL169:
.LM313:
	MOV	r5,#0
.LM314:
	MOV	r0,sp
	ADD	r0,#19
	MOV	r2,sp
	ADD	r2,#11
.LM315:
	CMP	r5,#3
	JHI	.L86
.LVL170:
.L103:
.LM316:
	SUB	r4,r2,r5
.LM317:
	LD.b	r4,[r4]
.LM318:
	ST.b	[r1],r4
.L87:
.LM319:
	ADD	r5,r5,#1
.LVL171:
	ADD	r1,r1,#1
	CMP	r3,r5
	JLS	.L78
.LM320:
	CMP	r5,#3
	JLS	.L103
.LVL172:
.L86:
.LM321:
	SUB	r4,r0,r5
.LM322:
	LD.b	r4,[r4]
.LM323:
	ST.b	[r1],r4
	JMP	.L87
.LVL173:
.L90:
.LM324:
	MOV	r3,#8
	JMP	.L81
.L91:
.LM325:
	MOV	r3,#8
	JMP	.L85
	.cfi_endproc
.LFE28:
	.size	CAN_Receive_Message_Configuration_From_Register, .-CAN_Receive_Message_Configuration_From_Register
	.section .text$CAN_Message_Struct_Init
	.type	.text$CAN_Message_Struct_Init$scode_local_29, @function
	.text$CAN_Message_Struct_Init$scode_local_29:
	.align	1
	.export	CAN_Message_Struct_Init
	.type	CAN_Message_Struct_Init, @function
CAN_Message_Struct_Init:
.LFB29:
.LM326:
	.cfi_startproc
.LVL174:
.LM327:
	MOV	r5,#0
	ST.w	[r0],r5
.LM328:
	ST.w	[r0+#1],r5
.LM329:
	ST.w	[r0+#2],r5
.LM330:
	ST.w	[r0+#3],r5
.LM331:
	ST.w	[r0+#4],r5
.LM332:
	ST.b	[r0+#20],r5
.LVL175:
	ST.b	[r0+#21],r5
.LVL176:
	ST.b	[r0+#22],r5
.LVL177:
	ST.b	[r0+#23],r5
.LVL178:
	ST.b	[r0+#24],r5
.LVL179:
	ST.b	[r0+#25],r5
.LVL180:
	ST.b	[r0+#26],r5
.LVL181:
	ST.b	[r0+#27],r5
.LVL182:
.LM333:
	JMP	lr
	.cfi_endproc
.LFE29:
	.size	CAN_Message_Struct_Init, .-CAN_Message_Struct_Init
	.section .text$CAN_Clear_Buffer_Overflow_Flag
	.type	.text$CAN_Clear_Buffer_Overflow_Flag$scode_local_30, @function
	.text$CAN_Clear_Buffer_Overflow_Flag$scode_local_30:
	.align	1
	.export	CAN_Clear_Buffer_Overflow_Flag
	.type	CAN_Clear_Buffer_Overflow_Flag, @function
CAN_Clear_Buffer_Overflow_Flag:
.LFB30:
.LM334:
	.cfi_startproc
.LVL183:
.LM335:
// inline asm begin
	// 1156 "../Peripherals/src/kf32f_basic_can.c" 1
	SET [r0], #10
	// 0 "" 2
.LM336:
// inline asm end
	MOV	r4,#1
	LSL	r4,#16
.L106:
.LM337:
	LD.w	r5,[r0]
	ANL	r5,r5,r4
	JZ	.L106
.LM338:
// inline asm begin
	// 1158 "../Peripherals/src/kf32f_basic_can.c" 1
	CLR [r0], #10
	// 0 "" 2
.LM339:
	// 1160 "../Peripherals/src/kf32f_basic_can.c" 1
	SET [r0], #11
	// 0 "" 2
.LM340:
// inline asm end
	MOV	r4,#1
	LSL	r4,#17
.L107:
.LM341:
	LD.w	r5,[r0]
	ANL	r5,r5,r4
	JNZ	.L107
.LM342:
// inline asm begin
	// 1162 "../Peripherals/src/kf32f_basic_can.c" 1
	CLR [r0], #11
	// 0 "" 2
.LM343:
// inline asm end
	JMP	lr
	.cfi_endproc
.LFE30:
	.size	CAN_Clear_Buffer_Overflow_Flag, .-CAN_Clear_Buffer_Overflow_Flag
	.section .text$CAN_Release_Receive_Buffer
	.type	.text$CAN_Release_Receive_Buffer$scode_local_31, @function
	.text$CAN_Release_Receive_Buffer$scode_local_31:
	.align	1
	.export	CAN_Release_Receive_Buffer
	.type	CAN_Release_Receive_Buffer, @function
CAN_Release_Receive_Buffer:
.LFB31:
.LM344:
	.cfi_startproc
.LVL184:
.LM345:
	CMP	r1,#0
	JZ	.L113
.LM346:
	LD.w	r4,[r0]
	LD	r3,#520093696
	ANL	r4,r4,r3
	LSR	r4,#24
.LVL185:
.LM347:
	CMP	r4,#0
	JZ	.L113
	MOV	r2,#0
.LVL186:
.L115:
.LM348:
// inline asm begin
	// 1188 "../Peripherals/src/kf32f_basic_can.c" 1
	SET [r0], #10
	// 0 "" 2
// inline asm end
.L116:
.LM349:
	LD.w	r5,[r0]
	ANL	r5,r5,r3
	LSR	r5,#24
	SUB	r5,r4,r5
	CMP	r5,#1
	JNZ	.L116
.LM350:
// inline asm begin
	// 1190 "../Peripherals/src/kf32f_basic_can.c" 1
	CLR [r0], #10
	// 0 "" 2
.LM351:
// inline asm end
	ADD	r2,r2,#1
.LVL187:
	CMP	r2,r1
	JZ	.L113
.LM352:
	LD.w	r4,[r0]
	ANL	r4,r4,r3
	LSR	r4,#24
.LM353:
	CMP	r4,#0
	JNZ	.L115
.LVL188:
.L113:
.LM354:
	JMP	lr
	.cfi_endproc
.LFE31:
	.size	CAN_Release_Receive_Buffer, .-CAN_Release_Receive_Buffer
	.section .text$CAN_Transmit_Single
	.type	.text$CAN_Transmit_Single$scode_local_32, @function
	.text$CAN_Transmit_Single$scode_local_32:
	.align	1
	.export	CAN_Transmit_Single
	.type	CAN_Transmit_Single, @function
CAN_Transmit_Single:
.LFB32:
.LM355:
	.cfi_startproc
.LVL189:
	SUB	sp,#4
	.cfi_def_cfa_offset 4
.LM356:
	MOV	r5,#20
	ST.b	[sp],r5
.LVL190:
.LM357:
	LD.w	r5,[r0]
	SET	r5,#8
	SET	r5,#9
	ST.w	[r0],r5
.LM358:
	LD.w	r5,[r0]
.L129:
.LM359:
	LD.b	r5,[sp]
.LVL191:
	SUB	r4,r5,#1
	ZXT.b	r4,r4
.LVL192:
	ST.b	[sp],r4
	CMP	r5,#0
	JNZ	.L129
.LM360:
// inline asm begin
	// 1213 "../Peripherals/src/kf32f_basic_can.c" 1
	CLR [r0], #9
	// 0 "" 2
.LM361:
	// 1214 "../Peripherals/src/kf32f_basic_can.c" 1
	CLR [r0], #8
	// 0 "" 2
.LM362:
// inline asm end
	ADD	sp,#4
	.cfi_def_cfa_offset 0
	JMP	lr
	.cfi_endproc
.LFE32:
	.size	CAN_Transmit_Single, .-CAN_Transmit_Single
	.section .text$CAN_Transmit_Repeat
	.type	.text$CAN_Transmit_Repeat$scode_local_33, @function
	.text$CAN_Transmit_Repeat$scode_local_33:
	.align	1
	.export	CAN_Transmit_Repeat
	.type	CAN_Transmit_Repeat, @function
CAN_Transmit_Repeat:
.LFB33:
.LM363:
	.cfi_startproc
.LVL193:
.LM364:
// inline asm begin
	// 1231 "../Peripherals/src/kf32f_basic_can.c" 1
	CLR [r0], #9
	// 0 "" 2
.LM365:
	// 1232 "../Peripherals/src/kf32f_basic_can.c" 1
	CLR [r0], #8
	// 0 "" 2
.LM366:
	// 1233 "../Peripherals/src/kf32f_basic_can.c" 1
	SET [r0], #8
	// 0 "" 2
.LM367:
// inline asm end
	MOV	r4,#1
	LSL	r4,#21
.L132:
.LM368:
	LD.w	r5,[r0]
	ANL	r5,r5,r4
	JZ	.L132
.LM369:
// inline asm begin
	// 1235 "../Peripherals/src/kf32f_basic_can.c" 1
	CLR [r0], #8
	// 0 "" 2
.LM370:
// inline asm end
	JMP	lr
	.cfi_endproc
.LFE33:
	.size	CAN_Transmit_Repeat, .-CAN_Transmit_Repeat
	.section .text$CAN_Frame_Format_Config
	.type	.text$CAN_Frame_Format_Config$scode_local_34, @function
	.text$CAN_Frame_Format_Config$scode_local_34:
	.align	1
	.export	CAN_Frame_Format_Config
	.type	CAN_Frame_Format_Config, @function
CAN_Frame_Format_Config:
.LFB34:
.LM371:
	.cfi_startproc
.LVL194:
.LM372:
	ADD	r0,#32
.LVL195:
.LM373:
	CMP	r1,#0
	JNZ	.L140
.LM374:
// inline asm begin
	// 1263 "../Peripherals/src/kf32f_basic_can.c" 1
	CLR [r0], #7
	// 0 "" 2
.LM375:
// inline asm end
	JMP	lr
.L140:
.LM376:
// inline asm begin
	// 1258 "../Peripherals/src/kf32f_basic_can.c" 1
	SET [r0], #7
	// 0 "" 2
.LM377:
// inline asm end
	JMP	lr
	.cfi_endproc
.LFE34:
	.size	CAN_Frame_Format_Config, .-CAN_Frame_Format_Config
	.section .text$CAN_Remote_Request_Config
	.type	.text$CAN_Remote_Request_Config$scode_local_35, @function
	.text$CAN_Remote_Request_Config$scode_local_35:
	.align	1
	.export	CAN_Remote_Request_Config
	.type	CAN_Remote_Request_Config, @function
CAN_Remote_Request_Config:
.LFB35:
.LM378:
	.cfi_startproc
.LVL196:
.LM379:
	ADD	r0,#32
.LVL197:
.LM380:
	CMP	r1,#0
	JNZ	.L144
.LM381:
// inline asm begin
	// 1291 "../Peripherals/src/kf32f_basic_can.c" 1
	CLR [r0], #6
	// 0 "" 2
.LM382:
// inline asm end
	JMP	lr
.L144:
.LM383:
// inline asm begin
	// 1286 "../Peripherals/src/kf32f_basic_can.c" 1
	SET [r0], #6
	// 0 "" 2
.LM384:
// inline asm end
	JMP	lr
	.cfi_endproc
.LFE35:
	.size	CAN_Remote_Request_Config, .-CAN_Remote_Request_Config
	.section .text$CAN_Data_Length_Config
	.type	.text$CAN_Data_Length_Config$scode_local_36, @function
	.text$CAN_Data_Length_Config$scode_local_36:
	.align	1
	.export	CAN_Data_Length_Config
	.type	CAN_Data_Length_Config, @function
CAN_Data_Length_Config:
.LFB36:
.LM385:
	.cfi_startproc
.LVL198:
.LM386:
	LD.w	r4,[r0+#3]
.LVL199:
.LBB80:
.LBB81:
.LM387:
	MOV	r5,#15
	NOT	r5,r5
	ANL	r5,r4,r5
	ORL	r1,r1,r5
.LVL200:
.LBE81:
.LBE80:
.LM388:
	ST.w	[r0+#3],r1
.LM389:
	JMP	lr
	.cfi_endproc
.LFE36:
	.size	CAN_Data_Length_Config, .-CAN_Data_Length_Config
	.section .text$CAN_Identification_Code_Config
	.type	.text$CAN_Identification_Code_Config$scode_local_37, @function
	.text$CAN_Identification_Code_Config$scode_local_37:
	.align	1
	.export	CAN_Identification_Code_Config
	.type	CAN_Identification_Code_Config, @function
CAN_Identification_Code_Config:
.LFB37:
.LM390:
	.cfi_startproc
.LVL201:
.LM391:
	LD.w	r4,[r0+#9]
.LM392:
	CMP	r1,#0
	JNZ	.L149
.LVL202:
.LM393:
	LSL	r2,#21
.LVL203:
.LBB82:
.LBB83:
.LM394:
	LD	r5,#2097151
	ANL	r5,r4,r5
	ORL	r2,r2,r5
.LVL204:
.LBE83:
.LBE82:
.LM395:
	ST.w	[r0+#9],r2
.LM396:
	JMP	lr
.LVL205:
.L149:
.LM397:
	LSL	r2,#3
.LVL206:
.LBB84:
.LBB85:
.LM398:
	MOV	r5,#7
	ANL	r5,r4,r5
	ORL	r2,r2,r5
.LVL207:
.LBE85:
.LBE84:
.LM399:
	ST.w	[r0+#9],r2
.LM400:
	JMP	lr
	.cfi_endproc
.LFE37:
	.size	CAN_Identification_Code_Config, .-CAN_Identification_Code_Config
	.section .text$CAN_Get_INT_Flag
	.type	.text$CAN_Get_INT_Flag$scode_local_38, @function
	.text$CAN_Get_INT_Flag$scode_local_38:
	.align	1
	.export	CAN_Get_INT_Flag
	.type	CAN_Get_INT_Flag, @function
CAN_Get_INT_Flag:
.LFB38:
.LM401:
	.cfi_startproc
.LVL208:
.LM402:
	LD.w	r5,[r0+#7]
	ANL	r1,r1,r5
.LVL209:
	MOV	r5,#0
	SUB	r5,r5,r1
	ORL	r0,r5,r1
.LVL210:
.LM403:
	LSR	r0,#31
	JMP	lr
	.cfi_endproc
.LFE38:
	.size	CAN_Get_INT_Flag, .-CAN_Get_INT_Flag
	.section .text$CAN_Clear_INT_Flag
	.type	.text$CAN_Clear_INT_Flag$scode_local_39, @function
	.text$CAN_Clear_INT_Flag$scode_local_39:
	.align	1
	.export	CAN_Clear_INT_Flag
	.type	CAN_Clear_INT_Flag, @function
CAN_Clear_INT_Flag:
.LFB39:
.LM404:
	.cfi_startproc
.LVL211:
.LM405:
	LD.w	r5,[r0+#6]
	MOV	r3,#16
	LSL	r4,r1,r3
	ORL	r5,r4,r5
	ST.w	[r0+#6],r5
.L152:
.LM406:
	LD.w	r5,[r0+#7]
	ANL	r5,r1,r5
	JNZ	.L152
.LM407:
	LD.w	r5,[r0+#6]
	NOT	r4,r4
	ANL	r4,r4,r5
	ST.w	[r0+#6],r4
.LM408:
	JMP	lr
	.cfi_endproc
.LFE39:
	.size	CAN_Clear_INT_Flag, .-CAN_Clear_INT_Flag
	.section .text$CAN_Set_INT_Enable
	.type	.text$CAN_Set_INT_Enable$scode_local_40, @function
	.text$CAN_Set_INT_Enable$scode_local_40:
	.align	1
	.export	CAN_Set_INT_Enable
	.type	CAN_Set_INT_Enable, @function
CAN_Set_INT_Enable:
.LFB40:
.LM409:
	.cfi_startproc
.LVL212:
.LM410:
	LD.w	r5,[r0+#6]
.LM411:
	CMP	r2,#0
	JNZ	.L157
.LM412:
	NOT	r1,r1
.LVL213:
	ANL	r1,r1,r5
.LVL214:
	ST.w	[r0+#6],r1
.LM413:
	JMP	lr
.LVL215:
.L157:
.LM414:
	ORL	r1,r1,r5
.LVL216:
	ST.w	[r0+#6],r1
.LM415:
	JMP	lr
	.cfi_endproc
.LFE40:
	.size	CAN_Set_INT_Enable, .-CAN_Set_INT_Enable
	.text	
.Letext0: