	.file	"kf32f_basic_spi.c"
	.text	
.Ltext0:
	.cfi_sections	.debug_frame
	.section .text$SPI_Reset
	.type	.text$SPI_Reset$scode_local_1, @function
	.text$SPI_Reset$scode_local_1:
	.align	1
	.export	SPI_Reset
	.type	SPI_Reset, @function
SPI_Reset:
.LFB1:
.LM1:
	.cfi_startproc
.LVL0:
	PUSH	lr
	.cfi_def_cfa_offset 4
.LM2:
	LD	r5,#1073744896
	CMP	r0,r5
	JZ	.L6
.LM3:
	LD	r5,#1073745024
	CMP	r0,r5
	JZ	.L7
.LM4:
	LD	r5,#1073750144
	CMP	r0,r5
	JZ	.L8
.LVL1:
.L1:
.LM5:
	POP	lr
	.cfi_remember_state
	.cfi_def_cfa_offset 0
	JMP	lr
.LVL2:
.L8:
	.cfi_restore_state
.LM6:
	MOV	r0,#2
.LVL3:
	MOV	r1,#1
	LJMP	RST_CTL3_Peripheral_Reset_Enable
.LVL4:
.LM7:
	MOV	r0,#2
	MOV	r1,#0
	LJMP	RST_CTL3_Peripheral_Reset_Enable
.LVL5:
.LM8:
	MOV	r0,#2
	MOV	r1,#1
	LJMP	PCLK_CTL3_Peripheral_Clock_Enable
.LVL6:
.LM9:
	POP	lr
	.cfi_remember_state
	.cfi_def_cfa_offset 0
	JMP	lr
.LVL7:
.L6:
	.cfi_restore_state
.LM10:
	MOV	r0,#1
.LVL8:
	LSL	r0,#24
	MOV	r1,#1
	LJMP	RST_CTL1_Peripheral_Reset_Enable
.LVL9:
.LM11:
	MOV	r0,#1
	LSL	r0,#24
	MOV	r1,#0
	LJMP	RST_CTL1_Peripheral_Reset_Enable
.LVL10:
.LM12:
	MOV	r0,#1
	LSL	r0,#24
	MOV	r1,#1
	LJMP	PCLK_CTL1_Peripheral_Clock_Enable
.LVL11:
	JMP	.L1
.LVL12:
.L7:
.LM13:
	MOV	r0,#1
.LVL13:
	LSL	r0,#25
	MOV	r1,#1
	LJMP	RST_CTL1_Peripheral_Reset_Enable
.LVL14:
.LM14:
	MOV	r0,#1
	LSL	r0,#25
	MOV	r1,#0
	LJMP	RST_CTL1_Peripheral_Reset_Enable
.LVL15:
.LM15:
	MOV	r0,#1
	LSL	r0,#25
	MOV	r1,#1
	LJMP	PCLK_CTL1_Peripheral_Clock_Enable
.LVL16:
	JMP	.L1
	.cfi_endproc
.LFE1:
	.size	SPI_Reset, .-SPI_Reset
	.section .text$SPI_Configuration
	.type	.text$SPI_Configuration$scode_local_2, @function
	.text$SPI_Configuration$scode_local_2:
	.align	1
	.export	SPI_Configuration
	.type	SPI_Configuration, @function
SPI_Configuration:
.LFB2:
.LM16:
	.cfi_startproc
.LVL17:
.LM17:
	LD.w	r3,[r0+#1]
.LVL18:
.LM18:
	LD.w	r2,[r1+#1]
	LD.w	r5,[r1]
	ORL	r4,r2,r5
.LM19:
	LD.w	r2,[r1+#2]
	ORL	r4,r4,r2
.LM20:
	LD.w	r5,[r1+#3]
	ORL	r4,r4,r5
.LM21:
	LD.w	r2,[r1+#4]
	ORL	r4,r4,r2
.LM22:
	LD.w	r5,[r1+#5]
	ORL	r4,r4,r5
.LVL19:
.LBB24:
.LBB25:
.LM23:
	LD	r5,#-13183
	ANL	r5,r3,r5
	ORL	r5,r4,r5
.LBE25:
.LBE24:
.LM24:
	ST.w	[r0+#1],r5
.LVL20:
.LM25:
	LD.w	r4,[r0]
.LVL21:
.LBB26:
.LBB27:
.LM26:
	LD	r5,#-65536
	ANL	r5,r4,r5
.LBE27:
.LBE26:
.LM27:
	LD.h	r4,[r1+#12]
.LVL22:
.LBB29:
.LBB28:
.LM28:
	ORL	r5,r5,r4
.LBE28:
.LBE29:
.LM29:
	ST.w	[r0],r5
.LM30:
	JMP	lr
	.cfi_endproc
.LFE2:
	.size	SPI_Configuration, .-SPI_Configuration
	.section .text$I2S_Configuration
	.type	.text$I2S_Configuration$scode_local_3, @function
	.text$I2S_Configuration$scode_local_3:
	.align	1
	.export	I2S_Configuration
	.type	I2S_Configuration, @function
I2S_Configuration:
.LFB3:
.LM31:
	.cfi_startproc
.LVL23:
.LM32:
	LD.w	r3,[r0+#1]
.LVL24:
.LM33:
	LD.w	r2,[r1+#1]
	LD.w	r5,[r1]
	ORL	r4,r2,r5
.LM34:
	LD.w	r2,[r1+#2]
	ORL	r4,r4,r2
.LM35:
	LD.w	r5,[r1+#3]
	ORL	r4,r4,r5
.LM36:
	LD.w	r2,[r1+#4]
	ORL	r4,r4,r2
.LVL25:
.LBB30:
.LBB31:
.LM37:
	LD	r5,#-267386881
	ANL	r5,r3,r5
	ORL	r5,r4,r5
.LBE31:
.LBE30:
.LM38:
	ST.w	[r0+#1],r5
.LVL26:
.LM39:
	LD.w	r3,[r0]
.LVL27:
.LM40:
	LD.b	r4,[r1+#20]
.LVL28:
	LSL	r4,#16
.LVL29:
.LBB32:
.LBB33:
.LM41:
	LD	r5,#-16711681
	ANL	r5,r3,r5
	ORL	r5,r4,r5
.LBE33:
.LBE32:
.LM42:
	ST.w	[r0],r5
.LM43:
	JMP	lr
	.cfi_endproc
.LFE3:
	.size	I2S_Configuration, .-I2S_Configuration
	.section .text$SPI_Struct_Init
	.type	.text$SPI_Struct_Init$scode_local_4, @function
	.text$SPI_Struct_Init$scode_local_4:
	.align	1
	.export	SPI_Struct_Init
	.type	SPI_Struct_Init, @function
SPI_Struct_Init:
.LFB4:
.LM44:
	.cfi_startproc
.LVL30:
.LM45:
	MOV	r5,#8
	ST.w	[r0],r5
.LM46:
	MOV	r5,#16
	ST.w	[r0+#1],r5
.LM47:
	MOV	r5,#64
	ST.w	[r0+#2],r5
.LM48:
	MOV	r5,#0
	ST.w	[r0+#3],r5
.LM49:
	ST.w	[r0+#4],r5
.LM50:
	ST.w	[r0+#5],r5
.LM51:
	ST.h	[r0+#12],r5
.LM52:
	JMP	lr
	.cfi_endproc
.LFE4:
	.size	SPI_Struct_Init, .-SPI_Struct_Init
	.section .text$I2S_Struct_Init
	.type	.text$I2S_Struct_Init$scode_local_5, @function
	.text$I2S_Struct_Init$scode_local_5:
	.align	1
	.export	I2S_Struct_Init
	.type	I2S_Struct_Init, @function
I2S_Struct_Init:
.LFB5:
.LM53:
	.cfi_startproc
.LVL31:
.LM54:
	MOV	r5,#0
	ST.w	[r0],r5
.LM55:
	ST.w	[r0+#1],r5
.LM56:
	MOV	r4,#1
	LSL	r4,#24
	ST.w	[r0+#2],r4
.LM57:
	ST.w	[r0+#3],r5
.LM58:
	ST.w	[r0+#4],r5
.LM59:
	ST.b	[r0+#20],r5
.LM60:
	JMP	lr
	.cfi_endproc
.LFE5:
	.size	I2S_Struct_Init, .-I2S_Struct_Init
	.section .text$SPI_Cmd
	.type	.text$SPI_Cmd$scode_local_6, @function
	.text$SPI_Cmd$scode_local_6:
	.align	1
	.export	SPI_Cmd
	.type	SPI_Cmd, @function
SPI_Cmd:
.LFB6:
.LM61:
	.cfi_startproc
.LVL32:
.LM62:
	ADD	r0,r0,#4
.LVL33:
.LM63:
	CMP	r1,#0
	JNZ	.L16
.LM64:
// inline asm begin
	// 238 "../Peripherals/src/kf32f_basic_spi.c" 1
	CLR [r0], #0
	// 0 "" 2
.LM65:
// inline asm end
	JMP	lr
.L16:
.LM66:
// inline asm begin
	// 233 "../Peripherals/src/kf32f_basic_spi.c" 1
	SET [r0], #0
	// 0 "" 2
.LM67:
// inline asm end
	JMP	lr
	.cfi_endproc
.LFE6:
	.size	SPI_Cmd, .-SPI_Cmd
	.section .text$I2S_Mode_Select
	.type	.text$I2S_Mode_Select$scode_local_7, @function
	.text$I2S_Mode_Select$scode_local_7:
	.align	1
	.export	I2S_Mode_Select
	.type	I2S_Mode_Select, @function
I2S_Mode_Select:
.LFB7:
.LM68:
	.cfi_startproc
.LVL34:
.LM69:
	ADD	r0,r0,#4
.LVL35:
.LM70:
	CMP	r1,#0
	JNZ	.L20
.LM71:
// inline asm begin
	// 266 "../Peripherals/src/kf32f_basic_spi.c" 1
	CLR [r0], #16
	// 0 "" 2
.LM72:
// inline asm end
	JMP	lr
.L20:
.LM73:
// inline asm begin
	// 261 "../Peripherals/src/kf32f_basic_spi.c" 1
	SET [r0], #16
	// 0 "" 2
.LM74:
// inline asm end
	JMP	lr
	.cfi_endproc
.LFE7:
	.size	I2S_Mode_Select, .-I2S_Mode_Select
	.section .text$SPI_I2S_ReceiveData
	.type	.text$SPI_I2S_ReceiveData$scode_local_8, @function
	.text$SPI_I2S_ReceiveData$scode_local_8:
	.align	1
	.export	SPI_I2S_ReceiveData
	.type	SPI_I2S_ReceiveData, @function
SPI_I2S_ReceiveData:
.LFB8:
.LM75:
	.cfi_startproc
.LVL36:
.LM76:
	LD.w	r0,[r0+#2]
.LVL37:
.LM77:
	JMP	lr
	.cfi_endproc
.LFE8:
	.size	SPI_I2S_ReceiveData, .-SPI_I2S_ReceiveData
	.section .text$SPI_I2S_SendData32
	.type	.text$SPI_I2S_SendData32$scode_local_9, @function
	.text$SPI_I2S_SendData32$scode_local_9:
	.align	1
	.export	SPI_I2S_SendData32
	.type	SPI_I2S_SendData32, @function
SPI_I2S_SendData32:
.LFB9:
.LM78:
	.cfi_startproc
.LVL38:
.LM79:
	ST.w	[r0+#2],r1
.LM80:
	JMP	lr
	.cfi_endproc
.LFE9:
	.size	SPI_I2S_SendData32, .-SPI_I2S_SendData32
	.section .text$SPI_I2S_SendData8
	.type	.text$SPI_I2S_SendData8$scode_local_10, @function
	.text$SPI_I2S_SendData8$scode_local_10:
	.align	1
	.export	SPI_I2S_SendData8
	.type	SPI_I2S_SendData8, @function
SPI_I2S_SendData8:
.LFB10:
.LM81:
	.cfi_startproc
.LVL39:
	ZXT.b	r1,r1
.LM82:
	ST.w	[r0+#2],r1
.LM83:
	JMP	lr
	.cfi_endproc
.LFE10:
	.size	SPI_I2S_SendData8, .-SPI_I2S_SendData8
	.section .text$SPI_BaudRate_Config
	.type	.text$SPI_BaudRate_Config$scode_local_11, @function
	.text$SPI_BaudRate_Config$scode_local_11:
	.align	1
	.export	SPI_BaudRate_Config
	.type	SPI_BaudRate_Config, @function
SPI_BaudRate_Config:
.LFB11:
.LM84:
	.cfi_startproc
.LVL40:
	ZXT.h	r1,r1
.LVL41:
.LM85:
	LD.w	r4,[r0]
.LVL42:
.LBB34:
.LBB35:
.LM86:
	LD	r5,#-65536
	ANL	r5,r4,r5
	ORL	r1,r1,r5
.LVL43:
.LBE35:
.LBE34:
.LM87:
	ST.w	[r0],r1
.LM88:
	JMP	lr
	.cfi_endproc
.LFE11:
	.size	SPI_BaudRate_Config, .-SPI_BaudRate_Config
	.section .text$I2S_DIV_Config
	.type	.text$I2S_DIV_Config$scode_local_12, @function
	.text$I2S_DIV_Config$scode_local_12:
	.align	1
	.export	I2S_DIV_Config
	.type	I2S_DIV_Config, @function
I2S_DIV_Config:
.LFB12:
.LM89:
	.cfi_startproc
.LVL44:
	ZXT.b	r1,r1
.LVL45:
.LM90:
	LD.w	r3,[r0]
.LVL46:
.LM91:
	MOV	r4,#16
	LSL	r5,r1,r4
.LBB36:
.LBB37:
.LM92:
	LD	r4,#-16711681
	ANL	r1,r3,r4
.LVL47:
	ORL	r1,r5,r1
.LBE37:
.LBE36:
.LM93:
	ST.w	[r0],r1
.LM94:
	JMP	lr
	.cfi_endproc
.LFE12:
	.size	I2S_DIV_Config, .-I2S_DIV_Config
	.section .text$SPI_MODE_Config
	.type	.text$SPI_MODE_Config$scode_local_13, @function
	.text$SPI_MODE_Config$scode_local_13:
	.align	1
	.export	SPI_MODE_Config
	.type	SPI_MODE_Config, @function
SPI_MODE_Config:
.LFB13:
.LM95:
	.cfi_startproc
.LVL48:
.LM96:
	LD.w	r4,[r0+#1]
.LVL49:
.LBB38:
.LBB39:
.LM97:
	MOV	r5,#14
	NOT	r5,r5
	ANL	r5,r4,r5
	ORL	r1,r1,r5
.LVL50:
.LBE39:
.LBE38:
.LM98:
	ST.w	[r0+#1],r1
.LM99:
	JMP	lr
	.cfi_endproc
.LFE13:
	.size	SPI_MODE_Config, .-SPI_MODE_Config
	.section .text$SPI_CLK_Config
	.type	.text$SPI_CLK_Config$scode_local_14, @function
	.text$SPI_CLK_Config$scode_local_14:
	.align	1
	.export	SPI_CLK_Config
	.type	SPI_CLK_Config, @function
SPI_CLK_Config:
.LFB14:
.LM100:
	.cfi_startproc
.LVL51:
.LM101:
	LD.w	r5,[r0+#1]
.LVL52:
.LBB40:
.LBB41:
.LM102:
	CLR	r5,#4
	CLR	r5,#5
.LVL53:
	ORL	r1,r1,r5
.LVL54:
.LBE41:
.LBE40:
.LM103:
	ST.w	[r0+#1],r1
.LM104:
	JMP	lr
	.cfi_endproc
.LFE14:
	.size	SPI_CLK_Config, .-SPI_CLK_Config
	.section .text$SPI_Data_Direction_Config
	.type	.text$SPI_Data_Direction_Config$scode_local_15, @function
	.text$SPI_Data_Direction_Config$scode_local_15:
	.align	1
	.export	SPI_Data_Direction_Config
	.type	SPI_Data_Direction_Config, @function
SPI_Data_Direction_Config:
.LFB15:
.LM105:
	.cfi_startproc
.LVL55:
.LM106:
	ADD	r0,r0,#4
.LVL56:
.LM107:
	CMP	r1,#0
	JNZ	.L31
.LM108:
// inline asm begin
	// 421 "../Peripherals/src/kf32f_basic_spi.c" 1
	CLR [r0], #6
	// 0 "" 2
.LM109:
// inline asm end
	JMP	lr
.L31:
.LM110:
// inline asm begin
	// 416 "../Peripherals/src/kf32f_basic_spi.c" 1
	SET [r0], #6
	// 0 "" 2
.LM111:
// inline asm end
	JMP	lr
	.cfi_endproc
.LFE15:
	.size	SPI_Data_Direction_Config, .-SPI_Data_Direction_Config
	.section .text$SPI_Clock_Polarity_Config
	.type	.text$SPI_Clock_Polarity_Config$scode_local_16, @function
	.text$SPI_Clock_Polarity_Config$scode_local_16:
	.align	1
	.export	SPI_Clock_Polarity_Config
	.type	SPI_Clock_Polarity_Config, @function
SPI_Clock_Polarity_Config:
.LFB16:
.LM112:
	.cfi_startproc
.LVL57:
.LM113:
	ADD	r0,r0,#4
.LVL58:
.LM114:
	CMP	r1,#0
	JNZ	.L35
.LM115:
// inline asm begin
	// 449 "../Peripherals/src/kf32f_basic_spi.c" 1
	CLR [r0], #8
	// 0 "" 2
.LM116:
// inline asm end
	JMP	lr
.L35:
.LM117:
// inline asm begin
	// 444 "../Peripherals/src/kf32f_basic_spi.c" 1
	SET [r0], #8
	// 0 "" 2
.LM118:
// inline asm end
	JMP	lr
	.cfi_endproc
.LFE16:
	.size	SPI_Clock_Polarity_Config, .-SPI_Clock_Polarity_Config
	.section .text$SPI_Clock_Edge_Config
	.type	.text$SPI_Clock_Edge_Config$scode_local_17, @function
	.text$SPI_Clock_Edge_Config$scode_local_17:
	.align	1
	.export	SPI_Clock_Edge_Config
	.type	SPI_Clock_Edge_Config, @function
SPI_Clock_Edge_Config:
.LFB17:
.LM119:
	.cfi_startproc
.LVL59:
.LM120:
	ADD	r0,r0,#4
.LVL60:
.LM121:
	CMP	r1,#0
	JNZ	.L39
.LM122:
// inline asm begin
	// 477 "../Peripherals/src/kf32f_basic_spi.c" 1
	CLR [r0], #9
	// 0 "" 2
.LM123:
// inline asm end
	JMP	lr
.L39:
.LM124:
// inline asm begin
	// 472 "../Peripherals/src/kf32f_basic_spi.c" 1
	SET [r0], #9
	// 0 "" 2
.LM125:
// inline asm end
	JMP	lr
	.cfi_endproc
.LFE17:
	.size	SPI_Clock_Edge_Config, .-SPI_Clock_Edge_Config
	.section .text$SPI_BIT_SELECT_Config
	.type	.text$SPI_BIT_SELECT_Config$scode_local_18, @function
	.text$SPI_BIT_SELECT_Config$scode_local_18:
	.align	1
	.export	SPI_BIT_SELECT_Config
	.type	SPI_BIT_SELECT_Config, @function
SPI_BIT_SELECT_Config:
.LFB18:
.LM126:
	.cfi_startproc
.LVL61:
.LM127:
	LD.w	r5,[r0+#1]
.LVL62:
.LBB42:
.LBB43:
.LM128:
	CLR	r5,#12
	CLR	r5,#13
.LVL63:
	ORL	r1,r1,r5
.LVL64:
.LBE43:
.LBE42:
.LM129:
	ST.w	[r0+#1],r1
.LM130:
	JMP	lr
	.cfi_endproc
.LFE18:
	.size	SPI_BIT_SELECT_Config, .-SPI_BIT_SELECT_Config
	.section .text$SPI_I2S_MODE_Config
	.type	.text$SPI_I2S_MODE_Config$scode_local_19, @function
	.text$SPI_I2S_MODE_Config$scode_local_19:
	.align	1
	.export	SPI_I2S_MODE_Config
	.type	SPI_I2S_MODE_Config, @function
SPI_I2S_MODE_Config:
.LFB19:
.LM131:
	.cfi_startproc
.LVL65:
.LM132:
	LD.w	r5,[r0+#1]
.LVL66:
.LBB44:
.LBB45:
.LM133:
	CLR	r5,#20
	CLR	r5,#21
.LVL67:
	ORL	r1,r1,r5
.LVL68:
.LBE45:
.LBE44:
.LM134:
	ST.w	[r0+#1],r1
.LM135:
	JMP	lr
	.cfi_endproc
.LFE19:
	.size	SPI_I2S_MODE_Config, .-SPI_I2S_MODE_Config
	.section .text$SPI_I2S_STANDARD_Config
	.type	.text$SPI_I2S_STANDARD_Config$scode_local_20, @function
	.text$SPI_I2S_STANDARD_Config$scode_local_20:
	.align	1
	.export	SPI_I2S_STANDARD_Config
	.type	SPI_I2S_STANDARD_Config, @function
SPI_I2S_STANDARD_Config:
.LFB20:
.LM136:
	.cfi_startproc
.LVL69:
.LM137:
	LD.w	r5,[r0+#1]
.LVL70:
.LBB46:
.LBB47:
.LM138:
	CLR	r5,#22
	CLR	r5,#23
.LVL71:
	ORL	r1,r1,r5
.LVL72:
.LBE47:
.LBE46:
.LM139:
	ST.w	[r0+#1],r1
.LM140:
	JMP	lr
	.cfi_endproc
.LFE20:
	.size	SPI_I2S_STANDARD_Config, .-SPI_I2S_STANDARD_Config
	.section .text$SPI_PCM_Config
	.type	.text$SPI_PCM_Config$scode_local_21, @function
	.text$SPI_PCM_Config$scode_local_21:
	.align	1
	.export	SPI_PCM_Config
	.type	SPI_PCM_Config, @function
SPI_PCM_Config:
.LFB21:
.LM141:
	.cfi_startproc
.LVL73:
.LM142:
	ADD	r0,r0,#4
.LVL74:
.LM143:
	CMP	r1,#0
	JNZ	.L46
.LM144:
// inline asm begin
	// 567 "../Peripherals/src/kf32f_basic_spi.c" 1
	CLR [r0], #24
	// 0 "" 2
.LM145:
// inline asm end
	JMP	lr
.L46:
.LM146:
// inline asm begin
	// 562 "../Peripherals/src/kf32f_basic_spi.c" 1
	SET [r0], #24
	// 0 "" 2
.LM147:
// inline asm end
	JMP	lr
	.cfi_endproc
.LFE21:
	.size	SPI_PCM_Config, .-SPI_PCM_Config
	.section .text$SPI_CHLEN_Config
	.type	.text$SPI_CHLEN_Config$scode_local_22, @function
	.text$SPI_CHLEN_Config$scode_local_22:
	.align	1
	.export	SPI_CHLEN_Config
	.type	SPI_CHLEN_Config, @function
SPI_CHLEN_Config:
.LFB22:
.LM148:
	.cfi_startproc
.LVL75:
.LM149:
	LD	r5,#100663296
	CMP	r1,r5
	JZ	.L51
.LM150:
	MOV	r5,#1
	LSL	r5,#26
	CMP	r1,r5
	JZ	.L52
.LM151:
	ADD	r5,r0,#4
// inline asm begin
	// 602 "../Peripherals/src/kf32f_basic_spi.c" 1
	CLR [r5], #25
	// 0 "" 2
.LM152:
// inline asm end
	ADD	r0,r0,#4
.LVL76:
// inline asm begin
	// 603 "../Peripherals/src/kf32f_basic_spi.c" 1
	CLR [r0], #26
	// 0 "" 2
.LM153:
// inline asm end
	JMP	lr
.LVL77:
.L51:
.LM154:
	ADD	r5,r0,#4
// inline asm begin
	// 590 "../Peripherals/src/kf32f_basic_spi.c" 1
	SET [r5], #25
	// 0 "" 2
.LM155:
// inline asm end
	ADD	r0,r0,#4
.LVL78:
// inline asm begin
	// 591 "../Peripherals/src/kf32f_basic_spi.c" 1
	SET [r0], #26
	// 0 "" 2
.LM156:
// inline asm end
	JMP	lr
.LVL79:
.L52:
.LM157:
	ADD	r5,r0,#4
// inline asm begin
	// 596 "../Peripherals/src/kf32f_basic_spi.c" 1
	CLR [r5], #25
	// 0 "" 2
.LM158:
// inline asm end
	ADD	r0,r0,#4
.LVL80:
// inline asm begin
	// 597 "../Peripherals/src/kf32f_basic_spi.c" 1
	SET [r0], #26
	// 0 "" 2
.LM159:
// inline asm end
	JMP	lr
	.cfi_endproc
.LFE22:
	.size	SPI_CHLEN_Config, .-SPI_CHLEN_Config
	.section .text$SPI_PCM_CLOCK_Polarity_Config
	.type	.text$SPI_PCM_CLOCK_Polarity_Config$scode_local_23, @function
	.text$SPI_PCM_CLOCK_Polarity_Config$scode_local_23:
	.align	1
	.export	SPI_PCM_CLOCK_Polarity_Config
	.type	SPI_PCM_CLOCK_Polarity_Config, @function
SPI_PCM_CLOCK_Polarity_Config:
.LFB23:
.LM160:
	.cfi_startproc
.LVL81:
.LM161:
	ADD	r0,r0,#4
.LVL82:
.LM162:
	CMP	r1,#0
	JNZ	.L56
.LM163:
// inline asm begin
	// 631 "../Peripherals/src/kf32f_basic_spi.c" 1
	CLR [r0], #27
	// 0 "" 2
.LM164:
// inline asm end
	JMP	lr
.L56:
.LM165:
// inline asm begin
	// 626 "../Peripherals/src/kf32f_basic_spi.c" 1
	SET [r0], #27
	// 0 "" 2
.LM166:
// inline asm end
	JMP	lr
	.cfi_endproc
.LFE23:
	.size	SPI_PCM_CLOCK_Polarity_Config, .-SPI_PCM_CLOCK_Polarity_Config
	.section .text$SPI_MAIN_CLOCK_OUT_Enable
	.type	.text$SPI_MAIN_CLOCK_OUT_Enable$scode_local_24, @function
	.text$SPI_MAIN_CLOCK_OUT_Enable$scode_local_24:
	.align	1
	.export	SPI_MAIN_CLOCK_OUT_Enable
	.type	SPI_MAIN_CLOCK_OUT_Enable, @function
SPI_MAIN_CLOCK_OUT_Enable:
.LFB24:
.LM167:
	.cfi_startproc
.LVL83:
.LM168:
	CMP	r1,#0
	JNZ	.L60
.LM169:
// inline asm begin
	// 657 "../Peripherals/src/kf32f_basic_spi.c" 1
	CLR [r0], #24
	// 0 "" 2
.LM170:
// inline asm end
	JMP	lr
.L60:
.LM171:
// inline asm begin
	// 652 "../Peripherals/src/kf32f_basic_spi.c" 1
	SET [r0], #24
	// 0 "" 2
.LM172:
// inline asm end
	JMP	lr
	.cfi_endproc
.LFE24:
	.size	SPI_MAIN_CLOCK_OUT_Enable, .-SPI_MAIN_CLOCK_OUT_Enable
	.section .text$SPI_Receive_Overflow_INT_Enable
	.type	.text$SPI_Receive_Overflow_INT_Enable$scode_local_25, @function
	.text$SPI_Receive_Overflow_INT_Enable$scode_local_25:
	.align	1
	.export	SPI_Receive_Overflow_INT_Enable
	.type	SPI_Receive_Overflow_INT_Enable, @function
SPI_Receive_Overflow_INT_Enable:
.LFB25:
.LM173:
	.cfi_startproc
.LVL84:
.LM174:
	ADD	r0,#12
.LVL85:
.LM175:
	CMP	r1,#0
	JNZ	.L64
.LM176:
// inline asm begin
	// 690 "../Peripherals/src/kf32f_basic_spi.c" 1
	CLR [r0], #12
	// 0 "" 2
.LM177:
// inline asm end
	JMP	lr
.L64:
.LM178:
// inline asm begin
	// 685 "../Peripherals/src/kf32f_basic_spi.c" 1
	SET [r0], #12
	// 0 "" 2
.LM179:
// inline asm end
	JMP	lr
	.cfi_endproc
.LFE25:
	.size	SPI_Receive_Overflow_INT_Enable, .-SPI_Receive_Overflow_INT_Enable
	.section .text$SPI_Transmit_Overflow_INT_Enable
	.type	.text$SPI_Transmit_Overflow_INT_Enable$scode_local_26, @function
	.text$SPI_Transmit_Overflow_INT_Enable$scode_local_26:
	.align	1
	.export	SPI_Transmit_Overflow_INT_Enable
	.type	SPI_Transmit_Overflow_INT_Enable, @function
SPI_Transmit_Overflow_INT_Enable:
.LFB26:
.LM180:
	.cfi_startproc
.LVL86:
.LM181:
	ADD	r0,#12
.LVL87:
.LM182:
	CMP	r1,#0
	JNZ	.L68
.LM183:
// inline asm begin
	// 716 "../Peripherals/src/kf32f_basic_spi.c" 1
	CLR [r0], #13
	// 0 "" 2
.LM184:
// inline asm end
	JMP	lr
.L68:
.LM185:
// inline asm begin
	// 711 "../Peripherals/src/kf32f_basic_spi.c" 1
	SET [r0], #13
	// 0 "" 2
.LM186:
// inline asm end
	JMP	lr
	.cfi_endproc
.LFE26:
	.size	SPI_Transmit_Overflow_INT_Enable, .-SPI_Transmit_Overflow_INT_Enable
	.section .text$SPI_RNEIE_INT_Enable
	.type	.text$SPI_RNEIE_INT_Enable$scode_local_27, @function
	.text$SPI_RNEIE_INT_Enable$scode_local_27:
	.align	1
	.export	SPI_RNEIE_INT_Enable
	.type	SPI_RNEIE_INT_Enable, @function
SPI_RNEIE_INT_Enable:
.LFB27:
.LM187:
	.cfi_startproc
.LVL88:
.LM188:
	ADD	r0,#12
.LVL89:
.LM189:
	CMP	r1,#0
	JNZ	.L72
.LM190:
// inline asm begin
	// 742 "../Peripherals/src/kf32f_basic_spi.c" 1
	CLR [r0], #14
	// 0 "" 2
.LM191:
// inline asm end
	JMP	lr
.L72:
.LM192:
// inline asm begin
	// 737 "../Peripherals/src/kf32f_basic_spi.c" 1
	SET [r0], #14
	// 0 "" 2
.LM193:
// inline asm end
	JMP	lr
	.cfi_endproc
.LFE27:
	.size	SPI_RNEIE_INT_Enable, .-SPI_RNEIE_INT_Enable
	.section .text$SPI_TNEIE_INT_Enable
	.type	.text$SPI_TNEIE_INT_Enable$scode_local_28, @function
	.text$SPI_TNEIE_INT_Enable$scode_local_28:
	.align	1
	.export	SPI_TNEIE_INT_Enable
	.type	SPI_TNEIE_INT_Enable, @function
SPI_TNEIE_INT_Enable:
.LFB28:
.LM194:
	.cfi_startproc
.LVL90:
.LM195:
	ADD	r0,#12
.LVL91:
.LM196:
	CMP	r1,#0
	JNZ	.L76
.LM197:
// inline asm begin
	// 768 "../Peripherals/src/kf32f_basic_spi.c" 1
	CLR [r0], #15
	// 0 "" 2
.LM198:
// inline asm end
	JMP	lr
.L76:
.LM199:
// inline asm begin
	// 763 "../Peripherals/src/kf32f_basic_spi.c" 1
	SET [r0], #15
	// 0 "" 2
.LM200:
// inline asm end
	JMP	lr
	.cfi_endproc
.LFE28:
	.size	SPI_TNEIE_INT_Enable, .-SPI_TNEIE_INT_Enable
	.section .text$SPI_Receive_DMA_INT_Enable
	.type	.text$SPI_Receive_DMA_INT_Enable$scode_local_29, @function
	.text$SPI_Receive_DMA_INT_Enable$scode_local_29:
	.align	1
	.export	SPI_Receive_DMA_INT_Enable
	.type	SPI_Receive_DMA_INT_Enable, @function
SPI_Receive_DMA_INT_Enable:
.LFB29:
.LM201:
	.cfi_startproc
.LVL92:
.LM202:
	ADD	r0,#12
.LVL93:
.LM203:
	CMP	r1,#0
	JNZ	.L80
.LM204:
// inline asm begin
	// 795 "../Peripherals/src/kf32f_basic_spi.c" 1
	CLR [r0], #20
	// 0 "" 2
.LM205:
// inline asm end
	JMP	lr
.L80:
.LM206:
// inline asm begin
	// 790 "../Peripherals/src/kf32f_basic_spi.c" 1
	SET [r0], #20
	// 0 "" 2
.LM207:
// inline asm end
	JMP	lr
	.cfi_endproc
.LFE29:
	.size	SPI_Receive_DMA_INT_Enable, .-SPI_Receive_DMA_INT_Enable
	.section .text$SPI_Transmit_DMA_INT_Enable
	.type	.text$SPI_Transmit_DMA_INT_Enable$scode_local_30, @function
	.text$SPI_Transmit_DMA_INT_Enable$scode_local_30:
	.align	1
	.export	SPI_Transmit_DMA_INT_Enable
	.type	SPI_Transmit_DMA_INT_Enable, @function
SPI_Transmit_DMA_INT_Enable:
.LFB30:
.LM208:
	.cfi_startproc
.LVL94:
.LM209:
	ADD	r0,#12
.LVL95:
.LM210:
	CMP	r1,#0
	JNZ	.L84
.LM211:
// inline asm begin
	// 821 "../Peripherals/src/kf32f_basic_spi.c" 1
	CLR [r0], #21
	// 0 "" 2
.LM212:
// inline asm end
	JMP	lr
.L84:
.LM213:
// inline asm begin
	// 816 "../Peripherals/src/kf32f_basic_spi.c" 1
	SET [r0], #21
	// 0 "" 2
.LM214:
// inline asm end
	JMP	lr
	.cfi_endproc
.LFE30:
	.size	SPI_Transmit_DMA_INT_Enable, .-SPI_Transmit_DMA_INT_Enable
	.section .text$SPI_Transmit_CHSIDE_INT_Enable
	.type	.text$SPI_Transmit_CHSIDE_INT_Enable$scode_local_31, @function
	.text$SPI_Transmit_CHSIDE_INT_Enable$scode_local_31:
	.align	1
	.export	SPI_Transmit_CHSIDE_INT_Enable
	.type	SPI_Transmit_CHSIDE_INT_Enable, @function
SPI_Transmit_CHSIDE_INT_Enable:
.LFB31:
.LM215:
	.cfi_startproc
.LVL96:
.LM216:
	ADD	r0,#12
.LVL97:
.LM217:
	CMP	r1,#0
	JNZ	.L88
.LM218:
// inline asm begin
	// 847 "../Peripherals/src/kf32f_basic_spi.c" 1
	CLR [r0], #3
	// 0 "" 2
.LM219:
// inline asm end
	JMP	lr
.L88:
.LM220:
// inline asm begin
	// 842 "../Peripherals/src/kf32f_basic_spi.c" 1
	SET [r0], #3
	// 0 "" 2
.LM221:
// inline asm end
	JMP	lr
	.cfi_endproc
.LFE31:
	.size	SPI_Transmit_CHSIDE_INT_Enable, .-SPI_Transmit_CHSIDE_INT_Enable
	.section .text$SPI_Get_BUSY_Flag
	.type	.text$SPI_Get_BUSY_Flag$scode_local_32, @function
	.text$SPI_Get_BUSY_Flag$scode_local_32:
	.align	1
	.export	SPI_Get_BUSY_Flag
	.type	SPI_Get_BUSY_Flag, @function
SPI_Get_BUSY_Flag:
.LFB32:
.LM222:
	.cfi_startproc
.LVL98:
.LM223:
	LD.w	r0,[r0+#3]
.LVL99:
.LM224:
	MOV	r5,#1
	ANL	r0,r0,r5
	JMP	lr
	.cfi_endproc
.LFE32:
	.size	SPI_Get_BUSY_Flag, .-SPI_Get_BUSY_Flag
	.section .text$SPI_Get_Receive_Overflow_Flag
	.type	.text$SPI_Get_Receive_Overflow_Flag$scode_local_33, @function
	.text$SPI_Get_Receive_Overflow_Flag$scode_local_33:
	.align	1
	.export	SPI_Get_Receive_Overflow_Flag
	.type	SPI_Get_Receive_Overflow_Flag, @function
SPI_Get_Receive_Overflow_Flag:
.LFB33:
.LM225:
	.cfi_startproc
.LVL100:
.LM226:
	LD.w	r0,[r0+#3]
.LVL101:
	LSR	r0,#4
.LM227:
	MOV	r5,#1
	ANL	r0,r0,r5
	JMP	lr
	.cfi_endproc
.LFE33:
	.size	SPI_Get_Receive_Overflow_Flag, .-SPI_Get_Receive_Overflow_Flag
	.section .text$SPI_Get_Transmit_Overflow_Flag
	.type	.text$SPI_Get_Transmit_Overflow_Flag$scode_local_34, @function
	.text$SPI_Get_Transmit_Overflow_Flag$scode_local_34:
	.align	1
	.export	SPI_Get_Transmit_Overflow_Flag
	.type	SPI_Get_Transmit_Overflow_Flag, @function
SPI_Get_Transmit_Overflow_Flag:
.LFB34:
.LM228:
	.cfi_startproc
.LVL102:
.LM229:
	LD.w	r0,[r0+#3]
.LVL103:
	LSR	r0,#5
.LM230:
	MOV	r5,#1
	ANL	r0,r0,r5
	JMP	lr
	.cfi_endproc
.LFE34:
	.size	SPI_Get_Transmit_Overflow_Flag, .-SPI_Get_Transmit_Overflow_Flag
	.section .text$SPI_Get_Receive_Buf_Flag
	.type	.text$SPI_Get_Receive_Buf_Flag$scode_local_35, @function
	.text$SPI_Get_Receive_Buf_Flag$scode_local_35:
	.align	1
	.export	SPI_Get_Receive_Buf_Flag
	.type	SPI_Get_Receive_Buf_Flag, @function
SPI_Get_Receive_Buf_Flag:
.LFB35:
.LM231:
	.cfi_startproc
.LVL104:
.LM232:
	LD.w	r0,[r0+#3]
.LVL105:
	LSR	r0,#1
.LM233:
	MOV	r5,#1
	ANL	r0,r0,r5
	JMP	lr
	.cfi_endproc
.LFE35:
	.size	SPI_Get_Receive_Buf_Flag, .-SPI_Get_Receive_Buf_Flag
	.section .text$SPI_Get_Transmit_Buf_Flag
	.type	.text$SPI_Get_Transmit_Buf_Flag$scode_local_36, @function
	.text$SPI_Get_Transmit_Buf_Flag$scode_local_36:
	.align	1
	.export	SPI_Get_Transmit_Buf_Flag
	.type	SPI_Get_Transmit_Buf_Flag, @function
SPI_Get_Transmit_Buf_Flag:
.LFB36:
.LM234:
	.cfi_startproc
.LVL106:
.LM235:
	LD.w	r0,[r0+#3]
.LVL107:
	LSR	r0,#2
.LM236:
	MOV	r5,#1
	ANL	r0,r0,r5
	JMP	lr
	.cfi_endproc
.LFE36:
	.size	SPI_Get_Transmit_Buf_Flag, .-SPI_Get_Transmit_Buf_Flag
	.section .text$SPI_Clear_Receive_Overflow_INT_Flag
	.type	.text$SPI_Clear_Receive_Overflow_INT_Flag$scode_local_37, @function
	.text$SPI_Clear_Receive_Overflow_INT_Flag$scode_local_37:
	.align	1
	.export	SPI_Clear_Receive_Overflow_INT_Flag
	.type	SPI_Clear_Receive_Overflow_INT_Flag, @function
SPI_Clear_Receive_Overflow_INT_Flag:
.LFB37:
.LM237:
	.cfi_startproc
.LVL108:
.LM238:
	MOV	r5,#12
	ADD	r3,r0,r5
// inline asm begin
	// 989 "../Peripherals/src/kf32f_basic_spi.c" 1
	SET [r3], #16
	// 0 "" 2
.LM239:
// inline asm end
	MOV	r4,#16
.L95:
.LM240:
	LD.w	r5,[r0+#3]
	ANL	r5,r5,r4
	JNZ	.L95
.LM241:
// inline asm begin
	// 991 "../Peripherals/src/kf32f_basic_spi.c" 1
	CLR [r3], #16
	// 0 "" 2
.LM242:
// inline asm end
	JMP	lr
	.cfi_endproc
.LFE37:
	.size	SPI_Clear_Receive_Overflow_INT_Flag, .-SPI_Clear_Receive_Overflow_INT_Flag
	.section .text$SPI_Clear_Transmit_Overflow_INT_Flag
	.type	.text$SPI_Clear_Transmit_Overflow_INT_Flag$scode_local_38, @function
	.text$SPI_Clear_Transmit_Overflow_INT_Flag$scode_local_38:
	.align	1
	.export	SPI_Clear_Transmit_Overflow_INT_Flag
	.type	SPI_Clear_Transmit_Overflow_INT_Flag, @function
SPI_Clear_Transmit_Overflow_INT_Flag:
.LFB38:
.LM243:
	.cfi_startproc
.LVL109:
.LM244:
	MOV	r5,#12
	ADD	r3,r0,r5
// inline asm begin
	// 1006 "../Peripherals/src/kf32f_basic_spi.c" 1
	SET [r3], #17
	// 0 "" 2
.LM245:
// inline asm end
	MOV	r4,#32
.L98:
.LM246:
	LD.w	r5,[r0+#3]
	ANL	r5,r5,r4
	JNZ	.L98
.LM247:
// inline asm begin
	// 1008 "../Peripherals/src/kf32f_basic_spi.c" 1
	CLR [r3], #17
	// 0 "" 2
.LM248:
// inline asm end
	JMP	lr
	.cfi_endproc
.LFE38:
	.size	SPI_Clear_Transmit_Overflow_INT_Flag, .-SPI_Clear_Transmit_Overflow_INT_Flag
	.text	
.Letext0: