
SmartDriver_Bootloader.elf:     file format elf32-kungfu32-little


Disassembly of section .text:

00000000 <_start>:
##@@@F_:__vector_entry__:
       0:	00 80 01 10 	.long     0x10018000  [!!!@2@:LD.B      R0, [R0]	@@: MOV       R0, #1
       4:	70 08 00 00 	.long     0x00000870  [!!!@2@:LD.W      R0, [SP + #112]	@@: NOP      
       8:	d8 08 00 00 	.long     0x000008d8  [!!!@2@:LD.W      R0, [SP + #216]	@@: NOP      
       c:	da 08 00 00 	.long     0x000008da  [!!!@2@:LD.W      R0, [SP + #218]	@@: NOP      
      10:	00 00 00 00 	.long     0x00000000  [!!!@2@:NOP      	@@: NOP      
      14:	dc 08 00 00 	.long     0x000008dc  [!!!@2@:LD.W      R0, [SP + #220]	@@: NOP      
      18:	00 00 00 00 	.long     0x00000000  [!!!@2@:NOP      	@@: NOP      
      1c:	02 5d fe ef 	.long     0xeffe5d02  [!!!@2@:POP       R2	@@: ST.W      [R7 + R7], R6
	...
      2c:	de 08 00 00 	.long     0x000008de  [!!!@2@:LD.W      R0, [SP + #222]	@@: NOP      
	...
      38:	e0 08 00 00 	.long     0x000008e0  [!!!@2@:LD.W      R0, [SP + #224]	@@: NOP      
      3c:	e2 08 00 00 	.long     0x000008e2  [!!!@2@:LD.W      R0, [SP + #226]	@@: NOP      
	...
      b0:	e4 08 00 00 	.long     0x000008e4  [!!!@2@:LD.W      R0, [SP + #228]	@@: NOP      
      b4:	e6 08 00 00 	.long     0x000008e6  [!!!@2@:LD.W      R0, [SP + #230]	@@: NOP      
	...
     100:	e8 08 00 00 	.long     0x000008e8  [!!!@2@:LD.W      R0, [SP + #232]	@@: NOP      
     104:	ea 08 00 00 	.long     0x000008ea  [!!!@2@:LD.W      R0, [SP + #234]	@@: NOP      
     108:	ec 08 00 00 	.long     0x000008ec  [!!!@2@:LD.W      R0, [SP + #236]	@@: NOP      
	...
     134:	ee 08 00 00 	.long     0x000008ee  [!!!@2@:LD.W      R0, [SP + #238]	@@: NOP      
	...

00000200 <bsp_init>:
##@@@F_:bsp_init():
##@@@P_:bsp.c:13
##@@@L0008_: */   
##@@@L0009_:#include "bsp.h"   
##@@@L0010_:
##@@@L0011_:
##@@@L0012_:void bsp_init(void)   
##@@@L0013_:{   
     200:	2d 5d       	PUSH      LR
##@@@P_:bsp.c:14
##@@@L0014_:    bsp_usart_init(COM3);   
     202:	02 10       	MOV       R0, #2			;->0x0002
     204:	80 00 04 00 	LJMP      $+4       ;->0x20c  20c <bsp_usart_init>
##@@@P_:bsp.c:17
##@@@L0015_:
##@@@L0016_:
##@@@L0017_:}   
     208:	0d 5d       	POP       LR
     20a:	1d 5c       	JMP       LR

0000020c <bsp_usart_init>:
##@@@F_:bsp_usart_init():
##@@@P_:bsp_usart.c:42
##@@@L0037_: * @brief : ÕłØÕ¦ŗÕī¢USART   
##@@@L0038_: * @param  *com: õĖ▓ÕÅŻńĪ¼õ╗ČķģŹńĮ«Õ»╣Ķ▒Ī   
##@@@L0039_: * @return *   
##@@@L0040_: */   
##@@@L0041_:void bsp_usart_init(usart_typedef_t com_id)   
##@@@L0042_:{   
     20c:	9f 5f       	PUSH      {R6-R10,LR}
     20e:	e4 33       	SUB       SP, #52			;->0x34
     210:	c0 58       	MOV       R6, R0
##@@@P_:bsp_usart.c:43
##@@@L0043_:    if (com_id >= COMn) {   
     212:	03 38       	CMP       R0, #3			;->0x03
     214:	05 f9       	JLS       $+5                   ;->0x21e
##@@@P_:bsp_usart.c:89
##@@@L0084_:    USART_Clear_Transmit_BUFR_INT_Flag(COM_USART[com_id]);   
##@@@L0085_:    USART_RESHD_Enable(COM_USART[com_id], TRUE);   
##@@@L0086_:    USART_Cmd(COM_USART[com_id], TRUE);   
##@@@L0087_:
##@@@L0088_://    USART_ReceiveInt_config(COM_USART[com_id], COM_INT[com_id]);   
##@@@L0089_:}   
     216:	e4 2b       	ADD       SP, #52			;->0x34
     218:	1f 5e       	POP       {R6-R10}
     21a:	0d 5d       	POP       LR
     21c:	1d 5c       	JMP       LR
##@@@P_:bsp_usart.c:47
##@@@L0042_:{   
##@@@L0043_:    if (com_id >= COMn) {   
##@@@L0044_:        return;   
##@@@L0045_:    }   
##@@@L0046_:
##@@@L0047_:    GPIO_Write_Mode_Bits(COM_GPIO_PORT[com_id], COM_TX_PIN[com_id], GPIO_MODE_RMP);   
     21e:	60 58       	MOV       R3, R0
     220:	1a 7a       	LSL       R3, #2			;->0x02
     222:	23 59       	MOV       R9, R3
     224:	31 45       	LD        R5, [PC + #49]        ;->0x2e8  :=0x11a0
     226:	fd e8       	LD.W      R7, [R5 + R3]
     228:	20 c2       	ADD       R4, R0, R0
     22a:	04 59       	MOV       R8, R4
     22c:	30 45       	LD        R5, [PC + #48]        ;->0x2ec  :=0x11b0
     22e:	2d e7       	LD.H      R5, [R5 + R4]
     230:	a5 d0       	ZXT.H     R10, R5
     232:	07 58       	MOV       R0, R7
     234:	2a 58       	MOV       R1, R10
     236:	22 10       	MOV       R2, #2			;->0x0002
     238:	80 00 c5 00 	LJMP      $+197     ;->0x3c2  3c2 <GPIO_Write_Mode_Bits>
##@@@P_:bsp_usart.c:48
##@@@L0048_:    GPIO_Pin_RMP_Config(COM_GPIO_PORT[com_id], COM_TX_PIN_NUM[com_id], COM_TX_PIN_RMP[com_id]);   
     23c:	07 58       	MOV       R0, R7
     23e:	2d 45       	LD        R5, [PC + #45]        ;->0x2f0  :=0x11b8
     240:	68 58       	MOV       R3, R8
     242:	ed e6       	LD.H      R5, [R5 + R3]
     244:	15 d0       	ZXT.H     R1, R5
     246:	2c 45       	LD        R5, [PC + #44]        ;->0x2f4  :=0x11c0
     248:	95 e5       	LD.B      R2, [R5 + R6]
     24a:	80 00 d7 00 	LJMP      $+215     ;->0x3f8  3f8 <GPIO_Pin_RMP_Config>
##@@@P_:bsp_usart.c:49
##@@@L0049_:    GPIO_Pin_Lock_Config(COM_GPIO_PORT[com_id], COM_TX_PIN[com_id], TRUE);   
     24e:	07 58       	MOV       R0, R7
     250:	2a 58       	MOV       R1, R10
     252:	21 10       	MOV       R2, #1			;->0x0001
     254:	80 00 a8 00 	LJMP      $+168     ;->0x3a4  3a4 <GPIO_Pin_Lock_Config>
##@@@P_:bsp_usart.c:51
##@@@L0050_:
##@@@L0051_:    GPIO_Write_Mode_Bits(COM_GPIO_PORT[com_id], COM_RX_PIN[com_id], GPIO_MODE_RMP);   
     258:	28 45       	LD        R5, [PC + #40]        ;->0x2f8  :=0x11c4
     25a:	88 58       	MOV       R4, R8
     25c:	2d e7       	LD.H      R5, [R5 + R4]
     25e:	a5 d0       	ZXT.H     R10, R5
     260:	07 58       	MOV       R0, R7
     262:	2a 58       	MOV       R1, R10
     264:	22 10       	MOV       R2, #2			;->0x0002
     266:	80 00 ae 00 	LJMP      $+174     ;->0x3c2  3c2 <GPIO_Write_Mode_Bits>
##@@@P_:bsp_usart.c:52
##@@@L0052_:    GPIO_Pin_RMP_Config(COM_GPIO_PORT[com_id], COM_RX_PIN_NUM[com_id], COM_RX_PIN_RMP[com_id]);   
     26a:	07 58       	MOV       R0, R7
     26c:	24 45       	LD        R5, [PC + #36]        ;->0x2fc  :=0x11cc
     26e:	68 58       	MOV       R3, R8
     270:	ed e6       	LD.H      R5, [R5 + R3]
     272:	15 d0       	ZXT.H     R1, R5
     274:	23 45       	LD        R5, [PC + #35]        ;->0x300  :=0x11d4
     276:	95 e5       	LD.B      R2, [R5 + R6]
     278:	80 00 c0 00 	LJMP      $+192     ;->0x3f8  3f8 <GPIO_Pin_RMP_Config>
##@@@P_:bsp_usart.c:53
##@@@L0053_:    GPIO_Pin_Lock_Config(COM_GPIO_PORT[com_id], COM_RX_PIN[com_id], TRUE);   
     27c:	07 58       	MOV       R0, R7
     27e:	2a 58       	MOV       R1, R10
     280:	21 10       	MOV       R2, #1			;->0x0001
     282:	80 00 91 00 	LJMP      $+145     ;->0x3a4  3a4 <GPIO_Pin_Lock_Config>
##@@@P_:bsp_usart.c:57
##@@@L0054_:
##@@@L0055_:    USART_InitTypeDef USART_InitStructure;   
##@@@L0056_:
##@@@L0057_:    USART_Struct_Init(&USART_InitStructure);   
     286:	0e 58       	MOV       R0, SP
     288:	80 00 c2 02 	LJMP      $+706     ;->0x80c  80c <USART_Struct_Init>
##@@@P_:bsp_usart.c:58
##@@@L0058_:    USART_InitStructure.m_Mode = USART_MODE_FULLDUPLEXASY;   
     28c:	50 10       	MOV       R5, #0			;->0x0000
     28e:	e5 85       	ST.W      [SP], R5
##@@@P_:bsp_usart.c:59
##@@@L0059_:    USART_InitStructure.m_TransferDir = USART_DIRECTION_FULL_DUPLEX;   
     290:	1d 44       	LD        R4, [PC + #29]        ;->0x304  :=0x18000
     292:	02 24       	ST.W      [SP + #2], R4
##@@@P_:bsp_usart.c:60
##@@@L0060_:    USART_InitStructure.m_WordLength = USART_WORDLENGTH_8B;   
     294:	03 25       	ST.W      [SP + #3], R5
##@@@P_:bsp_usart.c:61
##@@@L0061_:    USART_InitStructure.m_StopBits = USART_STOPBITS_1;   
     296:	04 25       	ST.W      [SP + #4], R5
##@@@P_:bsp_usart.c:62
##@@@L0062_:    USART_InitStructure.m_BaudRateBRCKS = USART_CLK_HFCLK;   
     298:	42 10       	MOV       R4, #2			;->0x0002
     29a:	96 e2       	ST.H      [SP + #22], R4
##@@@P_:bsp_usart.c:71
##@@@L0066_:    4800:z=208 x=0 y=0,    
##@@@L0067_:    9600:z=104 x=0 y=0,    
##@@@L0068_:    19200:z=52 x=0 y=0,    
##@@@L0069_:    115200:z=8 x=1 y=13    
##@@@L0070_:    */   
##@@@L0071_:    if (COM_BAUD[com_id] == 115200) {   
     29c:	1b 44       	LD        R4, [PC + #27]        ;->0x308  :=0x11d8
     29e:	69 58       	MOV       R3, R9
     2a0:	e4 e8       	LD.W      R4, [R4 + R3]
     2a2:	1b 43       	LD        R3, [PC + #27]        ;->0x30c  :=0x1c200
     2a4:	43 70       	CMP       R4, R3
     2a6:	3e f0       	JZ        $+62                  ;->0x322
##@@@P_:bsp_usart.c:75
##@@@L0072_:        USART_InitStructure.m_BaudRateInteger = 8;   
##@@@L0073_:        USART_InitStructure.m_BaudRateNumerator = 1;   
##@@@L0074_:        USART_InitStructure.m_BaudRateDenominator = 13;   
##@@@L0075_:    } else if (COM_BAUD[com_id] == 9600) {   
     2a8:	1a 43       	LD        R3, [PC + #26]        ;->0x310  :=0x2580
     2aa:	43 70       	CMP       R4, R3
     2ac:	36 f0       	JZ        $+54                  ;->0x318
##@@@P_:bsp_usart.c:81
##@@@L0076_:        USART_InitStructure.m_BaudRateInteger = 104;   
##@@@L0077_:        USART_InitStructure.m_BaudRateNumerator = 0;   
##@@@L0078_:        USART_InitStructure.m_BaudRateDenominator = 0;   
##@@@L0079_:    }   
##@@@L0080_:
##@@@L0081_:    USART_Reset(COM_USART[com_id]);   
     2ae:	1a 45       	LD        R5, [PC + #26]        ;->0x314  :=0x11e8
     2b0:	89 58       	MOV       R4, R9
     2b2:	35 e9       	LD.W      R6, [R5 + R4]
     2b4:	06 58       	MOV       R0, R6
     2b6:	80 00 cd 01 	LJMP      $+461     ;->0x650  650 <USART_Reset>
##@@@P_:bsp_usart.c:82
##@@@L0082_:    USART_Configuration(COM_USART[com_id], &USART_InitStructure);   
     2ba:	06 58       	MOV       R0, R6
     2bc:	2e 58       	MOV       R1, SP
     2be:	80 00 79 02 	LJMP      $+633     ;->0x7b0  7b0 <USART_Configuration>
##@@@P_:bsp_usart.c:83
##@@@L0083_:    USART_Passageway_Select_Config(COM_USART[com_id], USART_U7816R_PASSAGEWAY_TX0);   
     2c2:	06 58       	MOV       R0, R6
     2c4:	10 10       	MOV       R1, #0			;->0x0000
     2c6:	80 00 c3 02 	LJMP      $+707     ;->0x84c  84c <USART_Passageway_Select_Config>
##@@@P_:bsp_usart.c:84
##@@@L0084_:    USART_Clear_Transmit_BUFR_INT_Flag(COM_USART[com_id]);   
     2ca:	06 58       	MOV       R0, R6
     2cc:	80 00 c7 02 	LJMP      $+711     ;->0x85a  85a <USART_Clear_Transmit_BUFR_INT_Flag>
##@@@P_:bsp_usart.c:85
##@@@L0085_:    USART_RESHD_Enable(COM_USART[com_id], TRUE);   
     2d0:	06 58       	MOV       R0, R6
     2d2:	11 10       	MOV       R1, #1			;->0x0001
     2d4:	80 00 b6 02 	LJMP      $+694     ;->0x840  840 <USART_RESHD_Enable>
##@@@P_:bsp_usart.c:86
##@@@L0086_:    USART_Cmd(COM_USART[com_id], TRUE);   
     2d8:	06 58       	MOV       R0, R6
     2da:	11 10       	MOV       R1, #1			;->0x0001
     2dc:	80 00 ac 02 	LJMP      $+684     ;->0x834  834 <USART_Cmd>
##@@@P_:bsp_usart.c:89
##@@@L0087_:
##@@@L0088_://    USART_ReceiveInt_config(COM_USART[com_id], COM_INT[com_id]);   
##@@@L0089_:}   
     2e0:	e4 2b       	ADD       SP, #52			;->0x34
     2e2:	1f 5e       	POP       {R6-R10}
     2e4:	0d 5d       	POP       LR
     2e6:	1d 5c       	JMP       LR
     2e8:	a0 11 00 00 	.long     0x000011a0 ->000004512  [!!!@2@:MOV       R10, #16	@@: NOP      
     2ec:	b0 11 00 00 	.long     0x000011b0 ->000004528  [!!!@2@:MOV       R11, #16	@@: NOP      
     2f0:	b8 11 00 00 	.long     0x000011b8 ->000004536  [!!!@2@:MOV       R11, #24	@@: NOP      
     2f4:	c0 11 00 00 	.long     0x000011c0 ->000004544  [!!!@2@:MOV       R12, #16	@@: NOP      
     2f8:	c4 11 00 00 	.long     0x000011c4 ->000004548  [!!!@2@:MOV       R12, #20	@@: NOP      
     2fc:	cc 11 00 00 	.long     0x000011cc ->000004556  [!!!@2@:MOV       R12, #28	@@: NOP      
     300:	d4 11 00 00 	.long     0x000011d4 ->000004564  [!!!@2@:MOV       LR, #20	@@: NOP      
     304:	00 80 01 00 	.long     0x00018000 ->000098304  [!!!@2@:LD.B      R0, [R0]	@@: .short    0x0001
     308:	d8 11 00 00 	.long     0x000011d8 ->000004568  [!!!@2@:MOV       LR, #24	@@: NOP      
     30c:	00 c2 01 00 	.long     0x0001c200 ->000115200  [!!!@2@:ADD       R0, R0, R0	@@: .short    0x0001
     310:	80 25 00 00 	.long     0x00002580 ->000009600  [!!!@2@:ST.W      [SP + #128], R5	@@: NOP      
     314:	e8 11 00 00 	.long     0x000011e8 ->000004584  [!!!@2@:MOV       SP, #24	@@: NOP      
##@@@P_:bsp_usart.c:76
##@@@L0071_:    if (COM_BAUD[com_id] == 115200) {   
##@@@L0072_:        USART_InitStructure.m_BaudRateInteger = 8;   
##@@@L0073_:        USART_InitStructure.m_BaudRateNumerator = 1;   
##@@@L0074_:        USART_InitStructure.m_BaudRateDenominator = 13;   
##@@@L0075_:    } else if (COM_BAUD[com_id] == 9600) {   
##@@@L0076_:        USART_InitStructure.m_BaudRateInteger = 104;   
     318:	48 16       	MOV       R4, #104			;->0x0068
     31a:	97 e2       	ST.H      [SP + #23], R4
##@@@P_:bsp_usart.c:77
##@@@L0077_:        USART_InitStructure.m_BaudRateNumerator = 0;   
     31c:	b8 e2       	ST.H      [SP + #24], R5
##@@@P_:bsp_usart.c:78
##@@@L0078_:        USART_InitStructure.m_BaudRateDenominator = 0;   
     31e:	b9 e2       	ST.H      [SP + #25], R5
     320:	c7 07       	SJMP      $-57                  ;->0x2ae
##@@@P_:bsp_usart.c:72
##@@@L0067_:    9600:z=104 x=0 y=0,    
##@@@L0068_:    19200:z=52 x=0 y=0,    
##@@@L0069_:    115200:z=8 x=1 y=13    
##@@@L0070_:    */   
##@@@L0071_:    if (COM_BAUD[com_id] == 115200) {   
##@@@L0072_:        USART_InitStructure.m_BaudRateInteger = 8;   
     322:	58 10       	MOV       R5, #8			;->0x0008
     324:	b7 e2       	ST.H      [SP + #23], R5
##@@@P_:bsp_usart.c:73
##@@@L0073_:        USART_InitStructure.m_BaudRateNumerator = 1;   
     326:	51 10       	MOV       R5, #1			;->0x0001
     328:	b8 e2       	ST.H      [SP + #24], R5
##@@@P_:bsp_usart.c:74
##@@@L0074_:        USART_InitStructure.m_BaudRateDenominator = 13;   
     32a:	5d 10       	MOV       R5, #13			;->0x000D
     32c:	b9 e2       	ST.H      [SP + #25], R5
     32e:	c0 07       	SJMP      $-64                  ;->0x2ae

00000330 <iap_is_app_valid>:
##@@@F_:iap_get_appstackpointer():
##@@@P_:boot.c:56
##@@@L0051_: * @param  app_addr: App ķ”¢Õ£░ÕØĆ   
##@@@L0052_: * @return * App ńÜäÕłØÕ¦ŗõĖ╗ÕĀåµĀłµīćķÆłÕĆ╝   
##@@@L0053_: */   
##@@@L0054_:static uint32_t iap_get_appstackpointer(uint32_t app_addr)   
##@@@L0055_:{   
##@@@L0056_:    return (*((volatile uint32_t *)app_addr));   
     330:	50 82       	LD.W      R5, [R0]
##@@@F_:iap_is_app_valid():
##@@@P_:boot.c:26
##@@@L0021_: */   
##@@@L0022_:uint8_t iap_is_app_valid(uint32_t app_addr)   
##@@@L0023_:{   
##@@@L0024_:    uint32_t app_stack = iap_get_appstackpointer(app_addr);   
##@@@L0025_:
##@@@L0026_:    if ((app_stack < SRAM_START_ADDR) || (app_stack > SRAM_END_ADDR) || ((app_stack & 0x3U) != 0U))   
     332:	31 10       	MOV       R3, #1			;->0x0001
     334:	9c 7b       	LSL       R3, #28			;->0x1C
     336:	dd c6       	SUB       R3, R5, R3
##@@@P_:boot.c:28
##@@@L0027_:    {   
##@@@L0028_:        return 0;   
     338:	00 10       	MOV       R0, #0			;->0x0000
##@@@P_:boot.c:26
##@@@L0021_: */   
##@@@L0022_:uint8_t iap_is_app_valid(uint32_t app_addr)   
##@@@L0023_:{   
##@@@L0024_:    uint32_t app_stack = iap_get_appstackpointer(app_addr);   
##@@@L0025_:
##@@@L0026_:    if ((app_stack < SRAM_START_ADDR) || (app_stack > SRAM_END_ADDR) || ((app_stack & 0x3U) != 0U))   
     33a:	06 44       	LD        R4, [PC + #6]         ;->0x350  :=0x18000
     33c:	34 70       	CMP       R3, R4
     33e:	07 f8       	JHI       $+7                   ;->0x34c
##@@@P_:boot.c:26 (discriminator 1)
     340:	43 10       	MOV       R4, #3			;->0x0003
     342:	2d d5       	ANL       R5, R5, R4
     344:	41 10       	MOV       R4, #1			;->0x0001
     346:	50 70       	CMP       R5, R0
     348:	06 f1       	JNZ       $+6                   ;->0x354
##@@@P_:boot.c:28
##@@@L0027_:    {   
##@@@L0028_:        return 0;   
     34a:	04 d1       	ZXT.B     R0, R4
##@@@P_:boot.c:32
##@@@L0029_:    }   
##@@@L0030_:
##@@@L0031_:    return 1;   
##@@@L0032_:}   
     34c:	1d 5c       	JMP       LR
     34e:	00 00       	NOP      NOP      
     350:	00 80 01 00 	.long     0x00018000 ->000098304  [!!!@2@:LD.B      R0, [R0]	@@: .short    0x0001
##@@@P_:boot.c:26 (discriminator 1)
##@@@L0021_: */   
##@@@L0022_:uint8_t iap_is_app_valid(uint32_t app_addr)   
##@@@L0023_:{   
##@@@L0024_:    uint32_t app_stack = iap_get_appstackpointer(app_addr);   
##@@@L0025_:
##@@@L0026_:    if ((app_stack < SRAM_START_ADDR) || (app_stack > SRAM_END_ADDR) || ((app_stack & 0x3U) != 0U))   
     354:	80 58       	MOV       R4, R0
##@@@P_:boot.c:28
##@@@L0027_:    {   
##@@@L0028_:        return 0;   
     356:	04 d1       	ZXT.B     R0, R4
     358:	fa 07       	SJMP      $-6                   ;->0x34c
	...

0000035c <iap_jump_to_app>:
##@@@F_:iap_jump_to_app():
##@@@P_:boot.c:40
##@@@L0035_: * @brief : ĶĘ│ĶĮ¼Õł░ App ń©ŗÕ║Åµē¦ĶĪī   
##@@@L0036_: * @param  app_addr: App ķ”¢Õ£░ÕØĆ   
##@@@L0037_: * @return * µŚĀ   
##@@@L0038_: */   
##@@@L0039_:void iap_jump_to_app(uint32_t app_addr)   
##@@@L0040_:{   
     35c:	2d 5d       	PUSH      LR
##@@@P_:boot.c:41
##@@@L0041_:    SYS_VECTOFF = app_addr; //Ķ«ŠńĮ«ÕÉæķćÅĶĪ©ÕüÅń¦╗ÕĆ╝’╝īÕŹ│ķćŹµśĀÕ░äÕÉæķćÅĶĪ©’╝īĶ┐ÖÕ»╣õĖŁµ¢Łµ£ŹÕŖĪÕćĮµĢ░µŁŻńĪ«µē¦ĶĪīĶć│Õģ│ķćŹĶ”ü   
     35e:	04 45       	LD        R5, [PC + #4]         ;->0x36c  :=0x402000b0
     360:	e8 a0       	ST.W      [R5 + #3], R0
##@@@F_:iap_get_jumpaddress():
##@@@P_:boot.c:66
##@@@L0061_: * @param  app_addr: App ķ”¢Õ£░ÕØĆ   
##@@@L0062_: * @return * App ńÜä Reset_Handler Õ£░ÕØĆ   
##@@@L0063_: */   
##@@@L0064_:static uint32_t iap_get_jumpaddress(uint32_t app_addr)   
##@@@L0065_:{   
##@@@L0066_:    return (*((volatile uint32_t *)(app_addr + 4U)));   
     362:	68 98       	LD.W      R5, [R0 + #1]
##@@@F_:iap_jump_to_app():
##@@@P_:boot.c:45
##@@@L0040_:{   
##@@@L0041_:    SYS_VECTOFF = app_addr; //Ķ«ŠńĮ«ÕÉæķćÅĶĪ©ÕüÅń¦╗ÕĆ╝’╝īÕŹ│ķćŹµśĀÕ░äÕÉæķćÅĶĪ©’╝īĶ┐ÖÕ»╣õĖŁµ¢Łµ£ŹÕŖĪÕćĮµĢ░µŁŻńĪ«µē¦ĶĪīĶć│Õģ│ķćŹĶ”ü   
##@@@L0042_:    uint32_t jump_address = iap_get_jumpaddress(app_addr); //ĶÄĘÕÅ¢APPńÜästartup()ÕģźÕÅŻÕ£░ÕØĆ   
##@@@L0043_:    pFunction jump_to_app = (pFunction)jump_address; //Õ░åstartup()ÕģźÕÅŻÕ£░ÕØĆĶĄŗÕĆ╝ń╗ÖÕćĮµĢ░µīćķÆł   
##@@@L0044_:
##@@@L0045_:    jump_to_app(); //õĮ┐ńö©µ¢░ńÜäÕćĮµĢ░µīćķÆł’╝īĶĮ¼ÕÉæµē¦ĶĪīAPPńÜästartup()ÕćĮµĢ░’╝īĶ┐ÖÕ░åÕ»╝Ķć┤APPń©ŗÕ║ÅÕÉ»ÕŖ©   
     364:	05 5c       	LJMP      R5  ; <????>
##@@@P_:boot.c:47
##@@@L0046_:
##@@@L0047_:}   
     366:	0d 5d       	POP       LR
     368:	1d 5c       	JMP       LR
     36a:	00 00       	NOP      NOP      
     36c:	b0 00 20 40 	.long     0x402000b0 ->1075839152 

00000370 <delay_ms>:
##@@@F_:delay_ms():
##@@@P_:delay.c:12
##@@@L0007_: * @brief : Õ╗ČµŚČnms   
##@@@L0008_: * @param  nms: Õ╗ČµŚČµŚČķŚ┤’╝īÕŹĢõĮŹ’╝Üms   
##@@@L0009_: * @return *   
##@@@L0010_: */   
##@@@L0011_:void delay_ms(volatile uint32_t nms)   
##@@@L0012_:{   
     370:	ec 30       	SUB       SP, #12			;->0x0C
     372:	02 20       	ST.W      [SP + #2], R0
##@@@P_:delay.c:14
##@@@L0013_:	volatile uint32_t i,j;   
##@@@L0014_:	for(i=0;i<nms;i++)   
     374:	50 10       	MOV       R5, #0			;->0x0000
     376:	01 25       	ST.W      [SP + #1], R5
     378:	01 0d       	LD.W      R5, [SP + #1]
     37a:	02 0c       	LD.W      R4, [SP + #2]
     37c:	45 70       	CMP       R4, R5
     37e:	0f f9       	JLS       $+15                  ;->0x39c
##@@@P_:delay.c:16
##@@@L0015_:	{   
##@@@L0016_:		j=DELAY_MS_LOOP_COUNT;   
     380:	08 43       	LD        R3, [PC + #8]         ;->0x3a0  :=0x17a2
     382:	e3 85       	ST.W      [SP], R3
##@@@P_:delay.c:17 (discriminator 1)
##@@@L0017_:		while(j--);   
     384:	5e 82       	LD.W      R5, [SP]
     386:	65 cc       	SUB       R4, R5, #1
     388:	e4 85       	ST.W      [SP], R4
     38a:	50 38       	CMP       R5, #0			;->0x00
     38c:	fc f1       	JNZ       $-4                   ;->0x384
##@@@P_:delay.c:14
##@@@L0009_: * @return *   
##@@@L0010_: */   
##@@@L0011_:void delay_ms(volatile uint32_t nms)   
##@@@L0012_:{   
##@@@L0013_:	volatile uint32_t i,j;   
##@@@L0014_:	for(i=0;i<nms;i++)   
     38e:	01 0d       	LD.W      R5, [SP + #1]
     390:	6d c0       	ADD       R5, R5, #1
     392:	01 25       	ST.W      [SP + #1], R5
     394:	01 0d       	LD.W      R5, [SP + #1]
     396:	02 0c       	LD.W      R4, [SP + #2]
     398:	45 70       	CMP       R4, R5
     39a:	f4 f8       	JHI       $-12                  ;->0x382
##@@@P_:delay.c:20
##@@@L0015_:	{   
##@@@L0016_:		j=DELAY_MS_LOOP_COUNT;   
##@@@L0017_:		while(j--);   
##@@@L0018_:	}   
##@@@L0019_:
##@@@L0020_:}   
     39c:	ec 28       	ADD       SP, #12			;->0x0C
     39e:	1d 5c       	JMP       LR
     3a0:	a2 17 00 00 	.long     0x000017a2 ->000006050  [!!!@2@:MOV       R10, #114	@@: NOP      

000003a4 <GPIO_Pin_Lock_Config>:
##@@@F_:GPIO_Pin_Lock_Config():
##@@@P_:kf32f_basic_gpio.c:643
##@@@L0638_:    else   
##@@@L0639_:    {   
##@@@L0640_:        /* ķĆ╗ĶŠæõĮÄńöĄÕ╣│ */   
##@@@L0641_:        GPIOx->POR &= ~((uint32_t)GpioPin);   
##@@@L0642_:    }   
##@@@L0643_:}   
     3a4:	11 d0       	ZXT.H     R1, R1
     3a6:	e0 99       	LD.W      R4, [R0 + #7]
     3a8:	04 45       	LD        R5, [PC + #4]         ;->0x3b8  :=0x5c5a0000
     3aa:	6c d7       	ORL       R5, R4, R5
     3ac:	20 38       	CMP       R2, #0			;->0x00
     3ae:	07 f1       	JNZ       $+7                   ;->0x3bc
     3b0:	11 68       	NOT       R1, R1
     3b2:	69 d5       	ANL       R5, R1, R5
     3b4:	c5 a1       	ST.W      [R0 + #7], R5
     3b6:	1d 5c       	JMP       LR
     3b8:	00 00 5a 5c 	.long     0x5c5a0000 ->1549402112  [!!!@2@:NOP      	@@: MOVH      R26, #23642
     3bc:	69 d7       	ORL       R5, R1, R5
     3be:	c5 a1       	ST.W      [R0 + #7], R5
     3c0:	1d 5c       	JMP       LR

000003c2 <GPIO_Write_Mode_Bits>:
##@@@F_:GPIO_Write_Mode_Bits():
     3c2:	03 5f       	PUSH      {R6-R7}
     3c4:	11 d0       	ZXT.H     R1, R1
     3c6:	58 99       	LD.W      R3, [R0 + #5]
     3c8:	10 38       	CMP       R1, #0			;->0x00
     3ca:	0f f0       	JZ        $+15                  ;->0x3e8
     3cc:	50 10       	MOV       R5, #0			;->0x0000
     3ce:	61 10       	MOV       R6, #1			;->0x0001
     3d0:	73 10       	MOV       R7, #3			;->0x0003
     3d2:	a1 d5       	ANL       R4, R1, R6
     3d4:	06 f0       	JZ        $+6                   ;->0x3e0
     3d6:	67 db       	LSL       R4, R7, R5
     3d8:	44 68       	NOT       R4, R4
     3da:	dc d4       	ANL       R3, R4, R3
     3dc:	62 db       	LSL       R4, R2, R5
     3de:	1b d7       	ORL       R3, R3, R4
     3e0:	09 7c       	LSR       R1, #1			;->0x01
     3e2:	ad c0       	ADD       R5, R5, #2
     3e4:	10 38       	CMP       R1, #0			;->0x00
     3e6:	f6 f1       	JNZ       $-10                  ;->0x3d2
     3e8:	43 a1       	ST.W      [R0 + #5], R3
     3ea:	03 5e       	POP       {R6-R7}
     3ec:	1d 5c       	JMP       LR

000003ee <GPIO_Toggle_Output_Data_Config>:
##@@@F_:GPIO_Toggle_Output_Data_Config():
##@@@P_:kf32f_basic_gpio.c:654
##@@@L0649_:  *                õĖĆõĖ¬µł¢ÕżÜõĖ¬ń╗äÕÉłŃĆé   
##@@@L0650_:  * Ķ┐öÕø×  µŚĀŃĆé   
##@@@L0651_:  */   
##@@@L0652_:void   
##@@@L0653_:GPIO_Toggle_Output_Data_Config (GPIO_SFRmap* GPIOx, uint16_t GpioPin)   
##@@@L0654_:{   
     3ee:	11 d0       	ZXT.H     R1, R1
##@@@P_:kf32f_basic_gpio.c:659
##@@@L0655_:    /* ÕÅéµĢ░µĀĪķ¬ī */   
##@@@L0656_:    CHECK_RESTRICTION(CHECK_GPIO_ALL_PERIPH(GPIOx));   
##@@@L0657_:
##@@@L0658_:    /*----------- Ķ«ŠńĮ«GPIOx_PORÕ»äÕŁśÕÖ© -----------*/   
##@@@L0659_:    GPIOx->POR ^= (uint32_t)GpioPin;   
     3f0:	68 98       	LD.W      R5, [R0 + #1]
     3f2:	49 d9       	XRL       R1, R1, R5
     3f4:	41 a0       	ST.W      [R0 + #1], R1
##@@@P_:kf32f_basic_gpio.c:660
##@@@L0660_:}   
     3f6:	1d 5c       	JMP       LR

000003f8 <GPIO_Pin_RMP_Config>:
##@@@F_:GPIO_Pin_RMP_Config():
##@@@P_:kf32f_basic_gpio.c:737
##@@@L0732_:  * Ķ┐öÕø×  µŚĀŃĆé   
##@@@L0733_:  */   
##@@@L0734_:void   
##@@@L0735_:GPIO_Pin_RMP_Config (GPIO_SFRmap* GPIOx,   
##@@@L0736_:                    uint16_t GpioPinNum, uint8_t PinRemap)   
##@@@L0737_:{   
     3f8:	11 d0       	ZXT.H     R1, R1
     3fa:	22 d1       	ZXT.B     R2, R2
##@@@P_:kf32f_basic_gpio.c:747
##@@@L0742_:    CHECK_RESTRICTION(CHECK_GPIO_ALL_PERIPH(GPIOx));   
##@@@L0743_:    CHECK_RESTRICTION(CHECK_GPIO_PIN_NUM(GpioPinNum));   
##@@@L0744_:    CHECK_RESTRICTION(CHECK_GPIO_RMP(PinRemap));   
##@@@L0745_:
##@@@L0746_:    /* ĶÄĘÕÅ¢ÕÄ¤Õ¦ŗGPIO_RMPH/LµĢ░µŹ« */   
##@@@L0747_:    tmpreg1 = GPIOx->RMP[GpioPinNum >> 0x03];   
     3fc:	43 10       	MOV       R4, #3			;->0x0003
     3fe:	29 dd       	LSR       R5, R1, R4
     400:	58 28       	ADD       R5, #8			;->0x08
     402:	2a 7a       	LSL       R5, #2			;->0x02
     404:	58 e9       	LD.W      R3, [R0 + R5]
##@@@P_:kf32f_basic_gpio.c:750
##@@@L0748_:
##@@@L0749_:    /* õ┐«µö╣Õ»╣Õ║öńÜäµĢ░ÕĆ╝ */   
##@@@L0750_:    tmpreg = ((uint32_t)PinRemap << (((uint32_t)GpioPinNum & 0x07) * 4));   
     406:	47 10       	MOV       R4, #7			;->0x0007
     408:	09 d5       	ANL       R1, R1, R4
     40a:	0a 7a       	LSL       R1, #2			;->0x02
##@@@P_:kf32f_basic_gpio.c:751
##@@@L0751_:    tmpreg1 &= ~((uint32_t)0xF << (((uint32_t)GpioPinNum & 0x07) * 4));   
     40c:	4f 10       	MOV       R4, #15			;->0x000F
     40e:	64 da       	LSL       R4, R4, R1
     410:	44 68       	NOT       R4, R4
     412:	e4 d4       	ANL       R4, R4, R3
##@@@P_:kf32f_basic_gpio.c:750
##@@@L0745_:
##@@@L0746_:    /* ĶÄĘÕÅ¢ÕÄ¤Õ¦ŗGPIO_RMPH/LµĢ░µŹ« */   
##@@@L0747_:    tmpreg1 = GPIOx->RMP[GpioPinNum >> 0x03];   
##@@@L0748_:
##@@@L0749_:    /* õ┐«µö╣Õ»╣Õ║öńÜäµĢ░ÕĆ╝ */   
##@@@L0750_:    tmpreg = ((uint32_t)PinRemap << (((uint32_t)GpioPinNum & 0x07) * 4));   
     414:	4a da       	LSL       R1, R2, R1
##@@@P_:kf32f_basic_gpio.c:752
##@@@L0751_:    tmpreg1 &= ~((uint32_t)0xF << (((uint32_t)GpioPinNum & 0x07) * 4));   
##@@@L0752_:    tmpreg1 = tmpreg1 | tmpreg;   
     416:	4c d6       	ORL       R1, R4, R1
##@@@P_:kf32f_basic_gpio.c:755
##@@@L0753_:
##@@@L0754_:    /* ķģŹńĮ«GPIO_RMPH/LµĢ░µŹ« */   
##@@@L0755_:    GPIOx->RMP[GpioPinNum >> 0x03] = tmpreg1;   
     418:	41 ef       	ST.W      [R0 + R5], R1
##@@@P_:kf32f_basic_gpio.c:756
##@@@L0756_:}   
     41a:	1d 5c       	JMP       LR

0000041c <OSC_LFCK_Division_Config>:
##@@@F_:OSC_LFCK_Division_Config():
##@@@P_:kf32f_basic_osc.c:1619
##@@@L1614_:    else   
##@@@L1615_:    {   
##@@@L1616_:        /* PLLµ£¬ķöüÕ«Ü */   
##@@@L1617_:        return RESET;   
##@@@L1618_:    }   
##@@@L1619_:}   
     41c:	51 10       	MOV       R5, #1			;->0x0001
     41e:	ae 7b       	LSL       R5, #30			;->0x1E
     420:	45 82       	LD.W      R4, [R5]
     422:	80 7b       	LSL       R0, #24			;->0x18
##@@@F_:SFR_Config():
     424:	03 43       	LD        R3, [PC + #3]         ;->0x430  :=0xf8ffffff
     426:	e4 d4       	ANL       R4, R4, R3
     428:	20 d7       	ORL       R4, R0, R4
##@@@F_:OSC_LFCK_Division_Config():
     42a:	54 85       	ST.W      [R5], R4
     42c:	1d 5c       	JMP       LR
     42e:	00 00       	NOP      NOP      
     430:	ff ff ff f8 	.long     0xf8ffffff ->-117440513 

00000434 <OSC_HFCK_Division_Config>:
##@@@F_:OSC_HFCK_Division_Config():
     434:	51 10       	MOV       R5, #1			;->0x0001
     436:	ae 7b       	LSL       R5, #30			;->0x1E
     438:	45 82       	LD.W      R4, [R5]
     43a:	04 7b       	LSL       R0, #20			;->0x14
##@@@F_:SFR_Config():
     43c:	03 43       	LD        R3, [PC + #3]         ;->0x448  :=0xff0fffff
     43e:	e4 d4       	ANL       R4, R4, R3
     440:	20 d7       	ORL       R4, R0, R4
##@@@F_:OSC_HFCK_Division_Config():
     442:	54 85       	ST.W      [R5], R4
     444:	1d 5c       	JMP       LR
     446:	00 00       	NOP      NOP      
     448:	ff ff 0f ff 	.long     0xff0fffff ->-15728641 

0000044c <OSC_SCK_Division_Config>:
##@@@F_:OSC_SCK_Division_Config():
     44c:	51 10       	MOV       R5, #1			;->0x0001
     44e:	ae 7b       	LSL       R5, #30			;->0x1E
     450:	45 82       	LD.W      R4, [R5]
     452:	00 7b       	LSL       R0, #16			;->0x10
##@@@F_:SFR_Config():
     454:	03 43       	LD        R3, [PC + #3]         ;->0x460  :=0xfff8ffff
     456:	e4 d4       	ANL       R4, R4, R3
     458:	20 d7       	ORL       R4, R0, R4
##@@@F_:OSC_SCK_Division_Config():
     45a:	54 85       	ST.W      [R5], R4
     45c:	1d 5c       	JMP       LR
     45e:	00 00       	NOP      NOP      
     460:	ff ff f8 ff 	.long     0xfff8ffff ->-00458753 

00000464 <OSC_PLL_Input_Source_Config>:
##@@@F_:OSC_PLL_Input_Source_Config():
     464:	51 10       	MOV       R5, #1			;->0x0001
     466:	ae 7b       	LSL       R5, #30			;->0x1E
     468:	00 38       	CMP       R0, #0			;->0x00
     46a:	03 f1       	JNZ       $+3                   ;->0x470
     46c:	ac 4e       	CLR       [R5], #12			;->0x0C
     46e:	1d 5c       	JMP       LR
     470:	ac 4c       	SET       [R5], #12			;->0x0C
     472:	1d 5c       	JMP       LR

00000474 <OSC_HFCK_Source_Config>:
##@@@F_:OSC_HFCK_Source_Config():
     474:	51 10       	MOV       R5, #1			;->0x0001
     476:	ae 7b       	LSL       R5, #30			;->0x1E
     478:	45 82       	LD.W      R4, [R5]
     47a:	81 7a       	LSL       R0, #9			;->0x09
##@@@F_:SFR_Config():
     47c:	03 43       	LD        R3, [PC + #3]         ;->0x488  :=0xfffff1ff
     47e:	e4 d4       	ANL       R4, R4, R3
     480:	20 d7       	ORL       R4, R0, R4
##@@@F_:OSC_HFCK_Source_Config():
     482:	54 85       	ST.W      [R5], R4
     484:	1d 5c       	JMP       LR
     486:	00 00       	NOP      NOP      
     488:	ff f1 ff ff 	.long     0xfffff1ff ->-00003585 

0000048c <OSC_HFCK_Enable>:
##@@@F_:OSC_HFCK_Enable():
     48c:	51 10       	MOV       R5, #1			;->0x0001
     48e:	ae 7b       	LSL       R5, #30			;->0x1E
     490:	00 38       	CMP       R0, #0			;->0x00
     492:	03 f1       	JNZ       $+3                   ;->0x498
     494:	a8 4e       	CLR       [R5], #8			;->0x08
     496:	1d 5c       	JMP       LR
     498:	a8 4c       	SET       [R5], #8			;->0x08
     49a:	1d 5c       	JMP       LR

0000049c <OSC_LFCK_Source_Config>:
##@@@F_:OSC_LFCK_Source_Config():
     49c:	51 10       	MOV       R5, #1			;->0x0001
     49e:	ae 7b       	LSL       R5, #30			;->0x1E
     4a0:	00 38       	CMP       R0, #0			;->0x00
     4a2:	03 f1       	JNZ       $+3                   ;->0x4a8
     4a4:	2e 4e       	CLR       [R5], #6			;->0x06
     4a6:	1d 5c       	JMP       LR
     4a8:	2e 4c       	SET       [R5], #6			;->0x06
     4aa:	1d 5c       	JMP       LR

000004ac <OSC_LFCK_Enable>:
##@@@F_:OSC_LFCK_Enable():
     4ac:	51 10       	MOV       R5, #1			;->0x0001
     4ae:	ae 7b       	LSL       R5, #30			;->0x1E
     4b0:	00 38       	CMP       R0, #0			;->0x00
     4b2:	03 f1       	JNZ       $+3                   ;->0x4b8
     4b4:	2c 4e       	CLR       [R5], #4			;->0x04
     4b6:	1d 5c       	JMP       LR
     4b8:	2c 4c       	SET       [R5], #4			;->0x04
     4ba:	1d 5c       	JMP       LR

000004bc <OSC_SCK_Source_Config>:
##@@@F_:OSC_SCK_Source_Config():
     4bc:	51 10       	MOV       R5, #1			;->0x0001
     4be:	ae 7b       	LSL       R5, #30			;->0x1E
     4c0:	45 82       	LD.W      R4, [R5]
     4c2:	00 c2       	ADD       R0, R0, R0
##@@@F_:SFR_Config():
     4c4:	3e 10       	MOV       R3, #14			;->0x000E
     4c6:	33 68       	NOT       R3, R3
     4c8:	e4 d4       	ANL       R4, R4, R3
     4ca:	20 d7       	ORL       R4, R0, R4
##@@@F_:OSC_SCK_Source_Config():
     4cc:	54 85       	ST.W      [R5], R4
     4ce:	1d 5c       	JMP       LR

000004d0 <OSC_PLL_Multiple_Value_Select>:
##@@@F_:OSC_PLL_Multiple_Value_Select():
     4d0:	10 45       	LD        R5, [PC + #16]        ;->0x510  :=0x40002580
     4d2:	45 82       	LD.W      R4, [R5]
     4d4:	02 7a       	LSL       R0, #2			;->0x02
##@@@F_:SFR_Config():
     4d6:	10 43       	LD        R3, [PC + #16]        ;->0x514  :=0xffff0003
     4d8:	e4 d4       	ANL       R4, R4, R3
     4da:	20 d7       	ORL       R4, R0, R4
##@@@F_:OSC_PLL_Multiple_Value_Select():
     4dc:	54 85       	ST.W      [R5], R4
     4de:	45 82       	LD.W      R4, [R5]
     4e0:	08 7b       	LSL       R1, #16			;->0x10
##@@@F_:SFR_Config():
     4e2:	0e 43       	LD        R3, [PC + #14]        ;->0x518  :=0xfff0ffff
     4e4:	e4 d4       	ANL       R4, R4, R3
     4e6:	21 d7       	ORL       R4, R1, R4
##@@@F_:OSC_PLL_Multiple_Value_Select():
     4e8:	54 85       	ST.W      [R5], R4
     4ea:	28 38       	CMP       R2, #8			;->0x08
     4ec:	18 f0       	JZ        $+24                  ;->0x51c
     4ee:	24 38       	CMP       R2, #4			;->0x04
     4f0:	22 f0       	JZ        $+34                  ;->0x534
     4f2:	22 38       	CMP       R2, #2			;->0x02
     4f4:	2c f0       	JZ        $+44                  ;->0x54c
     4f6:	40 10       	MOV       R4, #0			;->0x0000
     4f8:	21 38       	CMP       R2, #1			;->0x01
     4fa:	03 f0       	JZ        $+3                   ;->0x500
     4fc:	54 11       	MOV       R5, #20			;->0x0014
     4fe:	62 db       	LSL       R4, R2, R5
     500:	04 45       	LD        R5, [PC + #4]         ;->0x510  :=0x40002580
     502:	35 82       	LD.W      R3, [R5]
##@@@F_:SFR_Config():
     504:	1c 4b       	CLR       R3, #20			;->0x14
     506:	1d 4b       	CLR       R3, #21			;->0x15
     508:	e4 d6       	ORL       R4, R4, R3
##@@@F_:OSC_PLL_Multiple_Value_Select():
     50a:	54 85       	ST.W      [R5], R4
     50c:	1d 5c       	JMP       LR
     50e:	00 00       	NOP      NOP      
     510:	80 25 00 40 	.long     0x40002580 ->1073751424  [!!!@2@:ST.W      [SP + #128], R5	@@: LD        R0, [PC + #0]         ;->0x510  :=0x40002580
     514:	03 00 ff ff 	.long     0xffff0003 ->-00065533 
     518:	ff ff f0 ff 	.long     0xfff0ffff ->-00983041 
     51c:	04 44       	LD        R4, [PC + #4]         ;->0x52c  :=0x300000
     51e:	05 45       	LD        R5, [PC + #5]         ;->0x530  :=0x40002580
     520:	35 82       	LD.W      R3, [R5]
##@@@F_:SFR_Config():
     522:	1c 4b       	CLR       R3, #20			;->0x14
     524:	1d 4b       	CLR       R3, #21			;->0x15
     526:	e4 d6       	ORL       R4, R4, R3
##@@@F_:OSC_PLL_Multiple_Value_Select():
     528:	54 85       	ST.W      [R5], R4
     52a:	1d 5c       	JMP       LR
     52c:	00 00 30 00 	.long     0x00300000 ->003145728 
     530:	80 25 00 40 	.long     0x40002580 ->1073751424  [!!!@2@:ST.W      [SP + #128], R5	@@: LD        R0, [PC + #0]         ;->0x530  :=0x40002580
     534:	41 10       	MOV       R4, #1			;->0x0001
     536:	25 7b       	LSL       R4, #21			;->0x15
     538:	04 45       	LD        R5, [PC + #4]         ;->0x548  :=0x40002580
     53a:	35 82       	LD.W      R3, [R5]
##@@@F_:SFR_Config():
     53c:	1c 4b       	CLR       R3, #20			;->0x14
     53e:	1d 4b       	CLR       R3, #21			;->0x15
     540:	e4 d6       	ORL       R4, R4, R3
##@@@F_:OSC_PLL_Multiple_Value_Select():
     542:	54 85       	ST.W      [R5], R4
     544:	1d 5c       	JMP       LR
     546:	00 00       	NOP      NOP      
     548:	80 25 00 40 	.long     0x40002580 ->1073751424  [!!!@2@:ST.W      [SP + #128], R5	@@: LD        R0, [PC + #0]         ;->0x548  :=0x40002580
     54c:	41 10       	MOV       R4, #1			;->0x0001
     54e:	24 7b       	LSL       R4, #20			;->0x14
     550:	04 45       	LD        R5, [PC + #4]         ;->0x560  :=0x40002580
     552:	35 82       	LD.W      R3, [R5]
##@@@F_:SFR_Config():
     554:	1c 4b       	CLR       R3, #20			;->0x14
     556:	1d 4b       	CLR       R3, #21			;->0x15
     558:	e4 d6       	ORL       R4, R4, R3
##@@@F_:OSC_PLL_Multiple_Value_Select():
     55a:	54 85       	ST.W      [R5], R4
     55c:	1d 5c       	JMP       LR
     55e:	00 00       	NOP      NOP      
     560:	80 25 00 40 	.long     0x40002580 ->1073751424  [!!!@2@:ST.W      [SP + #128], R5	@@: LD        R0, [PC + #0]         ;->0x560  :=0x40002580

00000564 <OSC_PLL_RST>:
##@@@F_:OSC_PLL_RST():
     564:	02 45       	LD        R5, [PC + #2]         ;->0x56c  :=0x40002580
     566:	28 4c       	SET       [R5], #0			;->0x00
     568:	1d 5c       	JMP       LR
     56a:	00 00       	NOP      NOP      
     56c:	80 25 00 40 	.long     0x40002580 ->1073751424  [!!!@2@:ST.W      [SP + #128], R5	@@: LD        R0, [PC + #0]         ;->0x56c  :=0x40002580

00000570 <OSC_PLL_Start_Delay_Config>:
##@@@F_:OSC_PLL_Start_Delay_Config():
     570:	51 10       	MOV       R5, #1			;->0x0001
     572:	ae 7b       	LSL       R5, #30			;->0x1E
     574:	e5 98       	LD.W      R4, [R5 + #3]
     576:	80 7b       	LSL       R0, #24			;->0x18
##@@@F_:SFR_Config():
     578:	03 43       	LD        R3, [PC + #3]         ;->0x584  :=0xf0ffffff
     57a:	e4 d4       	ANL       R4, R4, R3
     57c:	20 d7       	ORL       R4, R0, R4
##@@@F_:OSC_PLL_Start_Delay_Config():
     57e:	ec a0       	ST.W      [R5 + #3], R4
     580:	1d 5c       	JMP       LR
     582:	00 00       	NOP      NOP      
     584:	ff ff ff f0 	.long     0xf0ffffff ->-251658241 

00000588 <OSC_PLL_Software_Enable>:
##@@@F_:OSC_PLL_Software_Enable():
     588:	03 45       	LD        R5, [PC + #3]         ;->0x594  :=0x4000000c
     58a:	00 38       	CMP       R0, #0			;->0x00
     58c:	06 f1       	JNZ       $+6                   ;->0x598
     58e:	2c 4e       	CLR       [R5], #4			;->0x04
     590:	1d 5c       	JMP       LR
     592:	00 00       	NOP      NOP      
     594:	0c 00 00 40 	.long     0x4000000c ->1073741836 
     598:	2c 4c       	SET       [R5], #4			;->0x04
     59a:	1d 5c       	JMP       LR

0000059c <OSC_INTHF_Software_Enable>:
##@@@F_:OSC_INTHF_Software_Enable():
     59c:	03 45       	LD        R5, [PC + #3]         ;->0x5a8  :=0x4000000c
     59e:	00 38       	CMP       R0, #0			;->0x00
     5a0:	06 f1       	JNZ       $+6                   ;->0x5ac
     5a2:	29 4e       	CLR       [R5], #1			;->0x01
     5a4:	1d 5c       	JMP       LR
     5a6:	00 00       	NOP      NOP      
     5a8:	0c 00 00 40 	.long     0x4000000c ->1073741836 
     5ac:	29 4c       	SET       [R5], #1			;->0x01
     5ae:	1d 5c       	JMP       LR

000005b0 <OSC_INTLF_Software_Enable>:
##@@@F_:OSC_INTLF_Software_Enable():
     5b0:	03 45       	LD        R5, [PC + #3]         ;->0x5bc  :=0x4000000c
     5b2:	00 38       	CMP       R0, #0			;->0x00
     5b4:	06 f1       	JNZ       $+6                   ;->0x5c0
     5b6:	28 4e       	CLR       [R5], #0			;->0x00
     5b8:	1d 5c       	JMP       LR
     5ba:	00 00       	NOP      NOP      
     5bc:	0c 00 00 40 	.long     0x4000000c ->1073741836 
     5c0:	28 4c       	SET       [R5], #0			;->0x00
     5c2:	1d 5c       	JMP       LR

000005c4 <OSC_Get_PLL_INT_Flag>:
##@@@F_:OSC_Get_PLL_INT_Flag():
     5c4:	51 10       	MOV       R5, #1			;->0x0001
     5c6:	ae 7b       	LSL       R5, #30			;->0x1E
     5c8:	85 98       	LD.W      R0, [R5 + #2]
     5ca:	04 7c       	LSR       R0, #4			;->0x04
     5cc:	51 10       	MOV       R5, #1			;->0x0001
     5ce:	40 d5       	ANL       R0, R0, R5
     5d0:	1d 5c       	JMP       LR

000005d2 <OSC_Get_INTHF_INT_Flag>:
##@@@F_:OSC_Get_INTHF_INT_Flag():
##@@@P_:kf32f_basic_osc.c:1630
##@@@L1625_:  */   
##@@@L1626_:FlagStatus   
##@@@L1627_:OSC_Get_INTHF_INT_Flag (void)   
##@@@L1628_:{   
##@@@L1629_:    /*---------------- Ķ«ŠńĮ«OSC_INTÕ»äÕŁśÕÖ©IHFIFõĮŹ ----------------*/   
##@@@L1630_:    if (OSC_INT & OSC_INT_IHFIF)   
     5d2:	51 10       	MOV       R5, #1			;->0x0001
     5d4:	ae 7b       	LSL       R5, #30			;->0x1E
     5d6:	85 98       	LD.W      R0, [R5 + #2]
     5d8:	01 7c       	LSR       R0, #1			;->0x01
##@@@P_:kf32f_basic_osc.c:1640
##@@@L1635_:    else   
##@@@L1636_:    {   
##@@@L1637_:        /* PLLµ£¬ķöüÕ«Ü */   
##@@@L1638_:        return RESET;   
##@@@L1639_:    }   
##@@@L1640_:}   
     5da:	51 10       	MOV       R5, #1			;->0x0001
     5dc:	40 d5       	ANL       R0, R0, R5
     5de:	1d 5c       	JMP       LR

000005e0 <PCLK_CTL1_Peripheral_Clock_Enable>:
##@@@F_:PCLK_CTL1_Peripheral_Clock_Enable():
##@@@P_:kf32f_basic_pclk.c:95
##@@@L0090_:    CHECK_RESTRICTION(CHECK_PCLK_CTL1_PERIPH(PCLK_CTL1_bit));   
##@@@L0091_:    CHECK_RESTRICTION(CHECK_FUNCTIONAL_STATE(NewState));   
##@@@L0092_:
##@@@L0093_:    if (NewState != FALSE)   
##@@@L0094_:    {   
##@@@L0095_:        PCLK_CTL1 |= PCLK_CTL1_bit;   
     5e0:	04 45       	LD        R5, [PC + #4]         ;->0x5f0  :=0x40002640
     5e2:	65 98       	LD.W      R4, [R5 + #1]
##@@@P_:kf32f_basic_pclk.c:93
##@@@L0088_:{   
##@@@L0089_:    /* ÕÅéµĢ░µĀĪķ¬ī */   
##@@@L0090_:    CHECK_RESTRICTION(CHECK_PCLK_CTL1_PERIPH(PCLK_CTL1_bit));   
##@@@L0091_:    CHECK_RESTRICTION(CHECK_FUNCTIONAL_STATE(NewState));   
##@@@L0092_:
##@@@L0093_:    if (NewState != FALSE)   
     5e4:	10 38       	CMP       R1, #0			;->0x00
     5e6:	07 f1       	JNZ       $+7                   ;->0x5f4
##@@@P_:kf32f_basic_pclk.c:99
##@@@L0094_:    {   
##@@@L0095_:        PCLK_CTL1 |= PCLK_CTL1_bit;   
##@@@L0096_:    }   
##@@@L0097_:    else   
##@@@L0098_:    {   
##@@@L0099_:        PCLK_CTL1 &= ~PCLK_CTL1_bit;   
     5e8:	00 68       	NOT       R0, R0
     5ea:	00 d5       	ANL       R0, R0, R4
     5ec:	68 a0       	ST.W      [R5 + #1], R0
##@@@P_:kf32f_basic_pclk.c:101
##@@@L0100_:    }   
##@@@L0101_:}   
     5ee:	1d 5c       	JMP       LR
     5f0:	40 26 00 40 	.long     0x40002640 ->1073751616  [!!!@2@:ST.W      [SP + #64], R6	@@: LD        R0, [PC + #0]         ;->0x5f0  :=0x40002640
##@@@P_:kf32f_basic_pclk.c:95
##@@@L0090_:    CHECK_RESTRICTION(CHECK_PCLK_CTL1_PERIPH(PCLK_CTL1_bit));   
##@@@L0091_:    CHECK_RESTRICTION(CHECK_FUNCTIONAL_STATE(NewState));   
##@@@L0092_:
##@@@L0093_:    if (NewState != FALSE)   
##@@@L0094_:    {   
##@@@L0095_:        PCLK_CTL1 |= PCLK_CTL1_bit;   
     5f4:	00 d7       	ORL       R0, R0, R4
     5f6:	68 a0       	ST.W      [R5 + #1], R0
##@@@P_:kf32f_basic_pclk.c:101
##@@@L0096_:    }   
##@@@L0097_:    else   
##@@@L0098_:    {   
##@@@L0099_:        PCLK_CTL1 &= ~PCLK_CTL1_bit;   
##@@@L0100_:    }   
##@@@L0101_:}   
     5f8:	1d 5c       	JMP       LR
	...

000005fc <PCLK_CTL2_Peripheral_Clock_Enable>:
##@@@F_:PCLK_CTL2_Peripheral_Clock_Enable():
##@@@P_:kf32f_basic_pclk.c:137
##@@@L0132_:    CHECK_RESTRICTION(CHECK_PCLK_CTL2_PERIPH(PCLK_CTL2_bit));   
##@@@L0133_:    CHECK_RESTRICTION(CHECK_FUNCTIONAL_STATE(NewState));   
##@@@L0134_:
##@@@L0135_:    if (NewState != FALSE)   
##@@@L0136_:    {   
##@@@L0137_:        PCLK_CTL2 |= PCLK_CTL2_bit;   
     5fc:	04 45       	LD        R5, [PC + #4]         ;->0x60c  :=0x40002640
     5fe:	a5 98       	LD.W      R4, [R5 + #2]
##@@@P_:kf32f_basic_pclk.c:135
##@@@L0130_:{   
##@@@L0131_:    /* ÕÅéµĢ░µĀĪķ¬ī */   
##@@@L0132_:    CHECK_RESTRICTION(CHECK_PCLK_CTL2_PERIPH(PCLK_CTL2_bit));   
##@@@L0133_:    CHECK_RESTRICTION(CHECK_FUNCTIONAL_STATE(NewState));   
##@@@L0134_:
##@@@L0135_:    if (NewState != FALSE)   
     600:	10 38       	CMP       R1, #0			;->0x00
     602:	07 f1       	JNZ       $+7                   ;->0x610
##@@@P_:kf32f_basic_pclk.c:141
##@@@L0136_:    {   
##@@@L0137_:        PCLK_CTL2 |= PCLK_CTL2_bit;   
##@@@L0138_:    }   
##@@@L0139_:    else   
##@@@L0140_:    {   
##@@@L0141_:        PCLK_CTL2 &= ~PCLK_CTL2_bit;   
     604:	00 68       	NOT       R0, R0
     606:	00 d5       	ANL       R0, R0, R4
     608:	a8 a0       	ST.W      [R5 + #2], R0
##@@@P_:kf32f_basic_pclk.c:143
##@@@L0142_:    }   
##@@@L0143_:}   
     60a:	1d 5c       	JMP       LR
     60c:	40 26 00 40 	.long     0x40002640 ->1073751616  [!!!@2@:ST.W      [SP + #64], R6	@@: LD        R0, [PC + #0]         ;->0x60c  :=0x40002640
##@@@P_:kf32f_basic_pclk.c:137
##@@@L0132_:    CHECK_RESTRICTION(CHECK_PCLK_CTL2_PERIPH(PCLK_CTL2_bit));   
##@@@L0133_:    CHECK_RESTRICTION(CHECK_FUNCTIONAL_STATE(NewState));   
##@@@L0134_:
##@@@L0135_:    if (NewState != FALSE)   
##@@@L0136_:    {   
##@@@L0137_:        PCLK_CTL2 |= PCLK_CTL2_bit;   
     610:	00 d7       	ORL       R0, R0, R4
     612:	a8 a0       	ST.W      [R5 + #2], R0
##@@@P_:kf32f_basic_pclk.c:143
##@@@L0138_:    }   
##@@@L0139_:    else   
##@@@L0140_:    {   
##@@@L0141_:        PCLK_CTL2 &= ~PCLK_CTL2_bit;   
##@@@L0142_:    }   
##@@@L0143_:}   
     614:	1d 5c       	JMP       LR
	...

00000618 <RST_CTL1_Peripheral_Reset_Enable>:
##@@@F_:RST_CTL1_Peripheral_Reset_Enable():
##@@@P_:kf32f_basic_rst.c:96
##@@@L0091_:    CHECK_RESTRICTION(CHECK_RST_CTL1_RESET_PERIPH(RST_CTL1_bit));   
##@@@L0092_:    CHECK_RESTRICTION(CHECK_FUNCTIONAL_STATE(NewState));   
##@@@L0093_:
##@@@L0094_:    if (NewState != FALSE)   
##@@@L0095_:    {   
##@@@L0096_:        RST_CTL1 |= RST_CTL1_bit;   
     618:	04 45       	LD        R5, [PC + #4]         ;->0x628  :=0x40001500
     61a:	65 98       	LD.W      R4, [R5 + #1]
##@@@P_:kf32f_basic_rst.c:94
##@@@L0089_:{   
##@@@L0090_:    /* ▓╬╩²ąŻčķ */   
##@@@L0091_:    CHECK_RESTRICTION(CHECK_RST_CTL1_RESET_PERIPH(RST_CTL1_bit));   
##@@@L0092_:    CHECK_RESTRICTION(CHECK_FUNCTIONAL_STATE(NewState));   
##@@@L0093_:
##@@@L0094_:    if (NewState != FALSE)   
     61c:	10 38       	CMP       R1, #0			;->0x00
     61e:	07 f1       	JNZ       $+7                   ;->0x62c
##@@@P_:kf32f_basic_rst.c:100
##@@@L0095_:    {   
##@@@L0096_:        RST_CTL1 |= RST_CTL1_bit;   
##@@@L0097_:    }   
##@@@L0098_:    else   
##@@@L0099_:    {   
##@@@L0100_:        RST_CTL1 &= ~RST_CTL1_bit;   
     620:	00 68       	NOT       R0, R0
     622:	00 d5       	ANL       R0, R0, R4
     624:	68 a0       	ST.W      [R5 + #1], R0
##@@@P_:kf32f_basic_rst.c:102
##@@@L0101_:    }   
##@@@L0102_:}   
     626:	1d 5c       	JMP       LR
     628:	00 15 00 40 	.long     0x40001500 ->1073747200  [!!!@2@:MOV       R0, #80	@@: LD        R0, [PC + #0]         ;->0x628  :=0x40001500
##@@@P_:kf32f_basic_rst.c:96
##@@@L0091_:    CHECK_RESTRICTION(CHECK_RST_CTL1_RESET_PERIPH(RST_CTL1_bit));   
##@@@L0092_:    CHECK_RESTRICTION(CHECK_FUNCTIONAL_STATE(NewState));   
##@@@L0093_:
##@@@L0094_:    if (NewState != FALSE)   
##@@@L0095_:    {   
##@@@L0096_:        RST_CTL1 |= RST_CTL1_bit;   
     62c:	00 d7       	ORL       R0, R0, R4
     62e:	68 a0       	ST.W      [R5 + #1], R0
##@@@P_:kf32f_basic_rst.c:102
##@@@L0097_:    }   
##@@@L0098_:    else   
##@@@L0099_:    {   
##@@@L0100_:        RST_CTL1 &= ~RST_CTL1_bit;   
##@@@L0101_:    }   
##@@@L0102_:}   
     630:	1d 5c       	JMP       LR
	...

00000634 <RST_CTL2_Peripheral_Reset_Enable>:
##@@@F_:RST_CTL2_Peripheral_Reset_Enable():
##@@@P_:kf32f_basic_rst.c:138
##@@@L0133_:    CHECK_RESTRICTION(CHECK_RST_CTL2_RESET_PERIPH(RST_CTL2_bit));   
##@@@L0134_:    CHECK_RESTRICTION(CHECK_FUNCTIONAL_STATE(NewState));   
##@@@L0135_:
##@@@L0136_:    if (NewState != FALSE)   
##@@@L0137_:    {   
##@@@L0138_:        RST_CTL2 |= RST_CTL2_bit;   
     634:	04 45       	LD        R5, [PC + #4]         ;->0x644  :=0x40001500
     636:	a5 98       	LD.W      R4, [R5 + #2]
##@@@P_:kf32f_basic_rst.c:136
##@@@L0131_:{   
##@@@L0132_:    /* ▓╬╩²ąŻčķ */   
##@@@L0133_:    CHECK_RESTRICTION(CHECK_RST_CTL2_RESET_PERIPH(RST_CTL2_bit));   
##@@@L0134_:    CHECK_RESTRICTION(CHECK_FUNCTIONAL_STATE(NewState));   
##@@@L0135_:
##@@@L0136_:    if (NewState != FALSE)   
     638:	10 38       	CMP       R1, #0			;->0x00
     63a:	07 f1       	JNZ       $+7                   ;->0x648
##@@@P_:kf32f_basic_rst.c:142
##@@@L0137_:    {   
##@@@L0138_:        RST_CTL2 |= RST_CTL2_bit;   
##@@@L0139_:    }   
##@@@L0140_:    else   
##@@@L0141_:    {   
##@@@L0142_:        RST_CTL2 &= ~RST_CTL2_bit;   
     63c:	00 68       	NOT       R0, R0
     63e:	00 d5       	ANL       R0, R0, R4
     640:	a8 a0       	ST.W      [R5 + #2], R0
##@@@P_:kf32f_basic_rst.c:144
##@@@L0143_:    }   
##@@@L0144_:}   
     642:	1d 5c       	JMP       LR
     644:	00 15 00 40 	.long     0x40001500 ->1073747200  [!!!@2@:MOV       R0, #80	@@: LD        R0, [PC + #0]         ;->0x644  :=0x40001500
##@@@P_:kf32f_basic_rst.c:138
##@@@L0133_:    CHECK_RESTRICTION(CHECK_RST_CTL2_RESET_PERIPH(RST_CTL2_bit));   
##@@@L0134_:    CHECK_RESTRICTION(CHECK_FUNCTIONAL_STATE(NewState));   
##@@@L0135_:
##@@@L0136_:    if (NewState != FALSE)   
##@@@L0137_:    {   
##@@@L0138_:        RST_CTL2 |= RST_CTL2_bit;   
     648:	00 d7       	ORL       R0, R0, R4
     64a:	a8 a0       	ST.W      [R5 + #2], R0
##@@@P_:kf32f_basic_rst.c:144
##@@@L0139_:    }   
##@@@L0140_:    else   
##@@@L0141_:    {   
##@@@L0142_:        RST_CTL2 &= ~RST_CTL2_bit;   
##@@@L0143_:    }   
##@@@L0144_:}   
     64c:	1d 5c       	JMP       LR
	...

00000650 <USART_Reset>:
##@@@F_:USART_Reset():
##@@@P_:kf32f_basic_usart.c:2381
##@@@L2376_:
##@@@L2377_:    /*---------------- Ķ«ŠńĮ«USART_STRÕ»äÕŁśÕÖ©RCFRõĮŹ ----------------*/   
##@@@L2378_:    SFR_SET_BIT_ASM(USARTx->STR, USART_STR_RCFR_POS);   
##@@@L2379_:    while(USARTx->STR & USART_STR_RDRIF);   
##@@@L2380_:    SFR_CLR_BIT_ASM(USARTx->STR, USART_STR_RCFR_POS);   
##@@@L2381_:}   
     650:	81 5f       	PUSH      {R6,LR}
     652:	c0 58       	MOV       R6, R0
     654:	0e 45       	LD        R5, [PC + #14]        ;->0x68c  :=0x40000980
     656:	05 70       	CMP       R0, R5
     658:	3c f0       	JZ        $+60                  ;->0x6d0
     65a:	0e 45       	LD        R5, [PC + #14]        ;->0x690  :=0x40000a00
     65c:	05 70       	CMP       R0, R5
     65e:	49 f0       	JZ        $+73                  ;->0x6f0
     660:	0d 45       	LD        R5, [PC + #13]        ;->0x694  :=0x40000a80
     662:	05 70       	CMP       R0, R5
     664:	56 f0       	JZ        $+86                  ;->0x710
     666:	0d 45       	LD        R5, [PC + #13]        ;->0x698  :=0x40000b00
     668:	05 70       	CMP       R0, R5
     66a:	63 f0       	JZ        $+99                  ;->0x730
     66c:	0c 45       	LD        R5, [PC + #12]        ;->0x69c  :=0x40000b80
     66e:	05 70       	CMP       R0, R5
     670:	70 f0       	JZ        $+112                 ;->0x750
     672:	0c 45       	LD        R5, [PC + #12]        ;->0x6a0  :=0x40001e80
     674:	65 70       	CMP       R6, R5
     676:	7d f0       	JZ        $+125                 ;->0x770
     678:	0b 45       	LD        R5, [PC + #11]        ;->0x6a4  :=0x40001f00
     67a:	65 70       	CMP       R6, R5
     67c:	02 f1       	JNZ       $+2                   ;->0x680
     67e:	89 04       	SJMP      $+137                 ;->0x790
     680:	0a 45       	LD        R5, [PC + #10]        ;->0x6a8  :=0x40001f80
     682:	65 70       	CMP       R6, R5
     684:	14 f0       	JZ        $+20                  ;->0x6ac
     686:	06 5d       	POP       R6
     688:	0d 5d       	POP       LR
     68a:	1d 5c       	JMP       LR
     68c:	80 09 00 40 	.long     0x40000980 ->1073744256  [!!!@2@:LD.W      R1, [SP + #128]	@@: LD        R0, [PC + #0]         ;->0x68c  :=0x40000980
     690:	00 0a 00 40 	.long     0x40000a00 ->1073744384  [!!!@2@:LD.W      R2, [SP + #0]	@@: LD        R0, [PC + #0]         ;->0x690  :=0x40000a00
     694:	80 0a 00 40 	.long     0x40000a80 ->1073744512  [!!!@2@:LD.W      R2, [SP + #128]	@@: LD        R0, [PC + #0]         ;->0x694  :=0x40000a80
     698:	00 0b 00 40 	.long     0x40000b00 ->1073744640  [!!!@2@:LD.W      R3, [SP + #0]	@@: LD        R0, [PC + #0]         ;->0x698  :=0x40000b00
     69c:	80 0b 00 40 	.long     0x40000b80 ->1073744768  [!!!@2@:LD.W      R3, [SP + #128]	@@: LD        R0, [PC + #0]         ;->0x69c  :=0x40000b80
     6a0:	80 1e 00 40 	.long     0x40001e80 ->1073749632  [!!!@2@:MOV       R8, #224	@@: LD        R0, [PC + #0]         ;->0x6a0  :=0x40001e80
     6a4:	00 1f 00 40 	.long     0x40001f00 ->1073749760  [!!!@2@:MOV       R0, #240	@@: LD        R0, [PC + #0]         ;->0x6a4  :=0x40001f00
     6a8:	80 1f 00 40 	.long     0x40001f80 ->1073749888  [!!!@2@:MOV       R8, #240	@@: LD        R0, [PC + #0]         ;->0x6a8  :=0x40001f80
     6ac:	01 10       	MOV       R0, #1			;->0x0001
     6ae:	87 7b       	LSL       R0, #31			;->0x1F
     6b0:	11 10       	MOV       R1, #1			;->0x0001
     6b2:	9f 00 c1 ff 	LJMP      $-63      ;->0x634  634 <RST_CTL2_Peripheral_Reset_Enable>
     6b6:	01 10       	MOV       R0, #1			;->0x0001
     6b8:	87 7b       	LSL       R0, #31			;->0x1F
     6ba:	10 10       	MOV       R1, #0			;->0x0000
     6bc:	9f 00 bc ff 	LJMP      $-68      ;->0x634  634 <RST_CTL2_Peripheral_Reset_Enable>
     6c0:	01 10       	MOV       R0, #1			;->0x0001
     6c2:	87 7b       	LSL       R0, #31			;->0x1F
     6c4:	11 10       	MOV       R1, #1			;->0x0001
     6c6:	9f 00 9b ff 	LJMP      $-101     ;->0x5fc  5fc <PCLK_CTL2_Peripheral_Clock_Enable>
     6ca:	06 5d       	POP       R6
     6cc:	0d 5d       	POP       LR
     6ce:	1d 5c       	JMP       LR
     6d0:	01 10       	MOV       R0, #1			;->0x0001
     6d2:	03 7b       	LSL       R0, #19			;->0x13
     6d4:	11 10       	MOV       R1, #1			;->0x0001
     6d6:	9f 00 a1 ff 	LJMP      $-95      ;->0x618  618 <RST_CTL1_Peripheral_Reset_Enable>
     6da:	01 10       	MOV       R0, #1			;->0x0001
     6dc:	03 7b       	LSL       R0, #19			;->0x13
     6de:	10 10       	MOV       R1, #0			;->0x0000
     6e0:	9f 00 9c ff 	LJMP      $-100     ;->0x618  618 <RST_CTL1_Peripheral_Reset_Enable>
     6e4:	01 10       	MOV       R0, #1			;->0x0001
     6e6:	03 7b       	LSL       R0, #19			;->0x13
     6e8:	11 10       	MOV       R1, #1			;->0x0001
     6ea:	9f 00 7b ff 	LJMP      $-133     ;->0x5e0  5e0 <PCLK_CTL1_Peripheral_Clock_Enable>
     6ee:	c2 07       	SJMP      $-62                  ;->0x672
     6f0:	01 10       	MOV       R0, #1			;->0x0001
     6f2:	04 7b       	LSL       R0, #20			;->0x14
     6f4:	11 10       	MOV       R1, #1			;->0x0001
     6f6:	9f 00 91 ff 	LJMP      $-111     ;->0x618  618 <RST_CTL1_Peripheral_Reset_Enable>
     6fa:	01 10       	MOV       R0, #1			;->0x0001
     6fc:	04 7b       	LSL       R0, #20			;->0x14
     6fe:	10 10       	MOV       R1, #0			;->0x0000
     700:	9f 00 8c ff 	LJMP      $-116     ;->0x618  618 <RST_CTL1_Peripheral_Reset_Enable>
     704:	01 10       	MOV       R0, #1			;->0x0001
     706:	04 7b       	LSL       R0, #20			;->0x14
     708:	11 10       	MOV       R1, #1			;->0x0001
     70a:	9f 00 6b ff 	LJMP      $-149     ;->0x5e0  5e0 <PCLK_CTL1_Peripheral_Clock_Enable>
     70e:	b2 07       	SJMP      $-78                  ;->0x672
     710:	01 10       	MOV       R0, #1			;->0x0001
     712:	05 7b       	LSL       R0, #21			;->0x15
     714:	11 10       	MOV       R1, #1			;->0x0001
     716:	9f 00 81 ff 	LJMP      $-127     ;->0x618  618 <RST_CTL1_Peripheral_Reset_Enable>
     71a:	01 10       	MOV       R0, #1			;->0x0001
     71c:	05 7b       	LSL       R0, #21			;->0x15
     71e:	10 10       	MOV       R1, #0			;->0x0000
     720:	9f 00 7c ff 	LJMP      $-132     ;->0x618  618 <RST_CTL1_Peripheral_Reset_Enable>
     724:	01 10       	MOV       R0, #1			;->0x0001
     726:	05 7b       	LSL       R0, #21			;->0x15
     728:	11 10       	MOV       R1, #1			;->0x0001
     72a:	9f 00 5b ff 	LJMP      $-165     ;->0x5e0  5e0 <PCLK_CTL1_Peripheral_Clock_Enable>
     72e:	a5 07       	SJMP      $-91                  ;->0x678
     730:	01 10       	MOV       R0, #1			;->0x0001
     732:	06 7b       	LSL       R0, #22			;->0x16
     734:	11 10       	MOV       R1, #1			;->0x0001
     736:	9f 00 71 ff 	LJMP      $-143     ;->0x618  618 <RST_CTL1_Peripheral_Reset_Enable>
     73a:	01 10       	MOV       R0, #1			;->0x0001
     73c:	06 7b       	LSL       R0, #22			;->0x16
     73e:	10 10       	MOV       R1, #0			;->0x0000
     740:	9f 00 6c ff 	LJMP      $-148     ;->0x618  618 <RST_CTL1_Peripheral_Reset_Enable>
     744:	01 10       	MOV       R0, #1			;->0x0001
     746:	06 7b       	LSL       R0, #22			;->0x16
     748:	11 10       	MOV       R1, #1			;->0x0001
     74a:	9f 00 4b ff 	LJMP      $-181     ;->0x5e0  5e0 <PCLK_CTL1_Peripheral_Clock_Enable>
     74e:	9c 07       	SJMP      $-100                 ;->0x686
     750:	01 10       	MOV       R0, #1			;->0x0001
     752:	07 7b       	LSL       R0, #23			;->0x17
     754:	11 10       	MOV       R1, #1			;->0x0001
     756:	9f 00 61 ff 	LJMP      $-159     ;->0x618  618 <RST_CTL1_Peripheral_Reset_Enable>
     75a:	01 10       	MOV       R0, #1			;->0x0001
     75c:	07 7b       	LSL       R0, #23			;->0x17
     75e:	10 10       	MOV       R1, #0			;->0x0000
     760:	9f 00 5c ff 	LJMP      $-164     ;->0x618  618 <RST_CTL1_Peripheral_Reset_Enable>
     764:	01 10       	MOV       R0, #1			;->0x0001
     766:	07 7b       	LSL       R0, #23			;->0x17
     768:	11 10       	MOV       R1, #1			;->0x0001
     76a:	9f 00 3b ff 	LJMP      $-197     ;->0x5e0  5e0 <PCLK_CTL1_Peripheral_Clock_Enable>
     76e:	8c 07       	SJMP      $-116                 ;->0x686
     770:	01 10       	MOV       R0, #1			;->0x0001
     772:	85 7b       	LSL       R0, #29			;->0x1D
     774:	11 10       	MOV       R1, #1			;->0x0001
     776:	9f 00 5f ff 	LJMP      $-161     ;->0x634  634 <RST_CTL2_Peripheral_Reset_Enable>
     77a:	01 10       	MOV       R0, #1			;->0x0001
     77c:	85 7b       	LSL       R0, #29			;->0x1D
     77e:	10 10       	MOV       R1, #0			;->0x0000
     780:	9f 00 5a ff 	LJMP      $-166     ;->0x634  634 <RST_CTL2_Peripheral_Reset_Enable>
     784:	01 10       	MOV       R0, #1			;->0x0001
     786:	85 7b       	LSL       R0, #29			;->0x1D
     788:	11 10       	MOV       R1, #1			;->0x0001
     78a:	9f 00 39 ff 	LJMP      $-199     ;->0x5fc  5fc <PCLK_CTL2_Peripheral_Clock_Enable>
     78e:	7c 07       	SJMP      $-132                 ;->0x686
     790:	01 10       	MOV       R0, #1			;->0x0001
     792:	86 7b       	LSL       R0, #30			;->0x1E
     794:	11 10       	MOV       R1, #1			;->0x0001
     796:	9f 00 4f ff 	LJMP      $-177     ;->0x634  634 <RST_CTL2_Peripheral_Reset_Enable>
     79a:	01 10       	MOV       R0, #1			;->0x0001
     79c:	86 7b       	LSL       R0, #30			;->0x1E
     79e:	10 10       	MOV       R1, #0			;->0x0000
     7a0:	9f 00 4a ff 	LJMP      $-182     ;->0x634  634 <RST_CTL2_Peripheral_Reset_Enable>
     7a4:	01 10       	MOV       R0, #1			;->0x0001
     7a6:	86 7b       	LSL       R0, #30			;->0x1E
     7a8:	11 10       	MOV       R1, #1			;->0x0001
     7aa:	9f 00 29 ff 	LJMP      $-215     ;->0x5fc  5fc <PCLK_CTL2_Peripheral_Clock_Enable>
     7ae:	6c 07       	SJMP      $-148                 ;->0x686

000007b0 <USART_Configuration>:
##@@@F_:USART_Configuration():
     7b0:	30 82       	LD.W      R3, [R0]
     7b2:	51 98       	LD.W      R2, [R1 + #1]
     7b4:	41 82       	LD.W      R4, [R1]
     7b6:	2a d7       	ORL       R5, R2, R4
     7b8:	91 98       	LD.W      R2, [R1 + #2]
     7ba:	ad d6       	ORL       R5, R5, R2
     7bc:	e1 98       	LD.W      R4, [R1 + #3]
     7be:	2d d7       	ORL       R5, R5, R4
     7c0:	51 99       	LD.W      R2, [R1 + #5]
     7c2:	ad d6       	ORL       R5, R5, R2
     7c4:	21 99       	LD.W      R4, [R1 + #4]
     7c6:	2d d7       	ORL       R5, R5, R4
     7c8:	d1 99       	LD.W      R2, [R1 + #7]
     7ca:	ad d6       	ORL       R5, R5, R2
     7cc:	21 9a       	LD.W      R4, [R1 + #8]
     7ce:	2d d7       	ORL       R5, R5, R4
     7d0:	91 99       	LD.W      R2, [R1 + #6]
     7d2:	ad d6       	ORL       R5, R5, R2
     7d4:	61 9a       	LD.W      R4, [R1 + #9]
     7d6:	2d d7       	ORL       R5, R5, R4
     7d8:	91 9a       	LD.W      R2, [R1 + #10]
     7da:	ad d6       	ORL       R5, R5, R2
     7dc:	a1 ad       	LD.H      R4, [R1 + #22]
     7de:	2d d7       	ORL       R5, R5, R4
##@@@F_:SFR_Config():
     7e0:	09 44       	LD        R4, [PC + #9]         ;->0x804  :=0xfcca3eff
     7e2:	23 d5       	ANL       R4, R3, R4
     7e4:	2d d7       	ORL       R5, R5, R4
##@@@F_:USART_Configuration():
     7e6:	05 85       	ST.W      [R0], R5
     7e8:	60 98       	LD.W      R4, [R0 + #1]
##@@@F_:SFR_Config():
     7ea:	08 45       	LD        R5, [PC + #8]         ;->0x808  :=0xff000000
     7ec:	6c d5       	ANL       R5, R4, R5
##@@@F_:USART_Configuration():
     7ee:	e1 ad       	LD.H      R4, [R1 + #23]
     7f0:	2d d7       	ORL       R5, R5, R4
     7f2:	21 ae       	LD.H      R4, [R1 + #24]
     7f4:	20 7b       	LSL       R4, #16			;->0x10
     7f6:	2d d7       	ORL       R5, R5, R4
     7f8:	61 ae       	LD.H      R4, [R1 + #25]
     7fa:	24 7b       	LSL       R4, #20			;->0x14
##@@@F_:SFR_Config():
     7fc:	2d d7       	ORL       R5, R5, R4
##@@@F_:USART_Configuration():
     7fe:	45 a0       	ST.W      [R0 + #1], R5
     800:	1d 5c       	JMP       LR
     802:	00 00       	NOP      NOP      
     804:	ff 3e ca fc 	.long     0xfcca3eff ->-53854465  [!!!@2@:CMP       PC, #111	@@: JGT       $-54                  ;->0x798
     808:	00 00 00 ff 	.long     0xff000000 ->-16777216 

0000080c <USART_Struct_Init>:
##@@@F_:USART_Struct_Init():
     80c:	50 10       	MOV       R5, #0			;->0x0000
     80e:	05 85       	ST.W      [R0], R5
     810:	45 a0       	ST.W      [R0 + #1], R5
     812:	41 10       	MOV       R4, #1			;->0x0001
     814:	a7 7a       	LSL       R4, #15			;->0x0F
     816:	84 a0       	ST.W      [R0 + #2], R4
     818:	c5 a0       	ST.W      [R0 + #3], R5
     81a:	05 a1       	ST.W      [R0 + #4], R5
     81c:	45 a1       	ST.W      [R0 + #5], R5
     81e:	85 a1       	ST.W      [R0 + #6], R5
     820:	c5 a1       	ST.W      [R0 + #7], R5
     822:	05 a2       	ST.W      [R0 + #8], R5
     824:	45 a2       	ST.W      [R0 + #9], R5
     826:	85 a2       	ST.W      [R0 + #10], R5
     828:	85 b5       	ST.H      [R0 + #22], R5
     82a:	41 10       	MOV       R4, #1			;->0x0001
     82c:	c4 b5       	ST.H      [R0 + #23], R4
     82e:	05 b6       	ST.H      [R0 + #24], R5
     830:	44 b6       	ST.H      [R0 + #25], R4
     832:	1d 5c       	JMP       LR

00000834 <USART_Cmd>:
##@@@F_:USART_Cmd():
     834:	10 38       	CMP       R1, #0			;->0x00
     836:	03 f1       	JNZ       $+3                   ;->0x83c
     838:	00 4e       	CLR       [R0], #0			;->0x00
     83a:	1d 5c       	JMP       LR
     83c:	00 4c       	SET       [R0], #0			;->0x00
     83e:	1d 5c       	JMP       LR

00000840 <USART_RESHD_Enable>:
##@@@F_:USART_RESHD_Enable():
     840:	10 38       	CMP       R1, #0			;->0x00
     842:	03 f1       	JNZ       $+3                   ;->0x848
     844:	86 4f       	CLR       [R0], #30			;->0x1E
     846:	1d 5c       	JMP       LR
     848:	86 4d       	SET       [R0], #30			;->0x1E
     84a:	1d 5c       	JMP       LR

0000084c <USART_Passageway_Select_Config>:
##@@@F_:USART_Passageway_Select_Config():
     84c:	00 29       	ADD       R0, #16			;->0x10
     84e:	10 38       	CMP       R1, #0			;->0x00
     850:	03 f1       	JNZ       $+3                   ;->0x856
     852:	04 4e       	CLR       [R0], #4			;->0x04
     854:	1d 5c       	JMP       LR
     856:	04 4c       	SET       [R0], #4			;->0x04
     858:	1d 5c       	JMP       LR

0000085a <USART_Clear_Transmit_BUFR_INT_Flag>:
##@@@F_:USART_Clear_Transmit_BUFR_INT_Flag():
##@@@P_:kf32f_basic_usart.c:2395
##@@@L2390_:{   
##@@@L2391_:    /* ÕÅéµĢ░µĀĪķ¬ī */   
##@@@L2392_:    CHECK_RESTRICTION(CHECK_USART_ALL_PERIPH(USARTx));   
##@@@L2393_:
##@@@L2394_:    /*---------------- Ķ«ŠńĮ«USART_STRÕ»äÕŁśÕÖ©TXFRõĮŹ ----------------*/   
##@@@L2395_:    SFR_SET_BIT_ASM(USARTx->STR, USART_STR_TXFR_POS);   
     85a:	58 10       	MOV       R5, #8			;->0x0008
     85c:	58 c3       	ADD       R3, R0, R5
     85e:	9a 4c       	SET       [R3], #10			;->0x0A
##@@@P_:kf32f_basic_usart.c:2396
##@@@L2396_:    while(!((USARTx->STR & USART_STR_TFEIF)>>USART_STR_TFEIF_POS));   
     860:	41 10       	MOV       R4, #1			;->0x0001
     862:	a4 7a       	LSL       R4, #12			;->0x0C
##@@@P_:kf32f_basic_usart.c:2396 (discriminator 1)
     864:	a8 98       	LD.W      R5, [R0 + #2]
     866:	2d d5       	ANL       R5, R5, R4
     868:	fe f0       	JZ        $-2                   ;->0x864
##@@@P_:kf32f_basic_usart.c:2397
##@@@L2397_:    SFR_CLR_BIT_ASM(USARTx->STR, USART_STR_TXFR_POS);   
     86a:	9a 4e       	CLR       [R3], #10			;->0x0A
##@@@P_:kf32f_basic_usart.c:2398
##@@@L2398_:}   
     86c:	1d 5c       	JMP       LR
	...

00000870 <startup>:
##@@@F_:startup():
##@@@P_:startup.c:8
##@@@L0003_:extern unsigned char __bss_end__;   
##@@@L0004_:extern unsigned char __data_start__;   
##@@@L0005_:extern void main();   
##@@@L0006_:
##@@@L0007_:void startup()   
##@@@L0008_:{   
     870:	2d 5d       	PUSH      LR
##@@@P_:startup.c:14
##@@@L0009_:	unsigned char length;   
##@@@L0010_:	unsigned int *s,*begin,*end;   
##@@@L0011_:	s = (unsigned int*)&__text_end__;   
##@@@L0012_:	begin = (unsigned int*)&__data_start__;   
##@@@L0013_:	end = (unsigned int*)&__bss_start__;   
##@@@L0014_:	while(begin < end)   
     872:	12 45       	LD        R5, [PC + #18]        ;->0x8b8  :=0x10000000
     874:	12 41       	LD        R1, [PC + #18]        ;->0x8bc  :=0x10000004
     876:	15 70       	CMP       R1, R5
     878:	0d f9       	JLS       $+13                  ;->0x892
     87a:	12 44       	LD        R4, [PC + #18]        ;->0x8c0  :=0x1328
##@@@P_:startup.c:7
##@@@L0002_:extern unsigned char __bss_start__;   
##@@@L0003_:extern unsigned char __bss_end__;   
##@@@L0004_:extern unsigned char __data_start__;   
##@@@L0005_:extern void main();   
##@@@L0006_:
##@@@L0007_:void startup()   
     87c:	12 43       	LD        R3, [PC + #18]        ;->0x8c4  :=0x10000004
     87e:	13 42       	LD        R2, [PC + #19]        ;->0x8c8  :=0x10000007
     880:	d2 c6       	SUB       R2, R2, R3
     882:	12 7c       	LSR       R2, #2			;->0x02
     884:	52 c0       	ADD       R2, R2, #1
     886:	12 7a       	LSL       R2, #2			;->0x02
     888:	52 c3       	ADD       R2, R2, R5
##@@@P_:startup.c:15
##@@@L0010_:	unsigned int *s,*begin,*end;   
##@@@L0011_:	s = (unsigned int*)&__text_end__;   
##@@@L0012_:	begin = (unsigned int*)&__data_start__;   
##@@@L0013_:	end = (unsigned int*)&__bss_start__;   
##@@@L0014_:	while(begin < end)   
##@@@L0015_:		*begin++ = *s++;   
     88a:	34 72       	LD.W      R3, [R4++]
     88c:	53 73       	ST.W      [R5++], R3
##@@@P_:startup.c:14
##@@@L0009_:	unsigned char length;   
##@@@L0010_:	unsigned int *s,*begin,*end;   
##@@@L0011_:	s = (unsigned int*)&__text_end__;   
##@@@L0012_:	begin = (unsigned int*)&__data_start__;   
##@@@L0013_:	end = (unsigned int*)&__bss_start__;   
##@@@L0014_:	while(begin < end)   
     88e:	52 70       	CMP       R5, R2
     890:	fd f1       	JNZ       $-3                   ;->0x88a
##@@@P_:startup.c:19
##@@@L0015_:		*begin++ = *s++;   
##@@@L0016_:	   
##@@@L0017_:	begin = (unsigned int*)&__bss_start__;   
##@@@L0018_:	end = (unsigned int*)&__bss_end__;   
##@@@L0019_:	while(begin < end)   
     892:	0b 45       	LD        R5, [PC + #11]        ;->0x8bc  :=0x10000004
     894:	0e 44       	LD        R4, [PC + #14]        ;->0x8cc  :=0x10000014
     896:	41 70       	CMP       R4, R1
     898:	0c f9       	JLS       $+12                  ;->0x8b0
##@@@P_:startup.c:7
##@@@L0002_:extern unsigned char __bss_start__;   
##@@@L0003_:extern unsigned char __bss_end__;   
##@@@L0004_:extern unsigned char __data_start__;   
##@@@L0005_:extern void main();   
##@@@L0006_:
##@@@L0007_:void startup()   
     89a:	0e 44       	LD        R4, [PC + #14]        ;->0x8d0  :=0x10000008
     89c:	0e 43       	LD        R3, [PC + #14]        ;->0x8d4  :=0x10000017
     89e:	1b c7       	SUB       R3, R3, R4
     8a0:	1a 7c       	LSR       R3, #2			;->0x02
     8a2:	5b c0       	ADD       R3, R3, #1
     8a4:	1a 7a       	LSL       R3, #2			;->0x02
     8a6:	5b c3       	ADD       R3, R3, R5
##@@@P_:startup.c:20
##@@@L0015_:		*begin++ = *s++;   
##@@@L0016_:	   
##@@@L0017_:	begin = (unsigned int*)&__bss_start__;   
##@@@L0018_:	end = (unsigned int*)&__bss_end__;   
##@@@L0019_:	while(begin < end)   
##@@@L0020_:		*begin++ = 0;   
     8a8:	40 10       	MOV       R4, #0			;->0x0000
     8aa:	54 73       	ST.W      [R5++], R4
##@@@P_:startup.c:19
##@@@L0014_:	while(begin < end)   
##@@@L0015_:		*begin++ = *s++;   
##@@@L0016_:	   
##@@@L0017_:	begin = (unsigned int*)&__bss_start__;   
##@@@L0018_:	end = (unsigned int*)&__bss_end__;   
##@@@L0019_:	while(begin < end)   
     8ac:	53 70       	CMP       R5, R3
     8ae:	fe f1       	JNZ       $-2                   ;->0x8aa
##@@@P_:startup.c:21
##@@@L0020_:		*begin++ = 0;   
##@@@L0021_:	main();   
     8b0:	80 00 20 00 	LJMP      $+32      ;->0x8f0  8f0 <main>
##@@@P_:startup.c:22
     8b4:	0d 5d       	POP       LR
     8b6:	1d 5c       	JMP       LR
     8b8:	00 00 00 10 	.long     0x10000000 ->268435456  [!!!@2@:NOP      	@@: MOV       R0, #0
     8bc:	04 00 00 10 	.long     0x10000004 ->268435460 
     8c0:	28 13 00 00 	.long     0x00001328 ->000004904  [!!!@2@:MOV       R2, #56	@@: NOP      
     8c4:	04 00 00 10 	.long     0x10000004 ->268435460 
     8c8:	07 00 00 10 	.long     0x10000007 ->268435463  [!!!@2@:BREAK    	@@: MOV       R0, #0
     8cc:	14 00 00 10 	.long     0x10000014 ->268435476 
     8d0:	08 00 00 10 	.long     0x10000008 ->268435464  [!!!@2@:ISYNC    	@@: MOV       R0, #0
     8d4:	17 00 00 10 	.long     0x10000017 ->268435479 

000008d8 <_NMI_exception>:
##@@@F_:_NMI_exception():
##@@@P_:kf_it.c:18
##@@@L0013_://                                 NMIõĖŁµ¢ŁÕćĮµĢ░   
##@@@L0014_://*****************************************************************************************	   
##@@@L0015_:void __attribute__((interrupt)) _NMI_exception (void)   
##@@@L0016_:{	   
##@@@L0017_:
##@@@L0018_:}   
     8d8:	1d 5c       	JMP       LR

000008da <_HardFault_exception>:
##@@@F_:_HardFault_exception():
##@@@P_:kf_it.c:26
##@@@L0021_://                               ńĪ¼õ╗ČķöÖĶ»»õĖŁµ¢ŁÕćĮµĢ░   
##@@@L0022_://*****************************************************************************************	   
##@@@L0023_:void __attribute__((interrupt)) _HardFault_exception (void)   
##@@@L0024_:{   
##@@@L0025_:
##@@@L0026_:}   
     8da:	1d 5c       	JMP       LR

000008dc <_StackFault_exception>:
##@@@F_:_StackFault_exception():
##@@@P_:kf_it.c:34
##@@@L0029_://                                ÕĀåµĀłķöÖĶ»»õĖŁµ¢ŁÕćĮµĢ░   
##@@@L0030_://*****************************************************************************************	   
##@@@L0031_:void __attribute__((interrupt)) _StackFault_exception (void)   
##@@@L0032_:{   
##@@@L0033_:
##@@@L0034_:}   
     8dc:	1d 5c       	JMP       LR

000008de <_SVC_exception>:
##@@@F_:_SVC_exception():
##@@@P_:kf_it.c:42
##@@@L0037_://                               SVCõĖŁµ¢ŁÕćĮµĢ░   
##@@@L0038_://*****************************************************************************************	   
##@@@L0039_:void __attribute__((interrupt)) _SVC_exception (void)   
##@@@L0040_:{   
##@@@L0041_:
##@@@L0042_:}   
     8de:	1d 5c       	JMP       LR

000008e0 <_SoftSV_exception>:
##@@@F_:_SoftSV_exception():
##@@@P_:kf_it.c:50
##@@@L0045_://                              SoftSVõĖŁµ¢ŁÕćĮµĢ░   
##@@@L0046_://*****************************************************************************************	   
##@@@L0047_:void __attribute__((interrupt)) _SoftSV_exception (void)   
##@@@L0048_:{   
##@@@L0049_:
##@@@L0050_:}   
     8e0:	1d 5c       	JMP       LR

000008e2 <_SysTick_exception>:
##@@@F_:_SysTick_exception():
##@@@P_:kf_it.c:58
##@@@L0053_://                              SysTickõĖŁµ¢ŁÕćĮµĢ░   
##@@@L0054_://*****************************************************************************************	   
##@@@L0055_:void __attribute__((interrupt)) _SysTick_exception (void)   
##@@@L0056_:{   
##@@@L0057_:	   
##@@@L0058_:}   
     8e2:	1d 5c       	JMP       LR

000008e4 <_USART0_exception>:
##@@@F_:_USART0_exception():
##@@@P_:kf_it.c:66
##@@@L0061_://                                 USART0õĖŁµ¢ŁÕćĮµĢ░   
##@@@L0062_://*****************************************************************************************	   
##@@@L0063_:void __attribute__((interrupt))_USART0_exception (void)   
##@@@L0064_:{   
##@@@L0065_:
##@@@L0066_:}   
     8e4:	1d 5c       	JMP       LR

000008e6 <_USART1_exception>:
##@@@F_:_USART1_exception():
##@@@P_:kf_it.c:74
##@@@L0069_://                                 USART1õĖŁµ¢ŁÕćĮµĢ░   
##@@@L0070_://*****************************************************************************************	   
##@@@L0071_:void __attribute__((interrupt))_USART1_exception (void)   
##@@@L0072_:{   
##@@@L0073_:
##@@@L0074_:}   
     8e6:	1d 5c       	JMP       LR

000008e8 <_USART2_exception>:
##@@@F_:_USART2_exception():
##@@@P_:kf_it.c:82
##@@@L0077_://                                 USART2õĖŁµ¢ŁÕćĮµĢ░   
##@@@L0078_://*****************************************************************************************   
##@@@L0079_:void __attribute__((interrupt))_USART2_exception (void)   
##@@@L0080_:{   
##@@@L0081_:
##@@@L0082_:}   
     8e8:	1d 5c       	JMP       LR

000008ea <_USART3_exception>:
##@@@F_:_USART3_exception():
##@@@P_:kf_it.c:90
##@@@L0085_://                                 USART3õĖŁµ¢ŁÕćĮµĢ░   
##@@@L0086_://*****************************************************************************************   
##@@@L0087_:void __attribute__((interrupt))_USART3_exception (void)   
##@@@L0088_:{   
##@@@L0089_:
##@@@L0090_:}   
     8ea:	1d 5c       	JMP       LR

000008ec <_USART4_exception>:
##@@@F_:_USART4_exception():
##@@@P_:kf_it.c:98
##@@@L0093_://                                 USART4õĖŁµ¢ŁÕćĮµĢ░   
##@@@L0094_://*****************************************************************************************   
##@@@L0095_:void __attribute__((interrupt))_USART4_exception (void)   
##@@@L0096_:{   
##@@@L0097_:
##@@@L0098_:}   
     8ec:	1d 5c       	JMP       LR

000008ee <_USART5_exception>:
##@@@F_:_USART5_exception():
##@@@P_:kf_it.c:106
##@@@L0101_://                                 USART5õĖŁµ¢ŁÕćĮµĢ░   
##@@@L0102_://*****************************************************************************************   
##@@@L0103_:void __attribute__((interrupt))_USART5_exception (void)   
##@@@L0104_:{   
##@@@L0105_:
##@@@L0106_:}   
     8ee:	1d 5c       	JMP       LR

000008f0 <main>:
##@@@F_:main():
##@@@P_:main.c:31
##@@@L0026_:  * µÅÅĶ┐░   õĖ╗ÕćĮµĢ░   
##@@@L0027_:  * ĶŠōÕģź   µŚĀ   
##@@@L0028_:  * Ķ┐öÕø×   µŚĀ   
##@@@L0029_:  */   
##@@@L0030_:void main()   
##@@@L0031_:{   
     8f0:	2d 5d       	PUSH      LR
##@@@P_:main.c:35
##@@@L0032_:	/*õĖŖńöĄķ╗śĶ«żµŚČķÆ¤õĖ║16MńÜä128Õłåķóæ’╝īÕ”éÕłØÕ¦ŗÕī¢RAMµŚČķŚ┤Ķ┐ćķĢ┐’╝īń│╗ń╗¤µŚČķÆ¤ÕłØÕ¦ŗÕī¢ÕÅ»µöŠÕ£©startup.c   
##@@@L0033_:	 * ńÜästartup()ÕćĮµĢ░ÕłØÕ¦ŗÕī¢RAMõ╣ŗÕēŹ*/   
##@@@L0034_:	//ń│╗ń╗¤µŚČķÆ¤,Õż¢Ķ«Šķ½śķóæµŚČķÆ¤ķģŹńĮ«   
##@@@L0035_:	SystemInit();   
     8f2:	80 00 51 00 	LJMP      $+81      ;->0x994  994 <SystemInit>
##@@@P_:main.c:37
##@@@L0036_:
##@@@L0037_:	bsp_init();   
     8f6:	9f 00 85 fc 	LJMP      $-891     ;->0x200  200 <bsp_init>
##@@@P_:main.c:39
##@@@L0038_:
##@@@L0039_:	GPIO_Write_Mode_Bits(GPIOH_SFR , GPIO_PIN_MASK_5|GPIO_PIN_MASK_6, GPIO_MODE_OUT );//LEDńü»ķģŹńĮ«õĖ║ĶŠōÕć║ńŖČµĆü   
     8fa:	22 40       	LD        R0, [PC + #34]        ;->0x980  :=0x500001c0
     8fc:	10 16       	MOV       R1, #96			;->0x0060
     8fe:	21 10       	MOV       R2, #1			;->0x0001
     900:	9f 00 61 fd 	LJMP      $-671     ;->0x3c2  3c2 <GPIO_Write_Mode_Bits>
##@@@P_:main.c:40
##@@@L0040_:	GPIO_Write_Mode_Bits(GPIOD_SFR , GPIO_PIN_MASK_13, GPIO_MODE_OUT );//LEDńü»ķģŹńĮ«õĖ║ĶŠōÕć║ńŖČµĆü   
     904:	20 40       	LD        R0, [PC + #32]        ;->0x984  :=0x500000c0
     906:	11 10       	MOV       R1, #1			;->0x0001
     908:	8d 7a       	LSL       R1, #13			;->0x0D
     90a:	21 10       	MOV       R2, #1			;->0x0001
     90c:	9f 00 5b fd 	LJMP      $-677     ;->0x3c2  3c2 <GPIO_Write_Mode_Bits>
##@@@P_:main.c:44
##@@@L0041_:
##@@@L0042_:	for (uint32_t i = 0; i < 3; i++)   
##@@@L0043_:    {   
##@@@L0044_:        delay_ms(500);   
     910:	1e 40       	LD        R0, [PC + #30]        ;->0x988  :=0x1f4
     912:	9f 00 2f fd 	LJMP      $-721     ;->0x370  370 <delay_ms>
##@@@P_:main.c:45
##@@@L0045_:		printf("Bootloader Initing\r\n");   
     916:	1e 40       	LD        R0, [PC + #30]        ;->0x98c  :=0x12fc
     918:	80 00 92 00 	LJMP      $+146     ;->0xa3c  a3c <printf>
##@@@P_:main.c:44
##@@@L0039_:	GPIO_Write_Mode_Bits(GPIOH_SFR , GPIO_PIN_MASK_5|GPIO_PIN_MASK_6, GPIO_MODE_OUT );//LEDńü»ķģŹńĮ«õĖ║ĶŠōÕć║ńŖČµĆü   
##@@@L0040_:	GPIO_Write_Mode_Bits(GPIOD_SFR , GPIO_PIN_MASK_13, GPIO_MODE_OUT );//LEDńü»ķģŹńĮ«õĖ║ĶŠōÕć║ńŖČµĆü   
##@@@L0041_:
##@@@L0042_:	for (uint32_t i = 0; i < 3; i++)   
##@@@L0043_:    {   
##@@@L0044_:        delay_ms(500);   
     91c:	1b 40       	LD        R0, [PC + #27]        ;->0x988  :=0x1f4
     91e:	9f 00 29 fd 	LJMP      $-727     ;->0x370  370 <delay_ms>
##@@@P_:main.c:45
##@@@L0045_:		printf("Bootloader Initing\r\n");   
     922:	1b 40       	LD        R0, [PC + #27]        ;->0x98c  :=0x12fc
     924:	80 00 8c 00 	LJMP      $+140     ;->0xa3c  a3c <printf>
##@@@P_:main.c:44
##@@@L0039_:	GPIO_Write_Mode_Bits(GPIOH_SFR , GPIO_PIN_MASK_5|GPIO_PIN_MASK_6, GPIO_MODE_OUT );//LEDńü»ķģŹńĮ«õĖ║ĶŠōÕć║ńŖČµĆü   
##@@@L0040_:	GPIO_Write_Mode_Bits(GPIOD_SFR , GPIO_PIN_MASK_13, GPIO_MODE_OUT );//LEDńü»ķģŹńĮ«õĖ║ĶŠōÕć║ńŖČµĆü   
##@@@L0041_:
##@@@L0042_:	for (uint32_t i = 0; i < 3; i++)   
##@@@L0043_:    {   
##@@@L0044_:        delay_ms(500);   
     928:	18 40       	LD        R0, [PC + #24]        ;->0x988  :=0x1f4
     92a:	9f 00 23 fd 	LJMP      $-733     ;->0x370  370 <delay_ms>
##@@@P_:main.c:45
##@@@L0045_:		printf("Bootloader Initing\r\n");   
     92e:	18 40       	LD        R0, [PC + #24]        ;->0x98c  :=0x12fc
     930:	80 00 86 00 	LJMP      $+134     ;->0xa3c  a3c <printf>
     934:	1a 04       	SJMP      $+26                  ;->0x968
##@@@P_:main.c:56
##@@@L0051_:		if(iap_is_app_valid(APP1_FLASH_START_ADDR)) //Õłżµ¢ŁAPPń®║ķŚ┤ńÜäķ”¢õĖ¬ÕŁŚÕåģÕ«╣µś»ÕÉ”Õ£©SRAMĶīāÕø┤Õåģ’╝ī0x1000 0000-0x1001 8000   
##@@@L0052_:		{   
##@@@L0053_:			iap_jump_to_app(APP1_FLASH_START_ADDR);   
##@@@L0054_:		}   
##@@@L0055_:		/* ĶĪ©ńż║ÕĮōÕēŹÕ£©µē¦ĶĪīBootloader */   
##@@@L0056_:		printf("it is bootloader\r\n");   
     936:	17 40       	LD        R0, [PC + #23]        ;->0x990  :=0x1314
     938:	80 00 82 00 	LJMP      $+130     ;->0xa3c  a3c <printf>
##@@@P_:main.c:57
##@@@L0057_:		GPIO_Toggle_Output_Data_Config(GPIOH_SFR, GPIO_PIN_MASK_5);   
     93c:	11 40       	LD        R0, [PC + #17]        ;->0x980  :=0x500001c0
     93e:	10 12       	MOV       R1, #32			;->0x0020
     940:	9f 00 57 fd 	LJMP      $-681     ;->0x3ee  3ee <GPIO_Toggle_Output_Data_Config>
##@@@P_:main.c:58
##@@@L0058_:		delay_ms(500);   
     944:	11 40       	LD        R0, [PC + #17]        ;->0x988  :=0x1f4
     946:	9f 00 15 fd 	LJMP      $-747     ;->0x370  370 <delay_ms>
##@@@P_:main.c:59
##@@@L0059_:		GPIO_Toggle_Output_Data_Config(GPIOH_SFR, GPIO_PIN_MASK_6);   
     94a:	0e 40       	LD        R0, [PC + #14]        ;->0x980  :=0x500001c0
     94c:	10 14       	MOV       R1, #64			;->0x0040
     94e:	9f 00 50 fd 	LJMP      $-688     ;->0x3ee  3ee <GPIO_Toggle_Output_Data_Config>
##@@@P_:main.c:60
##@@@L0060_:		delay_ms(500);   
     952:	0e 40       	LD        R0, [PC + #14]        ;->0x988  :=0x1f4
     954:	9f 00 0e fd 	LJMP      $-754     ;->0x370  370 <delay_ms>
##@@@P_:main.c:61
##@@@L0061_:		GPIO_Toggle_Output_Data_Config(GPIOD_SFR,GPIO_PIN_MASK_13);   
     958:	0b 40       	LD        R0, [PC + #11]        ;->0x984  :=0x500000c0
     95a:	11 10       	MOV       R1, #1			;->0x0001
     95c:	8d 7a       	LSL       R1, #13			;->0x0D
     95e:	9f 00 48 fd 	LJMP      $-696     ;->0x3ee  3ee <GPIO_Toggle_Output_Data_Config>
##@@@P_:main.c:62
##@@@L0062_:		delay_ms(500);   
     962:	0a 40       	LD        R0, [PC + #10]        ;->0x988  :=0x1f4
     964:	9f 00 06 fd 	LJMP      $-762     ;->0x370  370 <delay_ms>
##@@@P_:main.c:51
##@@@L0046_:    }   
##@@@L0047_:
##@@@L0048_:	while(1)   
##@@@L0049_:	{   
##@@@L0050_:		/* Õ╝ĢÕ»╝APPń©ŗÕ║Åµē¦ĶĪī */   
##@@@L0051_:		if(iap_is_app_valid(APP1_FLASH_START_ADDR)) //Õłżµ¢ŁAPPń®║ķŚ┤ńÜäķ”¢õĖ¬ÕŁŚÕåģÕ«╣µś»ÕÉ”Õ£©SRAMĶīāÕø┤Õåģ’╝ī0x1000 0000-0x1001 8000   
     968:	01 10       	MOV       R0, #1			;->0x0001
     96a:	86 7a       	LSL       R0, #14			;->0x0E
     96c:	9f 00 e2 fc 	LJMP      $-798     ;->0x330  330 <iap_is_app_valid>
     970:	00 38       	CMP       R0, #0			;->0x00
     972:	e2 f0       	JZ        $-30                  ;->0x936
##@@@P_:main.c:53
##@@@L0052_:		{   
##@@@L0053_:			iap_jump_to_app(APP1_FLASH_START_ADDR);   
     974:	01 10       	MOV       R0, #1			;->0x0001
     976:	86 7a       	LSL       R0, #14			;->0x0E
     978:	9f 00 f2 fc 	LJMP      $-782     ;->0x35c  35c <iap_jump_to_app>
     97c:	dd 07       	SJMP      $-35                  ;->0x936
     97e:	00 00       	NOP      NOP      
     980:	c0 01 00 50 	.long     0x500001c0 ->1342177728  [!!!@2@:CMN       R12, R0	@@: JB        [R0], #0
     984:	c0 00 00 50 	.long     0x500000c0 ->1342177472 
     988:	f4 01 00 00 	.long     0x000001f4 ->000000500  [!!!@2@:CMN       PC, R4	@@: NOP      
     98c:	fc 12 00 00 	.long     0x000012fc ->000004860  [!!!@2@:MOV       PC, #44	@@: NOP      
     990:	14 13 00 00 	.long     0x00001314 ->000004884  [!!!@2@:MOV       R1, #52	@@: NOP      

00000994 <SystemInit>:
##@@@F_:SystemInit():
##@@@P_:system_init.c:244
##@@@L0239_: * 			 Initialize PLL, HFCLK, LFCLK, and the PLL and update the systemFrequency variable.   
##@@@L0240_: *  @param : None   
##@@@L0241_: *  @retval :None   
##@@@L0242_: */   
##@@@L0243_:void SystemInit(void)   
##@@@L0244_:{   
     994:	81 5f       	PUSH      {R6,LR}
     996:	e4 30       	SUB       SP, #4			;->0x04
##@@@F_:SetSysClock():
##@@@P_:system_init.c:118
##@@@L0113_: * ******************************************************************************   
##@@@L0114_: * 	Enable INTHF & INTLF,and set the INTHF as the SCLK.   
##@@@L0115_: * 	Wait till INTHF is ready and if Time out is reached exit.   
##@@@L0116_: * ******************************************************************************   
##@@@L0117_: */   
##@@@L0118_:	OSC_INTLF_Software_Enable(TRUE);   
     998:	01 10       	MOV       R0, #1			;->0x0001
     99a:	9f 00 0b fe 	LJMP      $-501     ;->0x5b0  5b0 <OSC_INTLF_Software_Enable>
##@@@P_:system_init.c:119
##@@@L0119_:	OSC_INTHF_Software_Enable(TRUE);   
     99e:	01 10       	MOV       R0, #1			;->0x0001
     9a0:	9f 00 fe fd 	LJMP      $-514     ;->0x59c  59c <OSC_INTHF_Software_Enable>
##@@@P_:system_init.c:120
##@@@L0120_:	FLASH_CFG = 0xC7;//FLASHĶ»╗ÕÅ¢Õæ©µ£¤7õĖ¬ń│╗ń╗¤Õæ©µ£¤   
     9a4:	47 1c       	MOV       R4, #199			;->0x00C7
     9a6:	25 45       	LD        R5, [PC + #37]        ;->0xa38  :=0x40200100
     9a8:	6c a1       	ST.W      [R5 + #5], R4
##@@@P_:system_init.c:122
##@@@L0121_:	/* Set the INTHF as the SCLK DIV<1:1> */   
##@@@L0122_:	OSC_SCK_Division_Config(SCLK_DIVISION_1); //õĖ╗µŚČķÆ¤ÕłåķóæķĆēµŗ®   
     9aa:	00 10       	MOV       R0, #0			;->0x0000
     9ac:	9f 00 50 fd 	LJMP      $-688     ;->0x44c  44c <OSC_SCK_Division_Config>
##@@@P_:system_init.c:123
##@@@L0123_:	OSC_SCK_Source_Config(SCLK_SOURCE_INTHF); //ķĆēµŗ®Õåģķā©ķ½śķóæõĮ£õĖ║ń│╗ń╗¤µŚČķÆ¤   
     9b0:	00 10       	MOV       R0, #0			;->0x0000
     9b2:	9f 00 85 fd 	LJMP      $-635     ;->0x4bc  4bc <OSC_SCK_Source_Config>
##@@@P_:system_init.c:124
##@@@L0124_:	StartUpCounter = HSI_STARTUP_TIMEOUT;   
     9b6:	50 17       	MOV       R5, #112			;->0x0070
     9b8:	e5 85       	ST.W      [SP], R5
##@@@P_:system_init.c:125
##@@@L0125_:	while (--StartUpCounter);   
     9ba:	5e 82       	LD.W      R5, [SP]
     9bc:	6d cc       	SUB       R5, R5, #1
     9be:	e5 85       	ST.W      [SP], R5
     9c0:	50 38       	CMP       R5, #0			;->0x00
     9c2:	fc f1       	JNZ       $-4                   ;->0x9ba
##@@@P_:system_init.c:126
##@@@L0126_:	while (OSC_Get_INTHF_INT_Flag() != SET);   
     9c4:	9f 00 07 fe 	LJMP      $-505     ;->0x5d2  5d2 <OSC_Get_INTHF_INT_Flag>
     9c8:	c0 58       	MOV       R6, R0
     9ca:	01 38       	CMP       R0, #1			;->0x01
     9cc:	fc f1       	JNZ       $-4                   ;->0x9c4
##@@@P_:system_init.c:138
##@@@L0133_: * If an external clock source is used, must be wait till EXTHF is ready and if   
##@@@L0134_: * Time out is reached exit.   
##@@@L0135_: * ******************************************************************************   
##@@@L0136_: */   
##@@@L0137_:#ifdef SYSCLK_FREQ_HSI   
##@@@L0138_:	OSC_PLL_Input_Source_Config(PLL_INPUT_INTHF);   
     9ce:	00 10       	MOV       R0, #0			;->0x0000
     9d0:	9f 00 4a fd 	LJMP      $-694     ;->0x464  464 <OSC_PLL_Input_Source_Config>
##@@@P_:system_init.c:189
##@@@L0184_:#ifdef SYSCLK_FREQ_48MHz   
##@@@L0185_:	OSC_PLL_Multiple_Value_Select(48, 2, 8);   
##@@@L0186_:#elif defined SYSCLK_FREQ_64MHz   
##@@@L0187_:	OSC_PLL_Multiple_Value_Select(32,2,4);   
##@@@L0188_:#elif defined SYSCLK_FREQ_72MHz   
##@@@L0189_:	OSC_PLL_Multiple_Value_Select(36, 2, 4);   
     9d4:	04 12       	MOV       R0, #36			;->0x0024
     9d6:	12 10       	MOV       R1, #2			;->0x0002
     9d8:	24 10       	MOV       R2, #4			;->0x0004
     9da:	9f 00 7b fd 	LJMP      $-645     ;->0x4d0  4d0 <OSC_PLL_Multiple_Value_Select>
##@@@P_:system_init.c:196
##@@@L0191_:	OSC_PLL_Multiple_Value_Select(12, 1, 2);   
##@@@L0192_:#elif defined SYSCLK_FREQ_120MHz   
##@@@L0193_:	OSC_PLL_Multiple_Value_Select(30, 2, 2);   
##@@@L0194_:#endif   
##@@@L0195_:#ifdef SYSCLK_FREQ_HSI   
##@@@L0196_:	OSC_PLL_Start_Delay_Config(PLL_START_DELAY_8192);   
     9de:	07 10       	MOV       R0, #7			;->0x0007
     9e0:	9f 00 c8 fd 	LJMP      $-568     ;->0x570  570 <OSC_PLL_Start_Delay_Config>
##@@@P_:system_init.c:206
##@@@L0201_:		OSC_PLL_Start_Delay_Config(PLL_START_DELAY_8192);   
##@@@L0202_:	#else   
##@@@L0203_:		OSC_PLL_Start_Delay_Config(PLL_START_DELAY_16384);   
##@@@L0204_:	#endif   
##@@@L0205_:#endif   
##@@@L0206_:	OSC_PLL_Software_Enable(TRUE);   
     9e4:	06 58       	MOV       R0, R6
     9e6:	9f 00 d1 fd 	LJMP      $-559     ;->0x588  588 <OSC_PLL_Software_Enable>
##@@@P_:system_init.c:207
##@@@L0207_:	OSC_PLL_RST();   
     9ea:	9f 00 bd fd 	LJMP      $-579     ;->0x564  564 <OSC_PLL_RST>
##@@@P_:system_init.c:208
##@@@L0208_:	while (OSC_Get_PLL_INT_Flag() != SET);   
     9ee:	9f 00 eb fd 	LJMP      $-533     ;->0x5c4  5c4 <OSC_Get_PLL_INT_Flag>
     9f2:	c0 58       	MOV       R6, R0
     9f4:	01 38       	CMP       R0, #1			;->0x01
     9f6:	fc f1       	JNZ       $-4                   ;->0x9ee
##@@@P_:system_init.c:214
##@@@L0209_:#ifdef SYSCLK_FREQ_48MHz   
##@@@L0210_:	FLASH_CFG = 0xC2;   
##@@@L0211_:#elif defined SYSCLK_FREQ_64MHz   
##@@@L0212_:	FLASH_CFG = 0xC3;   
##@@@L0213_:#elif defined SYSCLK_FREQ_72MHz   
##@@@L0214_:	FLASH_CFG = 0xC3;   
     9f8:	43 1c       	MOV       R4, #195			;->0x00C3
     9fa:	10 45       	LD        R5, [PC + #16]        ;->0xa38  :=0x40200100
     9fc:	6c a1       	ST.W      [R5 + #5], R4
##@@@P_:system_init.c:221
##@@@L0216_:	FLASH_CFG = 0xC3;   
##@@@L0217_:#elif defined SYSCLK_FREQ_120MHz   
##@@@L0218_:	FLASH_CFG = 0xC4;   
##@@@L0219_:#endif   
##@@@L0220_:	/* Configure the System clock source is PLL */   
##@@@L0221_:	OSC_SCK_Division_Config(SCLK_DIVISION_1);   
     9fe:	00 10       	MOV       R0, #0			;->0x0000
     a00:	9f 00 26 fd 	LJMP      $-730     ;->0x44c  44c <OSC_SCK_Division_Config>
##@@@P_:system_init.c:222
##@@@L0222_:	OSC_SCK_Source_Config(SCLK_SOURCE_PLL);   
     a04:	04 10       	MOV       R0, #4			;->0x0004
     a06:	9f 00 5b fd 	LJMP      $-677     ;->0x4bc  4bc <OSC_SCK_Source_Config>
##@@@P_:system_init.c:224
##@@@L0223_:	/* Enable HFCLK and if EXTHF is invalid configure the HFCLK default clock source is HSI DIV<1:1> */   
##@@@L0224_:	OSC_HFCK_Division_Config(HFCK_DIVISION_1);   
     a0a:	00 10       	MOV       R0, #0			;->0x0000
     a0c:	9f 00 14 fd 	LJMP      $-748     ;->0x434  434 <OSC_HFCK_Division_Config>
##@@@P_:system_init.c:226
##@@@L0225_:#ifdef SYSCLK_FREQ_HSI   
##@@@L0226_:	OSC_HFCK_Source_Config(HFCK_SOURCE_INTHF);   
     a10:	00 10       	MOV       R0, #0			;->0x0000
     a12:	9f 00 31 fd 	LJMP      $-719     ;->0x474  474 <OSC_HFCK_Source_Config>
##@@@P_:system_init.c:230
##@@@L0227_:#else   
##@@@L0228_:	OSC_HFCK_Source_Config(HFCK_SOURCE_EXTHF);   
##@@@L0229_:#endif   
##@@@L0230_:	OSC_HFCK_Enable(TRUE);   
     a16:	06 58       	MOV       R0, R6
     a18:	9f 00 3a fd 	LJMP      $-710     ;->0x48c  48c <OSC_HFCK_Enable>
##@@@P_:system_init.c:232
##@@@L0231_:	/* Enable LFCLK and if configure the LFCLK default clock source is LSI DIV<1:1> */   
##@@@L0232_:	OSC_LFCK_Division_Config(LFCK_DIVISION_1);   
     a1c:	00 10       	MOV       R0, #0			;->0x0000
     a1e:	9f 00 ff fc 	LJMP      $-769     ;->0x41c  41c <OSC_LFCK_Division_Config>
##@@@P_:system_init.c:233
##@@@L0233_:	OSC_LFCK_Source_Config(LFCK_INPUT_INTLF);   
     a22:	00 10       	MOV       R0, #0			;->0x0000
     a24:	9f 00 3c fd 	LJMP      $-708     ;->0x49c  49c <OSC_LFCK_Source_Config>
##@@@P_:system_init.c:234
##@@@L0234_:	OSC_LFCK_Enable(TRUE);   
     a28:	06 58       	MOV       R0, R6
     a2a:	9f 00 41 fd 	LJMP      $-703     ;->0x4ac  4ac <OSC_LFCK_Enable>
##@@@F_:SystemInit():
##@@@P_:system_init.c:247
##@@@L0242_: */   
##@@@L0243_:void SystemInit(void)   
##@@@L0244_:{   
##@@@L0245_:	/* Configure the System clock source, PLL Multiplier and Divider factors */   
##@@@L0246_:	SetSysClock();   
##@@@L0247_:}   
     a2e:	e4 28       	ADD       SP, #4			;->0x04
     a30:	06 5d       	POP       R6
     a32:	0d 5d       	POP       LR
     a34:	1d 5c       	JMP       LR
     a36:	00 00       	NOP      NOP      
     a38:	00 01 20 40 	.long     0x40200100 ->1075839232  [!!!@2@:CMN       R0, R0	@@: LD        R0, [PC + #32]        ;->0xab8  :=0x10615965

00000a3c <printf>:
##@@@F_:printf():
##@@@P_:printf.c:8
     a3c:	24 5d       	PUSH      R4
     a3e:	23 5d       	PUSH      R3
     a40:	22 5d       	PUSH      R2
     a42:	21 5d       	PUSH      R1
     a44:	20 5d       	PUSH      R0
     a46:	2d 5d       	PUSH      LR
##@@@P_:printf.c:11
     a48:	05 40       	LD        R0, [PC + #5]         ;->0xa5c  :=0x40000980
     a4a:	01 09       	LD.W      R1, [SP + #1]
     a4c:	4e 58       	MOV       R2, SP
     a4e:	28 28       	ADD       R2, #8			;->0x08
     a50:	80 00 08 00 	LJMP      $+8       ;->0xa60  a60 <vfprintf>
##@@@P_:printf.c:12
     a54:	0d 5d       	POP       LR
     a56:	e4 29       	ADD       SP, #20			;->0x14
     a58:	1d 5c       	JMP       LR
     a5a:	00 00       	NOP      NOP      
     a5c:	80 09 00 40 	.long     0x40000980 ->1073744256  [!!!@2@:LD.W      R1, [SP + #128]	@@: LD        R0, [PC + #0]         ;->0xa5c  :=0x40000980

00000a60 <vfprintf>:
##@@@F_:vfprintf():
##@@@P_:vfprintf.c:43
     a60:	ff 5f       	PUSH      {R6-R12,LR}
     a62:	ec 33       	SUB       SP, #60			;->0x3C
     a64:	0b 20       	ST.W      [SP + #11], R0
     a66:	82 59       	MOV       R12, R2
##@@@P_:vfprintf.c:84
     a68:	e1 58       	MOV       R7, R1
##@@@P_:vfprintf.c:75
     a6a:	00 10       	MOV       R0, #0			;->0x0000
     a6c:	0a 20       	ST.W      [SP + #10], R0
##@@@P_:vfprintf.c:86
     a6e:	18 05       	SJMP      $+280                 ;->0xc9e
##@@@P_:vfprintf.c:90
     a70:	05 3a       	CMP       R0, #37			;->0x25
     a72:	02 f0       	JZ        $+2                   ;->0xa76
     a74:	0c 05       	SJMP      $+268                 ;->0xc8c
##@@@P_:vfprintf.c:121
     a76:	47 88       	LD.B      R0, [R7 + #1]
     a78:	05 3a       	CMP       R0, #37			;->0x25
     a7a:	09 f1       	JNZ       $+9                   ;->0xa8c
##@@@P_:vfprintf.c:123
     a7c:	0b 09       	LD.W      R1, [SP + #11]
     a7e:	80 00 81 03 	LJMP      $+897     ;->0x1180  1180 <fputchar>
##@@@P_:vfprintf.c:124
     a82:	0a 09       	LD.W      R1, [SP + #10]
     a84:	49 c0       	ADD       R1, R1, #1
     a86:	0a 21       	ST.W      [SP + #10], R1
##@@@P_:vfprintf.c:125
     a88:	bf c0       	ADD       R7, R7, #2
##@@@P_:vfprintf.c:126
     a8a:	0a 05       	SJMP      $+266                 ;->0xc9e
##@@@P_:vfprintf.c:131
     a8c:	00 3b       	CMP       R0, #48			;->0x30
     a8e:	05 f0       	JZ        $+5                   ;->0xa98
##@@@P_:vfprintf.c:117
     a90:	7f c0       	ADD       R7, R7, #1
##@@@P_:vfprintf.c:106
     a92:	40 12       	MOV       R4, #32			;->0x0020
     a94:	0c 24       	ST.W      [SP + #12], R4
     a96:	03 04       	SJMP      $+3                   ;->0xa9c
##@@@P_:vfprintf.c:134
     a98:	bf c0       	ADD       R7, R7, #2
##@@@P_:vfprintf.c:133
     a9a:	0c 20       	ST.W      [SP + #12], R0
##@@@P_:vfprintf.c:136
     a9c:	57 80       	LD.B      R5, [R7]
##@@@P_:vfprintf.c:105
     a9e:	40 10       	MOV       R4, #0			;->0x0000
     aa0:	0d 24       	ST.W      [SP + #13], R4
##@@@P_:vfprintf.c:136
     aa2:	5d 3a       	CMP       R5, #45			;->0x2D
     aa4:	04 f1       	JNZ       $+4                   ;->0xaac
##@@@P_:vfprintf.c:139
     aa6:	7f c0       	ADD       R7, R7, #1
##@@@P_:vfprintf.c:138
     aa8:	01 10       	MOV       R0, #1			;->0x0001
     aaa:	0d 20       	ST.W      [SP + #13], R0
##@@@P_:vfprintf.c:144
     aac:	57 80       	LD.B      R5, [R7]
##@@@P_:vfprintf.c:115
     aae:	bb 12       	MOV       R11, #43			;->0x002B
##@@@P_:vfprintf.c:114
     ab0:	60 10       	MOV       R6, #0			;->0x0000
##@@@P_:vfprintf.c:144
     ab2:	50 3a       	CMP       R5, #32			;->0x20
     ab4:	04 f1       	JNZ       $+4                   ;->0xabc
##@@@P_:vfprintf.c:148
     ab6:	7f c0       	ADD       R7, R7, #1
##@@@P_:vfprintf.c:147
     ab8:	65 59       	MOV       R11, R5
##@@@P_:vfprintf.c:146
     aba:	61 10       	MOV       R6, #1			;->0x0001
##@@@P_:vfprintf.c:151
     abc:	57 80       	LD.B      R5, [R7]
     abe:	5b 3a       	CMP       R5, #43			;->0x2B
     ac0:	03 f1       	JNZ       $+3                   ;->0xac6
##@@@P_:vfprintf.c:154
     ac2:	7f c0       	ADD       R7, R7, #1
##@@@P_:vfprintf.c:153
     ac4:	61 10       	MOV       R6, #1			;->0x0001
##@@@P_:vfprintf.c:160
     ac6:	57 80       	LD.B      R5, [R7]
     ac8:	51 33       	SUB       R5, #49			;->0x31
     aca:	55 d1       	ZXT.B     R5, R5
##@@@P_:vfprintf.c:104
     acc:	80 10       	MOV       R8, #0			;->0x0000
##@@@P_:vfprintf.c:160
     ace:	58 38       	CMP       R5, #8			;->0x08
     ad0:	12 f8       	JHI       $+18                  ;->0xaf4
     ad2:	a7 58       	MOV       R5, R7
##@@@P_:vfprintf.c:164
     ad4:	2a 10       	MOV       R2, #10			;->0x000A
     ad6:	08 04       	SJMP      $+8                   ;->0xae6
     ad8:	28 58       	MOV       R1, R8
     ada:	99 ca       	MULS      R3, R1, R2
     adc:	00 00       	NOP      NOP      
     ade:	30 33       	SUB       R3, #48			;->0x30
     ae0:	03 59       	MOV       R8, R3
     ae2:	84 64       	ADD       R8, R4
     ae4:	88 d1       	ZXT.B     R8, R8
     ae6:	e5 58       	MOV       R7, R5
##@@@P_:vfprintf.c:162 (discriminator 1)
     ae8:	45 76       	LD.B      R4, [R5++]
     aea:	00 13       	MOV       R0, #48			;->0x0030
     aec:	1c c6       	SUB       R3, R4, R0
     aee:	33 d1       	ZXT.B     R3, R3
     af0:	39 38       	CMP       R3, #9			;->0x09
     af2:	f3 f9       	JLS       $-13                  ;->0xad8
##@@@P_:vfprintf.c:171
     af4:	57 80       	LD.B      R5, [R7]
##@@@P_:vfprintf.c:110
     af6:	9f 1f       	MOV       R9, #255			;->0x00FF
##@@@P_:vfprintf.c:171
     af8:	5e 3a       	CMP       R5, #46			;->0x2E
     afa:	13 f1       	JNZ       $+19                  ;->0xb20
##@@@P_:vfprintf.c:173
     afc:	6f c0       	ADD       R5, R7, #1
##@@@P_:vfprintf.c:174
     afe:	90 10       	MOV       R9, #0			;->0x0000
##@@@P_:vfprintf.c:177
     b00:	2a 10       	MOV       R2, #10			;->0x000A
##@@@P_:vfprintf.c:175
     b02:	08 04       	SJMP      $+8                   ;->0xb12
##@@@P_:vfprintf.c:177
     b04:	29 58       	MOV       R1, R9
     b06:	99 ca       	MULS      R3, R1, R2
     b08:	00 00       	NOP      NOP      
     b0a:	30 33       	SUB       R3, #48			;->0x30
     b0c:	23 59       	MOV       R9, R3
     b0e:	94 64       	ADD       R9, R4
     b10:	99 d1       	ZXT.B     R9, R9
     b12:	e5 58       	MOV       R7, R5
##@@@P_:vfprintf.c:175 (discriminator 1)
     b14:	45 76       	LD.B      R4, [R5++]
     b16:	00 13       	MOV       R0, #48			;->0x0030
     b18:	1c c6       	SUB       R3, R4, R0
     b1a:	33 d1       	ZXT.B     R3, R3
     b1c:	39 38       	CMP       R3, #9			;->0x09
     b1e:	f3 f9       	JLS       $-13                  ;->0xb04
##@@@P_:vfprintf.c:185
     b20:	57 80       	LD.B      R5, [R7]
     b22:	5c 3e       	CMP       R5, #108			;->0x6C
     b24:	05 f1       	JNZ       $+5                   ;->0xb2e
##@@@P_:vfprintf.c:188
     b26:	7f c0       	ADD       R7, R7, #1
##@@@P_:vfprintf.c:96
     b28:	50 10       	MOV       R5, #0			;->0x0000
##@@@P_:vfprintf.c:187
     b2a:	11 10       	MOV       R1, #1			;->0x0001
     b2c:	09 04       	SJMP      $+9                   ;->0xb3e
##@@@P_:vfprintf.c:190
     b2e:	58 3e       	CMP       R5, #104			;->0x68
     b30:	05 f1       	JNZ       $+5                   ;->0xb3a
##@@@P_:vfprintf.c:193
     b32:	7f c0       	ADD       R7, R7, #1
##@@@P_:vfprintf.c:192
     b34:	51 10       	MOV       R5, #1			;->0x0001
##@@@P_:vfprintf.c:94
     b36:	10 10       	MOV       R1, #0			;->0x0000
     b38:	03 04       	SJMP      $+3                   ;->0xb3e
##@@@P_:vfprintf.c:96
     b3a:	50 10       	MOV       R5, #0			;->0x0000
##@@@P_:vfprintf.c:94
     b3c:	25 58       	MOV       R1, R5
##@@@P_:vfprintf.c:196
     b3e:	37 80       	LD.B      R3, [R7]
##@@@P_:vfprintf.c:99
     b40:	40 10       	MOV       R4, #0			;->0x0000
##@@@P_:vfprintf.c:196
     b42:	35 3f       	CMP       R3, #117			;->0x75
     b44:	03 f1       	JNZ       $+3                   ;->0xb4a
##@@@P_:vfprintf.c:199
     b46:	7f c0       	ADD       R7, R7, #1
##@@@P_:vfprintf.c:198
     b48:	41 10       	MOV       R4, #1			;->0x0001
##@@@P_:vfprintf.c:202
     b4a:	07 80       	LD.B      R0, [R7]
     b4c:	03 3f       	CMP       R0, #115			;->0x73
     b4e:	02 f1       	JNZ       $+2                   ;->0xb52
     b50:	d1 04       	SJMP      $+209                 ;->0xcf2
##@@@P_:vfprintf.c:209
     b52:	08 3f       	CMP       R0, #120			;->0x78
     b54:	02 f1       	JNZ       $+2                   ;->0xb58
     b56:	b8 04       	SJMP      $+184                 ;->0xcc6
##@@@P_:vfprintf.c:211
     b58:	08 3d       	CMP       R0, #88			;->0x58
     b5a:	02 f1       	JNZ       $+2                   ;->0xb5e
     b5c:	b7 04       	SJMP      $+183                 ;->0xcca
##@@@P_:vfprintf.c:215
     b5e:	03 3e       	CMP       R0, #99			;->0x63
     b60:	02 f1       	JNZ       $+2                   ;->0xb64
     b62:	b7 04       	SJMP      $+183                 ;->0xcd0
##@@@P_:vfprintf.c:217
     b64:	0f 3e       	CMP       R0, #111			;->0x6F
     b66:	02 f1       	JNZ       $+2                   ;->0xb6a
     b68:	b7 04       	SJMP      $+183                 ;->0xcd6
##@@@P_:vfprintf.c:219
     b6a:	02 3e       	CMP       R0, #98			;->0x62
     b6c:	02 f1       	JNZ       $+2                   ;->0xb70
     b6e:	b7 04       	SJMP      $+183                 ;->0xcdc
##@@@P_:vfprintf.c:221
     b70:	06 3e       	CMP       R0, #102			;->0x66
     b72:	02 f1       	JNZ       $+2                   ;->0xb76
     b74:	9a 04       	SJMP      $+154                 ;->0xca8
##@@@P_:vfprintf.c:227
     b76:	04 3e       	CMP       R0, #100			;->0x64
     b78:	02 f1       	JNZ       $+2                   ;->0xb7c
     b7a:	b4 04       	SJMP      $+180                 ;->0xce2
##@@@P_:vfprintf.c:227 (discriminator 1)
     b7c:	09 3e       	CMP       R0, #105			;->0x69
     b7e:	02 f1       	JNZ       $+2                   ;->0xb82
     b80:	b1 04       	SJMP      $+177                 ;->0xce2
##@@@P_:vfprintf.c:229
     b82:	40 38       	CMP       R4, #0			;->0x00
     b84:	03 f0       	JZ        $+3                   ;->0xb8a
##@@@P_:vfprintf.c:230
     b86:	7f cc       	SUB       R7, R7, #1
     b88:	ad 04       	SJMP      $+173                 ;->0xce2
##@@@P_:vfprintf.c:239
     b8a:	0b 09       	LD.W      R1, [SP + #11]
     b8c:	80 00 fa 02 	LJMP      $+762     ;->0x1180  1180 <fputchar>
##@@@P_:vfprintf.c:240
     b90:	0a 09       	LD.W      R1, [SP + #10]
     b92:	49 c0       	ADD       R1, R1, #1
     b94:	0a 21       	ST.W      [SP + #10], R1
##@@@P_:vfprintf.c:241
     b96:	7f c0       	ADD       R7, R7, #1
##@@@P_:vfprintf.c:242
     b98:	83 04       	SJMP      $+131                 ;->0xc9e
##@@@P_:vfprintf.c:284
     b9a:	0c 82       	LD.W      R0, [R12]
     b9c:	05 04       	SJMP      $+5                   ;->0xba6
     b9e:	0c 82       	LD.W      R0, [R12]
##@@@P_:vfprintf.c:286
     ba0:	50 38       	CMP       R5, #0			;->0x00
     ba2:	02 f0       	JZ        $+2                   ;->0xba6
##@@@P_:vfprintf.c:288
     ba4:	00 d1       	ZXT.B     R0, R0
##@@@P_:vfprintf.c:294
     ba6:	83 59       	MOV       R12, R3
##@@@P_:vfprintf.c:301
     ba8:	20 38       	CMP       R2, #0			;->0x00
     baa:	13 f0       	JZ        $+19                  ;->0xbd0
##@@@P_:vfprintf.c:303
     bac:	40 38       	CMP       R4, #0			;->0x00
     bae:	06 f0       	JZ        $+6                   ;->0xbba
##@@@P_:vfprintf.c:304
     bb0:	6e 58       	MOV       R3, SP
     bb2:	4b c0       	ADD       R1, R3, #1
     bb4:	80 00 1e 02 	LJMP      $+542     ;->0xff0  ff0 <ultoa>
     bb8:	05 04       	SJMP      $+5                   ;->0xbc2
##@@@P_:vfprintf.c:306
     bba:	8e 58       	MOV       R4, SP
     bbc:	4c c0       	ADD       R1, R4, #1
     bbe:	80 00 3c 02 	LJMP      $+572     ;->0x1036  1036 <ltoa>
##@@@P_:vfprintf.c:308
     bc2:	60 38       	CMP       R6, #0			;->0x00
     bc4:	0b f0       	JZ        $+11                  ;->0xbda
##@@@P_:vfprintf.c:308 (discriminator 1)
     bc6:	a1 e1       	LD.B      R5, [SP + #1]
     bc8:	5d 3a       	CMP       R5, #45			;->0x2D
     bca:	0b f0       	JZ        $+11                  ;->0xbe0
##@@@P_:vfprintf.c:311
     bcc:	eb 83       	ST.B      [SP], R11
     bce:	7a 04       	SJMP      $+122                 ;->0xcc2
##@@@P_:vfprintf.c:318
     bd0:	01 e3       	ST.B      [SP + #1], R0
##@@@P_:vfprintf.c:319
     bd2:	42 e3       	ST.B      [SP + #2], R2
##@@@P_:vfprintf.c:299
     bd4:	ae 58       	MOV       R5, SP
     bd6:	75 c0       	ADD       R6, R5, #1
     bd8:	06 04       	SJMP      $+6                   ;->0xbe4
     bda:	0e 58       	MOV       R0, SP
     bdc:	70 c0       	ADD       R6, R0, #1
     bde:	03 04       	SJMP      $+3                   ;->0xbe4
     be0:	2e 58       	MOV       R1, SP
     be2:	71 c0       	ADD       R6, R1, #1
##@@@P_:vfprintf.c:278
     be4:	9f 1f       	MOV       R9, #255			;->0x00FF
     be6:	a6 58       	MOV       R5, R6
##@@@P_:vfprintf.c:326
     be8:	03 04       	SJMP      $+3                   ;->0xbee
##@@@P_:vfprintf.c:329
     bea:	81 30       	SUB       R8, #1			;->0x01
     bec:	88 d1       	ZXT.B     R8, R8
##@@@P_:vfprintf.c:326 (discriminator 1)
     bee:	80 38       	CMP       R8, #0			;->0x00
     bf0:	04 f0       	JZ        $+4                   ;->0xbf8
##@@@P_:vfprintf.c:326 (discriminator 2)
     bf2:	45 76       	LD.B      R4, [R5++]
     bf4:	40 38       	CMP       R4, #0			;->0x00
     bf6:	fa f1       	JNZ       $-6                   ;->0xbea
##@@@P_:vfprintf.c:332
     bf8:	0d 0b       	LD.W      R3, [SP + #13]
     bfa:	30 38       	CMP       R3, #0			;->0x00
     bfc:	03 f1       	JNZ       $+3                   ;->0xc02
##@@@P_:vfprintf.c:332 (discriminator 1)
     bfe:	68 59       	MOV       R11, R8
     c00:	0d 04       	SJMP      $+13                  ;->0xc1a
##@@@P_:vfprintf.c:346
     c02:	0a 0c       	LD.W      R4, [SP + #10]
     c04:	64 59       	MOV       R11, R4
##@@@P_:vfprintf.c:42
     c06:	2e c7       	SUB       R5, R6, R4
     c08:	0c 25       	ST.W      [SP + #12], R5
##@@@P_:vfprintf.c:346
     c0a:	6f 1f       	MOV       R6, #255			;->0x00FF
     c0c:	23 04       	SJMP      $+35                  ;->0xc52
##@@@P_:vfprintf.c:336
     c0e:	0c 08       	LD.W      R0, [SP + #12]
     c10:	0b 09       	LD.W      R1, [SP + #11]
     c12:	80 00 b7 02 	LJMP      $+695     ;->0x1180  1180 <fputchar>
##@@@P_:vfprintf.c:338
     c16:	b1 30       	SUB       R11, #1			;->0x01
     c18:	bb d1       	ZXT.B     R11, R11
##@@@P_:vfprintf.c:334 (discriminator 1)
     c1a:	b0 38       	CMP       R11, #0			;->0x00
     c1c:	f9 f1       	JNZ       $-7                   ;->0xc0e
     c1e:	0a 08       	LD.W      R0, [SP + #10]
     c20:	08 64       	ADD       R0, R8
     c22:	0a 20       	ST.W      [SP + #10], R0
##@@@P_:vfprintf.c:42
     c24:	0b 59       	MOV       R8, R11
     c26:	ee 07       	SJMP      $-18                  ;->0xc02
##@@@P_:vfprintf.c:346
     c28:	25 59       	MOV       R9, R5
##@@@P_:vfprintf.c:351
     c2a:	a0 38       	CMP       R10, #0			;->0x00
     c2c:	0b f0       	JZ        $+11                  ;->0xc42
##@@@P_:vfprintf.c:353
     c2e:	37 41       	LD        R1, [PC + #55]        ;->0xd08  :=0x10000000
     c30:	31 82       	LD.W      R3, [R1]
     c32:	0e 23       	ST.W      [SP + #14], R3
     c34:	2b e4       	LD.B      R5, [R3 + R0]
     c36:	45 d1       	ZXT.B     R4, R5
     c38:	50 11       	MOV       R5, #16			;->0x0010
     c3a:	6c d5       	ANL       R5, R4, R5
     c3c:	03 f0       	JZ        $+3                   ;->0xc42
##@@@P_:vfprintf.c:353 (discriminator 1)
     c3e:	00 32       	SUB       R0, #32			;->0x20
     c40:	00 d1       	ZXT.B     R0, R0
##@@@P_:vfprintf.c:355
     c42:	0b 09       	LD.W      R1, [SP + #11]
     c44:	80 00 9e 02 	LJMP      $+670     ;->0x1180  1180 <fputchar>
##@@@P_:vfprintf.c:357
     c48:	b1 28       	ADD       R11, #1			;->0x01
##@@@P_:vfprintf.c:358
     c4a:	80 38       	CMP       R8, #0			;->0x00
     c4c:	03 f0       	JZ        $+3                   ;->0xc52
##@@@P_:vfprintf.c:360
     c4e:	81 30       	SUB       R8, #1			;->0x01
     c50:	88 d1       	ZXT.B     R8, R8
##@@@P_:vfprintf.c:344 (discriminator 1)
     c52:	0c 09       	LD.W      R1, [SP + #12]
     c54:	6b 58       	MOV       R3, R11
     c56:	c9 e4       	LD.B      R1, [R1 + R3]
     c58:	01 d1       	ZXT.B     R0, R1
     c5a:	00 38       	CMP       R0, #0			;->0x00
     c5c:	06 f1       	JNZ       $+6                   ;->0xc68
##@@@P_:vfprintf.c:344
     c5e:	c8 58       	MOV       R6, R8
##@@@P_:vfprintf.c:367
     c60:	0d 0b       	LD.W      R3, [SP + #13]
     c62:	30 38       	CMP       R3, #0			;->0x00
     c64:	1a f0       	JZ        $+26                  ;->0xc98
     c66:	0f 04       	SJMP      $+15                  ;->0xc84
##@@@P_:vfprintf.c:346
     c68:	96 70       	CMP       R9, R6
     c6a:	e0 f0       	JZ        $-32                  ;->0xc2a
##@@@P_:vfprintf.c:346 (discriminator 1)
     c6c:	89 58       	MOV       R4, R9
     c6e:	6c cc       	SUB       R5, R4, #1
     c70:	55 d1       	ZXT.B     R5, R5
     c72:	90 38       	CMP       R9, #0			;->0x00
     c74:	da f1       	JNZ       $-38                  ;->0xc28
     c76:	f4 07       	SJMP      $-12                  ;->0xc5e
##@@@P_:vfprintf.c:371
     c78:	00 12       	MOV       R0, #32			;->0x0020
     c7a:	0b 09       	LD.W      R1, [SP + #11]
     c7c:	80 00 82 02 	LJMP      $+642     ;->0x1180  1180 <fputchar>
##@@@P_:vfprintf.c:373
     c80:	81 30       	SUB       R8, #1			;->0x01
     c82:	88 d1       	ZXT.B     R8, R8
##@@@P_:vfprintf.c:369 (discriminator 1)
     c84:	80 38       	CMP       R8, #0			;->0x00
     c86:	f9 f1       	JNZ       $-7                   ;->0xc78
     c88:	b6 64       	ADD       R11, R6
     c8a:	07 04       	SJMP      $+7                   ;->0xc98
##@@@P_:vfprintf.c:383
     c8c:	0b 09       	LD.W      R1, [SP + #11]
     c8e:	80 00 79 02 	LJMP      $+633     ;->0x1180  1180 <fputchar>
##@@@P_:vfprintf.c:384
     c92:	0a 0d       	LD.W      R5, [SP + #10]
     c94:	6d c0       	ADD       R5, R5, #1
     c96:	65 59       	MOV       R11, R5
##@@@P_:vfprintf.c:387
     c98:	7f c0       	ADD       R7, R7, #1
     c9a:	2b 58       	MOV       R1, R11
     c9c:	0a 21       	ST.W      [SP + #10], R1
##@@@P_:vfprintf.c:86 (discriminator 1)
     c9e:	07 80       	LD.B      R0, [R7]
     ca0:	00 38       	CMP       R0, #0			;->0x00
     ca2:	02 f0       	JZ        $+2                   ;->0xca6
     ca4:	e6 06       	SJMP      $-282                 ;->0xa70
     ca6:	2c 04       	SJMP      $+44                  ;->0xcfe
##@@@P_:vfprintf.c:256
     ca8:	cc 58       	MOV       R6, R12
     caa:	68 28       	ADD       R6, #8			;->0x08
     cac:	6c 58       	MOV       R3, R12
     cae:	03 82       	LD.W      R0, [R3]
     cb0:	4b 98       	LD.W      R1, [R3 + #1]
     cb2:	80 00 d1 01 	LJMP      $+465     ;->0x1054  1054 <__truncdfsf2>
##@@@P_:vfprintf.c:258
     cb6:	2e 58       	MOV       R1, SP
     cb8:	49 58       	MOV       R2, R9
     cba:	80 00 69 00 	LJMP      $+105     ;->0xd8c  d8c <ftoa>
##@@@P_:vfprintf.c:256
     cbe:	86 59       	MOV       R12, R6
##@@@P_:vfprintf.c:101
     cc0:	a0 10       	MOV       R10, #0			;->0x0000
##@@@P_:vfprintf.c:257
     cc2:	ce 58       	MOV       R6, SP
     cc4:	90 07       	SJMP      $-112                 ;->0xbe4
##@@@P_:vfprintf.c:101
     cc6:	a0 10       	MOV       R10, #0			;->0x0000
     cc8:	02 04       	SJMP      $+2                   ;->0xccc
##@@@P_:vfprintf.c:213
     cca:	a1 10       	MOV       R10, #1			;->0x0001
     ccc:	20 11       	MOV       R2, #16			;->0x0010
     cce:	0c 04       	SJMP      $+12                  ;->0xce6
##@@@P_:vfprintf.c:101
     cd0:	a0 10       	MOV       R10, #0			;->0x0000
##@@@P_:vfprintf.c:216
     cd2:	4a 58       	MOV       R2, R10
     cd4:	09 04       	SJMP      $+9                   ;->0xce6
##@@@P_:vfprintf.c:101
     cd6:	a0 10       	MOV       R10, #0			;->0x0000
##@@@P_:vfprintf.c:218
     cd8:	28 10       	MOV       R2, #8			;->0x0008
     cda:	06 04       	SJMP      $+6                   ;->0xce6
##@@@P_:vfprintf.c:101
     cdc:	a0 10       	MOV       R10, #0			;->0x0000
##@@@P_:vfprintf.c:220
     cde:	22 10       	MOV       R2, #2			;->0x0002
     ce0:	03 04       	SJMP      $+3                   ;->0xce6
##@@@P_:vfprintf.c:101
     ce2:	a0 10       	MOV       R10, #0			;->0x0000
##@@@P_:vfprintf.c:100
     ce4:	2a 10       	MOV       R2, #10			;->0x000A
     ce6:	0c 58       	MOV       R0, R12
     ce8:	18 c1       	ADD       R3, R0, #4
##@@@P_:vfprintf.c:282
     cea:	10 38       	CMP       R1, #0			;->0x00
     cec:	02 f0       	JZ        $+2                   ;->0xcf0
     cee:	56 07       	SJMP      $-170                 ;->0xb9a
     cf0:	57 07       	SJMP      $-169                 ;->0xb9e
##@@@P_:vfprintf.c:249
     cf2:	6c 82       	LD.W      R6, [R12]
     cf4:	c4 28       	ADD       R12, #4			;->0x04
##@@@P_:vfprintf.c:206
     cf6:	30 12       	MOV       R3, #32			;->0x0020
     cf8:	0c 23       	ST.W      [SP + #12], R3
##@@@P_:vfprintf.c:101
     cfa:	a0 10       	MOV       R10, #0			;->0x0000
     cfc:	75 07       	SJMP      $-139                 ;->0xbe6
##@@@P_:vfprintf.c:391
     cfe:	0a 08       	LD.W      R0, [SP + #10]
     d00:	ec 2b       	ADD       SP, #60			;->0x3C
     d02:	7f 5e       	POP       {R6-R12}
     d04:	0d 5d       	POP       LR
     d06:	1d 5c       	JMP       LR
     d08:	00 00 00 10 	.long     0x10000000 ->268435456  [!!!@2@:NOP      	@@: MOV       R0, #0

00000d0c <_ftoa_put_char>:
##@@@F_:_ftoa_put_char():
##@@@P_:ftoa.c:80
     d0c:	03 44       	LD        R4, [PC + #3]         ;->0xd18  :=0x10000010
     d0e:	54 82       	LD.W      R5, [R4]
     d10:	50 77       	ST.B      [R5++], R0
     d12:	45 85       	ST.W      [R4], R5
##@@@P_:ftoa.c:81
     d14:	1d 5c       	JMP       LR
     d16:	00 00       	NOP      NOP      
     d18:	10 00 00 10 	.long     0x10000010 ->268435472 

00000d1c <_ftoa_put_digit>:
##@@@F_:_ftoa_put_digit():
##@@@P_:ftoa.c:84
     d1c:	81 5f       	PUSH      {R6,LR}
##@@@P_:ftoa.c:85
     d1e:	09 46       	LD        R6, [PC + #9]         ;->0xd40  :=0x1000000c
     d20:	06 82       	LD.W      R0, [R6]
     d22:	84 7d       	LSR       R0, #28			;->0x1C
     d24:	00 2b       	ADD       R0, #48			;->0x30
     d26:	9f 00 f3 ff 	LJMP      $-13      ;->0xd0c  d0c <_ftoa_put_char>
##@@@P_:ftoa.c:86
     d2a:	07 45       	LD        R5, [PC + #7]         ;->0xd44  :=0xfffffff
     d2c:	36 82       	LD.W      R3, [R6]
     d2e:	6b d5       	ANL       R5, R3, R5
##@@@F_:_mul10():
##@@@P_:ftoa.c:55
     d30:	32 10       	MOV       R3, #2			;->0x0002
     d32:	e5 da       	LSL       R4, R5, R3
     d34:	6c c3       	ADD       R5, R4, R5
     d36:	6d c3       	ADD       R5, R5, R5
     d38:	65 85       	ST.W      [R6], R5
##@@@F_:_ftoa_put_digit():
##@@@P_:ftoa.c:88
     d3a:	06 5d       	POP       R6
     d3c:	0d 5d       	POP       LR
     d3e:	1d 5c       	JMP       LR
     d40:	0c 00 00 10 	.long     0x1000000c ->268435468 
     d44:	ff ff ff 0f 	.long     0x0fffffff ->268435455 

00000d48 <_ftoa_round>:
##@@@F_:_ftoa_round():
##@@@P_:ftoa.c:60
     d48:	00 38       	CMP       R0, #0			;->0x00
     d4a:	1a f4       	JMI       $+26                  ;->0xd7e
##@@@P_:ftoa.c:62
     d4c:	0d 45       	LD        R5, [PC + #13]        ;->0xd80  :=0x1000000c
     d4e:	45 82       	LD.W      R4, [R5]
##@@@P_:ftoa.c:64
     d50:	51 10       	MOV       R5, #1			;->0x0001
     d52:	ab 7b       	LSL       R5, #27			;->0x1B
##@@@F_:_div10():
##@@@P_:ftoa.c:50
     d54:	3a 10       	MOV       R3, #10			;->0x000A
##@@@F_:_ftoa_round():
##@@@P_:ftoa.c:64
     d56:	04 04       	SJMP      $+4                   ;->0xd5e
##@@@F_:_div10():
##@@@P_:ftoa.c:50
     d58:	6d c1       	ADD       R5, R5, #5
     d5a:	ed d2       	DIVU      R5, R5, R3
##@@@F_:_ftoa_round():
##@@@P_:ftoa.c:67
     d5c:	40 cc       	SUB       R0, R0, #1
##@@@P_:ftoa.c:64 (discriminator 1)
     d5e:	00 38       	CMP       R0, #0			;->0x00
     d60:	fc f1       	JNZ       $-4                   ;->0xd58
##@@@P_:ftoa.c:69
     d62:	2d c3       	ADD       R5, R5, R4
     d64:	07 44       	LD        R4, [PC + #7]         ;->0xd80  :=0x1000000c
     d66:	45 85       	ST.W      [R4], R5
##@@@P_:ftoa.c:70
     d68:	07 43       	LD        R3, [PC + #7]         ;->0xd84  :=0x9fffffff
     d6a:	53 70       	CMP       R5, R3
     d6c:	09 f9       	JLS       $+9                   ;->0xd7e
##@@@F_:_div10():
##@@@P_:ftoa.c:50
     d6e:	6d c1       	ADD       R5, R5, #5
     d70:	3a 10       	MOV       R3, #10			;->0x000A
     d72:	ed d2       	DIVU      R5, R5, R3
     d74:	45 85       	ST.W      [R4], R5
##@@@F_:_ftoa_round():
##@@@P_:ftoa.c:73
     d76:	05 45       	LD        R5, [PC + #5]         ;->0xd88  :=0x10000004
     d78:	35 82       	LD.W      R3, [R5]
     d7a:	63 c0       	ADD       R4, R3, #1
     d7c:	54 85       	ST.W      [R5], R4
##@@@P_:ftoa.c:76
     d7e:	1d 5c       	JMP       LR
     d80:	0c 00 00 10 	.long     0x1000000c ->268435468 
     d84:	ff ff ff 9f 	.long     0x9fffffff ->-1610612737 
     d88:	04 00 00 10 	.long     0x10000004 ->268435460 

00000d8c <ftoa>:
##@@@F_:ftoa():
##@@@P_:ftoa.c:91
     d8c:	87 5f       	PUSH      {R6-R8,LR}
     d8e:	62 d1       	ZXT.B     R6, R2
##@@@P_:ftoa.c:92
     d90:	8d 47       	LD        R7, [PC + #141]       ;->0xfc4  :=0x1000000c
     d92:	70 85       	ST.W      [R7], R0
##@@@P_:ftoa.c:93
     d94:	8d 45       	LD        R5, [PC + #141]       ;->0xfc8  :=0x10000010
     d96:	51 85       	ST.W      [R5], R1
##@@@P_:ftoa.c:96
     d98:	00 38       	CMP       R0, #0			;->0x00
     d9a:	04 f5       	JPL       $+4                   ;->0xda2
##@@@P_:ftoa.c:97
     d9c:	0d 12       	MOV       R0, #45			;->0x002D
     d9e:	9f 00 b7 ff 	LJMP      $-73      ;->0xd0c  d0c <_ftoa_put_char>
##@@@P_:ftoa.c:99
     da2:	57 82       	LD.W      R5, [R7]
     da4:	07 11       	MOV       R0, #23			;->0x0017
     da6:	1d dc       	LSR       R3, R5, R0
     da8:	1f 1f       	MOV       R1, #255			;->0x00FF
     daa:	5b d4       	ANL       R3, R3, R1
     dac:	88 44       	LD        R4, [PC + #136]       ;->0xfcc  :=0x10000008
     dae:	43 85       	ST.W      [R4], R3
##@@@P_:ftoa.c:100
     db0:	88 42       	LD        R2, [PC + #136]       ;->0xfd0  :=0x7fffff
     db2:	ad d4       	ANL       R5, R5, R2
     db4:	01 10       	MOV       R0, #1			;->0x0001
     db6:	07 7b       	LSL       R0, #23			;->0x17
     db8:	25 d6       	ORL       R4, R5, R0
     dba:	74 85       	ST.W      [R7], R4
##@@@P_:ftoa.c:103
     dbc:	31 70       	CMP       R3, R1
     dbe:	1a f1       	JNZ       $+26                  ;->0xdf2
##@@@P_:ftoa.c:105
     dc0:	51 10       	MOV       R5, #1			;->0x0001
     dc2:	2f 7b       	LSL       R5, #23			;->0x17
     dc4:	45 70       	CMP       R4, R5
     dc6:	09 f1       	JNZ       $+9                   ;->0xdd8
##@@@P_:ftoa.c:108
     dc8:	09 16       	MOV       R0, #105			;->0x0069
     dca:	9f 00 a1 ff 	LJMP      $-95      ;->0xd0c  d0c <_ftoa_put_char>
##@@@P_:ftoa.c:109
     dce:	0e 16       	MOV       R0, #110			;->0x006E
     dd0:	9f 00 9e ff 	LJMP      $-98      ;->0xd0c  d0c <_ftoa_put_char>
##@@@P_:ftoa.c:110
     dd4:	06 14       	MOV       R0, #70			;->0x0046
     dd6:	08 04       	SJMP      $+8                   ;->0xde6
##@@@P_:ftoa.c:115
     dd8:	0e 16       	MOV       R0, #110			;->0x006E
     dda:	9f 00 99 ff 	LJMP      $-103     ;->0xd0c  d0c <_ftoa_put_char>
##@@@P_:ftoa.c:116
     dde:	01 16       	MOV       R0, #97			;->0x0061
     de0:	9f 00 96 ff 	LJMP      $-106     ;->0xd0c  d0c <_ftoa_put_char>
##@@@P_:ftoa.c:117
     de4:	0e 16       	MOV       R0, #110			;->0x006E
     de6:	9f 00 93 ff 	LJMP      $-109     ;->0xd0c  d0c <_ftoa_put_char>
##@@@P_:ftoa.c:119
     dea:	00 10       	MOV       R0, #0			;->0x0000
     dec:	9f 00 90 ff 	LJMP      $-112     ;->0xd0c  d0c <_ftoa_put_char>
##@@@P_:ftoa.c:120
     df0:	e6 04       	SJMP      $+230                 ;->0xfbc
##@@@P_:ftoa.c:124
     df2:	30 38       	CMP       R3, #0			;->0x00
     df4:	0c f0       	JZ        $+12                  ;->0xe0c
##@@@P_:ftoa.c:170
     df6:	74 45       	LD        R5, [PC + #116]       ;->0xfc4  :=0x1000000c
     df8:	55 82       	LD.W      R5, [R5]
##@@@P_:ftoa.c:171
     dfa:	75 44       	LD        R4, [PC + #117]       ;->0xfcc  :=0x10000008
     dfc:	44 82       	LD.W      R4, [R4]
     dfe:	4f 37       	SUB       R4, #127			;->0x7F
     e00:	2d 7a       	LSL       R5, #5			;->0x05
     e02:	44 58       	MOV       R2, R4
##@@@P_:ftoa.c:173
     e04:	30 10       	MOV       R3, #0			;->0x0000
##@@@P_:ftoa.c:175
     e06:	74 41       	LD        R1, [PC + #116]       ;->0xfd4  :=0x4fffffff
##@@@F_:_div5():
##@@@P_:ftoa.c:40
     e08:	05 10       	MOV       R0, #5			;->0x0005
##@@@F_:ftoa():
##@@@P_:ftoa.c:173
     e0a:	3c 04       	SJMP      $+60                  ;->0xe82
##@@@P_:ftoa.c:126
     e0c:	31 10       	MOV       R3, #1			;->0x0001
     e0e:	1f 7b       	LSL       R3, #23			;->0x17
     e10:	43 70       	CMP       R4, R3
     e12:	24 f1       	JNZ       $+36                  ;->0xe5a
##@@@P_:ftoa.c:129
     e14:	00 13       	MOV       R0, #48			;->0x0030
     e16:	9f 00 7b ff 	LJMP      $-133     ;->0xd0c  d0c <_ftoa_put_char>
##@@@P_:ftoa.c:130
     e1a:	5f 11       	MOV       R5, #31			;->0x001F
     e1c:	6e d5       	ANL       R5, R6, R5
     e1e:	6f 47       	LD        R7, [PC + #111]       ;->0xfd8  :=0x10000004
     e20:	75 85       	ST.W      [R7], R5
##@@@P_:ftoa.c:131
     e22:	50 38       	CMP       R5, #0			;->0x00
     e24:	05 f1       	JNZ       $+5                   ;->0xe2e
##@@@P_:ftoa.c:137
     e26:	50 14       	MOV       R5, #64			;->0x0040
     e28:	76 d5       	ANL       R6, R6, R5
     e2a:	e0 f0       	JZ        $-32                  ;->0xdea
     e2c:	0c 04       	SJMP      $+12                  ;->0xe44
##@@@P_:ftoa.c:133
     e2e:	0e 12       	MOV       R0, #46			;->0x002E
     e30:	02 04       	SJMP      $+2                   ;->0xe34
##@@@P_:ftoa.c:135
     e32:	00 13       	MOV       R0, #48			;->0x0030
     e34:	9f 00 6c ff 	LJMP      $-148     ;->0xd0c  d0c <_ftoa_put_char>
##@@@P_:ftoa.c:134
     e38:	57 82       	LD.W      R5, [R7]
     e3a:	65 cc       	SUB       R4, R5, #1
     e3c:	74 85       	ST.W      [R7], R4
     e3e:	50 38       	CMP       R5, #0			;->0x00
     e40:	f9 f1       	JNZ       $-7                   ;->0xe32
     e42:	f2 07       	SJMP      $-14                  ;->0xe26
##@@@P_:ftoa.c:139
     e44:	05 14       	MOV       R0, #69			;->0x0045
     e46:	9f 00 63 ff 	LJMP      $-157     ;->0xd0c  d0c <_ftoa_put_char>
##@@@P_:ftoa.c:140
     e4a:	0b 12       	MOV       R0, #43			;->0x002B
     e4c:	9f 00 60 ff 	LJMP      $-160     ;->0xd0c  d0c <_ftoa_put_char>
##@@@P_:ftoa.c:141
     e50:	00 13       	MOV       R0, #48			;->0x0030
     e52:	9f 00 5d ff 	LJMP      $-163     ;->0xd0c  d0c <_ftoa_put_char>
##@@@P_:ftoa.c:142
     e56:	00 13       	MOV       R0, #48			;->0x0030
     e58:	c7 07       	SJMP      $-57                  ;->0xde6
##@@@P_:ftoa.c:152
     e5a:	41 10       	MOV       R4, #1			;->0x0001
     e5c:	02 04       	SJMP      $+2                   ;->0xe60
##@@@F_:_mul2():
##@@@P_:ftoa.c:35
     e5e:	6d c3       	ADD       R5, R5, R5
     e60:	64 58       	MOV       R3, R4
     e62:	64 cc       	SUB       R4, R4, #1
##@@@F_:ftoa():
##@@@P_:ftoa.c:152 (discriminator 1)
     e64:	52 70       	CMP       R5, R2
     e66:	fc f9       	JLS       $-4                   ;->0xe5e
     e68:	57 44       	LD        R4, [PC + #87]        ;->0xfc4  :=0x1000000c
     e6a:	45 85       	ST.W      [R4], R5
     e6c:	58 45       	LD        R5, [PC + #88]        ;->0xfcc  :=0x10000008
     e6e:	53 85       	ST.W      [R5], R3
     e70:	c3 07       	SJMP      $-61                  ;->0xdf6
##@@@P_:ftoa.c:175
     e72:	51 70       	CMP       R5, R1
     e74:	03 f8       	JHI       $+3                   ;->0xe7a
##@@@F_:_mul2():
##@@@P_:ftoa.c:35
     e76:	6d c3       	ADD       R5, R5, R5
     e78:	04 04       	SJMP      $+4                   ;->0xe80
##@@@F_:_div5():
##@@@P_:ftoa.c:40
     e7a:	ad c0       	ADD       R5, R5, #2
     e7c:	2d d2       	DIVU      R5, R5, R0
##@@@F_:ftoa():
##@@@P_:ftoa.c:182
     e7e:	5b c0       	ADD       R3, R3, #1
     e80:	52 cc       	SUB       R2, R2, #1
##@@@P_:ftoa.c:173 (discriminator 1)
     e82:	20 38       	CMP       R2, #0			;->0x00
     e84:	f7 fc       	JGT       $-9                   ;->0xe72
##@@@P_:ftoa.c:90
     e86:	44 58       	MOV       R2, R4
     e88:	40 38       	CMP       R4, #0			;->0x00
     e8a:	02 f5       	JPL       $+2                   ;->0xe8e
     e8c:	20 10       	MOV       R2, #0			;->0x0000
     e8e:	a4 c6       	SUB       R4, R4, R2
##@@@P_:ftoa.c:188
     e90:	53 42       	LD        R2, [PC + #83]        ;->0xfdc  :=0x1fffffff
     e92:	0b 04       	SJMP      $+11                  ;->0xea8
     e94:	52 70       	CMP       R5, R2
     e96:	06 f8       	JHI       $+6                   ;->0xea2
##@@@F_:_mul5():
##@@@P_:ftoa.c:45
     e98:	02 10       	MOV       R0, #2			;->0x0002
     e9a:	0d da       	LSL       R1, R5, R0
     e9c:	6d c2       	ADD       R5, R5, R1
##@@@F_:ftoa():
##@@@P_:ftoa.c:191
     e9e:	5b cc       	SUB       R3, R3, #1
     ea0:	03 04       	SJMP      $+3                   ;->0xea6
##@@@F_:_div2():
##@@@P_:ftoa.c:30
     ea2:	6d c0       	ADD       R5, R5, #1
     ea4:	29 7c       	LSR       R5, #1			;->0x01
     ea6:	64 c0       	ADD       R4, R4, #1
##@@@F_:ftoa():
##@@@P_:ftoa.c:186 (discriminator 1)
     ea8:	40 38       	CMP       R4, #0			;->0x00
     eaa:	f5 f4       	JMI       $-11                  ;->0xe94
     eac:	48 42       	LD        R2, [PC + #72]        ;->0xfcc  :=0x10000008
     eae:	24 85       	ST.W      [R2], R4
##@@@P_:ftoa.c:199
     eb0:	4c 42       	LD        R2, [PC + #76]        ;->0xfe0  :=0xfffffff
     eb2:	05 04       	SJMP      $+5                   ;->0xebc
##@@@F_:_mul10():
##@@@P_:ftoa.c:55
     eb4:	12 10       	MOV       R1, #2			;->0x0002
     eb6:	65 da       	LSL       R4, R5, R1
     eb8:	6c c3       	ADD       R5, R4, R5
     eba:	6d c3       	ADD       R5, R5, R5
     ebc:	83 58       	MOV       R4, R3
     ebe:	5b cc       	SUB       R3, R3, #1
##@@@F_:ftoa():
##@@@P_:ftoa.c:199 (discriminator 1)
     ec0:	52 70       	CMP       R5, R2
     ec2:	f9 f9       	JLS       $-7                   ;->0xeb4
     ec4:	45 43       	LD        R3, [PC + #69]        ;->0xfd8  :=0x10000004
     ec6:	34 85       	ST.W      [R3], R4
     ec8:	3f 43       	LD        R3, [PC + #63]        ;->0xfc4  :=0x1000000c
     eca:	35 85       	ST.W      [R3], R5
##@@@P_:ftoa.c:208
     ecc:	50 16       	MOV       R5, #96			;->0x0060
     ece:	6e d5       	ANL       R5, R6, R5
     ed0:	0a f1       	JNZ       $+10                  ;->0xee4
##@@@P_:ftoa.c:210
     ed2:	53 10       	MOV       R5, #3			;->0x0003
     ed4:	55 68       	NOT       R5, R5
     ed6:	45 70       	CMP       R4, R5
     ed8:	03 fb       	JLT       $+3                   ;->0xede
##@@@P_:ftoa.c:210 (discriminator 1)
     eda:	46 70       	CMP       R4, R6
     edc:	03 fb       	JLT       $+3                   ;->0xee2
##@@@P_:ftoa.c:211
     ede:	36 48       	SET       R6, #6			;->0x06
     ee0:	02 04       	SJMP      $+2                   ;->0xee4
##@@@P_:ftoa.c:213
     ee2:	35 48       	SET       R6, #5			;->0x05
##@@@P_:ftoa.c:216
     ee4:	50 14       	MOV       R5, #64			;->0x0040
     ee6:	6e d5       	ANL       R5, R6, R5
     ee8:	7f 11       	MOV       R7, #31			;->0x001F
##@@@P_:ftoa.c:218
     eea:	fe d5       	ANL       R7, R6, R7
##@@@P_:ftoa.c:216
     eec:	50 38       	CMP       R5, #0			;->0x00
     eee:	32 f0       	JZ        $+50                  ;->0xf52
##@@@P_:ftoa.c:218
     ef0:	07 58       	MOV       R0, R7
     ef2:	9f 00 2b ff 	LJMP      $-213     ;->0xd48  d48 <_ftoa_round>
##@@@P_:ftoa.c:219
     ef6:	9f 00 13 ff 	LJMP      $-237     ;->0xd1c  d1c <_ftoa_put_digit>
##@@@P_:ftoa.c:220
     efa:	35 46       	LD        R6, [PC + #53]        ;->0xfcc  :=0x10000008
     efc:	67 85       	ST.W      [R6], R7
##@@@P_:ftoa.c:221
     efe:	70 38       	CMP       R7, #0			;->0x00
     f00:	09 f1       	JNZ       $+9                   ;->0xf12
##@@@P_:ftoa.c:230
     f02:	05 14       	MOV       R0, #69			;->0x0045
     f04:	9f 00 04 ff 	LJMP      $-252     ;->0xd0c  d0c <_ftoa_put_char>
##@@@P_:ftoa.c:231
     f08:	34 46       	LD        R6, [PC + #52]        ;->0xfd8  :=0x10000004
     f0a:	56 82       	LD.W      R5, [R6]
     f0c:	50 38       	CMP       R5, #0			;->0x00
     f0e:	17 f5       	JPL       $+23                  ;->0xf3c
     f10:	0e 04       	SJMP      $+14                  ;->0xf2c
##@@@P_:ftoa.c:223
     f12:	0e 12       	MOV       R0, #46			;->0x002E
     f14:	9f 00 fc fe 	LJMP      $-260     ;->0xd0c  d0c <_ftoa_put_char>
##@@@P_:ftoa.c:224
     f18:	06 04       	SJMP      $+6                   ;->0xf24
##@@@P_:ftoa.c:226
     f1a:	9f 00 01 ff 	LJMP      $-255     ;->0xd1c  d1c <_ftoa_put_digit>
##@@@P_:ftoa.c:227
     f1e:	46 82       	LD.W      R4, [R6]
     f20:	6c cc       	SUB       R5, R4, #1
     f22:	65 85       	ST.W      [R6], R5
##@@@P_:ftoa.c:224 (discriminator 1)
     f24:	56 82       	LD.W      R5, [R6]
     f26:	50 38       	CMP       R5, #0			;->0x00
     f28:	f9 fc       	JGT       $-7                   ;->0xf1a
     f2a:	ec 07       	SJMP      $-20                  ;->0xf02
##@@@P_:ftoa.c:233
     f2c:	0d 12       	MOV       R0, #45			;->0x002D
     f2e:	9f 00 ef fe 	LJMP      $-273     ;->0xd0c  d0c <_ftoa_put_char>
##@@@P_:ftoa.c:234
     f32:	50 10       	MOV       R5, #0			;->0x0000
     f34:	06 82       	LD.W      R0, [R6]
     f36:	2d c6       	SUB       R5, R5, R0
     f38:	65 85       	ST.W      [R6], R5
     f3a:	04 04       	SJMP      $+4                   ;->0xf42
##@@@P_:ftoa.c:238
     f3c:	0b 12       	MOV       R0, #43			;->0x002B
     f3e:	9f 00 e7 fe 	LJMP      $-281     ;->0xd0c  d0c <_ftoa_put_char>
##@@@P_:ftoa.c:240
     f42:	26 45       	LD        R5, [PC + #38]        ;->0xfd8  :=0x10000004
     f44:	05 82       	LD.W      R0, [R5]
     f46:	21 45       	LD        R5, [PC + #33]        ;->0xfc8  :=0x10000010
     f48:	15 82       	LD.W      R1, [R5]
     f4a:	2a 10       	MOV       R2, #10			;->0x000A
     f4c:	80 00 4c 00 	LJMP      $+76      ;->0xfe4  fe4 <uitoa>
     f50:	36 04       	SJMP      $+54                  ;->0xfbc
##@@@P_:ftoa.c:245
     f52:	22 46       	LD        R6, [PC + #34]        ;->0xfd8  :=0x10000004
     f54:	16 82       	LD.W      R1, [R6]
     f56:	47 c2       	ADD       R0, R7, R1
     f58:	9f 00 f8 fe 	LJMP      $-264     ;->0xd48  d48 <_ftoa_round>
##@@@P_:ftoa.c:247
     f5c:	56 82       	LD.W      R5, [R6]
     f5e:	50 38       	CMP       R5, #0			;->0x00
     f60:	07 f5       	JPL       $+7                   ;->0xf6e
     f62:	0a 04       	SJMP      $+10                  ;->0xf76
##@@@P_:ftoa.c:251
     f64:	9f 00 dc fe 	LJMP      $-292     ;->0xd1c  d1c <_ftoa_put_digit>
##@@@P_:ftoa.c:252
     f68:	46 82       	LD.W      R4, [R6]
     f6a:	6c cc       	SUB       R5, R4, #1
     f6c:	65 85       	ST.W      [R6], R5
##@@@P_:ftoa.c:249 (discriminator 1)
     f6e:	56 82       	LD.W      R5, [R6]
     f70:	50 38       	CMP       R5, #0			;->0x00
     f72:	f9 f5       	JPL       $-7                   ;->0xf64
     f74:	04 04       	SJMP      $+4                   ;->0xf7c
##@@@P_:ftoa.c:257
     f76:	00 13       	MOV       R0, #48			;->0x0030
     f78:	9f 00 ca fe 	LJMP      $-310     ;->0xd0c  d0c <_ftoa_put_char>
##@@@P_:ftoa.c:259
     f7c:	14 46       	LD        R6, [PC + #20]        ;->0xfcc  :=0x10000008
     f7e:	67 85       	ST.W      [R6], R7
##@@@P_:ftoa.c:260
     f80:	70 38       	CMP       R7, #0			;->0x00
     f82:	02 f1       	JNZ       $+2                   ;->0xf86
     f84:	33 07       	SJMP      $-205                 ;->0xdea
##@@@P_:ftoa.c:263
     f86:	0e 12       	MOV       R0, #46			;->0x002E
     f88:	9f 00 c2 fe 	LJMP      $-318     ;->0xd0c  d0c <_ftoa_put_char>
##@@@P_:ftoa.c:266
     f8c:	13 47       	LD        R7, [PC + #19]        ;->0xfd8  :=0x10000004
     f8e:	50 10       	MOV       R5, #0			;->0x0000
     f90:	55 68       	NOT       R5, R5
     f92:	05 59       	MOV       R8, R5
##@@@P_:ftoa.c:264
     f94:	10 04       	SJMP      $+16                  ;->0xfb4
##@@@P_:ftoa.c:266
     f96:	57 82       	LD.W      R5, [R7]
     f98:	58 70       	CMP       R5, R8
     f9a:	08 fa       	JGE       $+8                   ;->0xfaa
##@@@P_:ftoa.c:268
     f9c:	00 13       	MOV       R0, #48			;->0x0030
     f9e:	9f 00 b7 fe 	LJMP      $-329     ;->0xd0c  d0c <_ftoa_put_char>
##@@@P_:ftoa.c:269
     fa2:	07 82       	LD.W      R0, [R7]
     fa4:	68 c0       	ADD       R5, R0, #1
     fa6:	75 85       	ST.W      [R7], R5
     fa8:	03 04       	SJMP      $+3                   ;->0xfae
##@@@P_:ftoa.c:273
     faa:	9f 00 b9 fe 	LJMP      $-327     ;->0xd1c  d1c <_ftoa_put_digit>
##@@@P_:ftoa.c:275
     fae:	16 82       	LD.W      R1, [R6]
     fb0:	69 cc       	SUB       R5, R1, #1
     fb2:	65 85       	ST.W      [R6], R5
##@@@P_:ftoa.c:264 (discriminator 1)
     fb4:	56 82       	LD.W      R5, [R6]
     fb6:	50 38       	CMP       R5, #0			;->0x00
     fb8:	ef fc       	JGT       $-17                  ;->0xf96
     fba:	18 07       	SJMP      $-232                 ;->0xdea
##@@@P_:ftoa.c:280
     fbc:	07 5e       	POP       {R6-R8}
     fbe:	0d 5d       	POP       LR
     fc0:	1d 5c       	JMP       LR
     fc2:	00 00       	NOP      NOP      
     fc4:	0c 00 00 10 	.long     0x1000000c ->268435468 
     fc8:	10 00 00 10 	.long     0x10000010 ->268435472 
     fcc:	08 00 00 10 	.long     0x10000008 ->268435464  [!!!@2@:ISYNC    	@@: MOV       R0, #0
     fd0:	ff ff 7f 00 	.long     0x007fffff ->008388607 
     fd4:	ff ff ff 4f 	.long     0x4fffffff ->1342177279 
     fd8:	04 00 00 10 	.long     0x10000004 ->268435460 
     fdc:	ff ff ff 1f 	.long     0x1fffffff ->536870911 
     fe0:	ff ff ff 0f 	.long     0x0fffffff ->268435455 

00000fe4 <uitoa>:
##@@@F_:uitoa():
##@@@P_:itoa.c:32
     fe4:	2d 5d       	PUSH      LR
##@@@P_:itoa.c:33
     fe6:	22 d1       	ZXT.B     R2, R2
     fe8:	80 00 04 00 	LJMP      $+4       ;->0xff0  ff0 <ultoa>
##@@@P_:itoa.c:34
     fec:	0d 5d       	POP       LR
     fee:	1d 5c       	JMP       LR

00000ff0 <ultoa>:
##@@@F_:ultoa():
##@@@P_:ltoa.c:12
     ff0:	03 5f       	PUSH      {R6-R7}
     ff2:	e0 32       	SUB       SP, #32			;->0x20
     ff4:	22 d1       	ZXT.B     R2, R2
##@@@P_:ltoa.c:17
     ff6:	50 12       	MOV       R5, #32			;->0x0020
##@@@P_:ltoa.c:20
     ff8:	98 d2       	DIVU      R3, R0, R2
     ffa:	a3 ca       	MULS      R4, R3, R2
     ffc:	00 00       	NOP      NOP      
     ffe:	00 c7       	SUB       R0, R0, R4
    1000:	00 d1       	ZXT.B     R0, R0
    1002:	60 13       	MOV       R6, #48			;->0x0030
    1004:	a0 c3       	ADD       R4, R0, R6
    1006:	44 d1       	ZXT.B     R4, R4
##@@@P_:ltoa.c:21
    1008:	49 3b       	CMP       R4, #57			;->0x39
    100a:	03 f9       	JLS       $+3                   ;->0x1010
##@@@P_:ltoa.c:21 (discriminator 1)
    100c:	07 2d       	ADD       R0, #87			;->0x57
    100e:	40 d1       	ZXT.B     R4, R0
##@@@P_:ltoa.c:23
    1010:	6d cc       	SUB       R5, R5, #1
    1012:	ee 58       	MOV       R7, SP
    1014:	47 c3       	ADD       R0, R7, R5
    1016:	04 83       	ST.B      [R0], R4
##@@@P_:ltoa.c:24
    1018:	03 58       	MOV       R0, R3
##@@@P_:ltoa.c:25
    101a:	30 38       	CMP       R3, #0			;->0x00
    101c:	ee f1       	JNZ       $-18                  ;->0xff8
##@@@P_:ltoa.c:28 (discriminator 1)
    101e:	6e 58       	MOV       R3, SP
    1020:	63 c3       	ADD       R4, R3, R5
    1022:	44 80       	LD.B      R4, [R4]
    1024:	14 77       	ST.B      [R1++], R4
    1026:	6d c0       	ADD       R5, R5, #1
##@@@P_:ltoa.c:29
    1028:	5f 39       	CMP       R5, #31			;->0x1F
    102a:	fa f9       	JLS       $-6                   ;->0x101e
##@@@P_:ltoa.c:31
    102c:	50 10       	MOV       R5, #0			;->0x0000
    102e:	15 83       	ST.B      [R1], R5
##@@@P_:ltoa.c:32
    1030:	e0 2a       	ADD       SP, #32			;->0x20
    1032:	03 5e       	POP       {R6-R7}
    1034:	1d 5c       	JMP       LR

00001036 <ltoa>:
##@@@F_:ltoa():
##@@@P_:ltoa.c:35
    1036:	2d 5d       	PUSH      LR
    1038:	22 d1       	ZXT.B     R2, R2
##@@@P_:ltoa.c:37
    103a:	00 38       	CMP       R0, #0			;->0x00
    103c:	07 f5       	JPL       $+7                   ;->0x104a
##@@@P_:ltoa.c:37 (discriminator 1)
    103e:	2a 38       	CMP       R2, #10			;->0x0A
    1040:	05 f1       	JNZ       $+5                   ;->0x104a
##@@@P_:ltoa.c:38
    1042:	5d 12       	MOV       R5, #45			;->0x002D
    1044:	15 77       	ST.B      [R1++], R5
##@@@P_:ltoa.c:39
    1046:	50 10       	MOV       R5, #0			;->0x0000
    1048:	05 c6       	SUB       R0, R5, R0
##@@@P_:ltoa.c:42
    104a:	9f 00 d3 ff 	LJMP      $-45      ;->0xff0  ff0 <ultoa>
##@@@P_:ltoa.c:43
    104e:	0d 5d       	POP       LR
    1050:	1d 5c       	JMP       LR
	...

00001054 <__truncdfsf2>:
##@@@F_:__truncdfsf2():
    1054:	03 5f       	PUSH      {R6-R7}
    1056:	e8 30       	SUB       SP, #8			;->0x08
    1058:	e0 85       	ST.W      [SP], R0
    105a:	01 21       	ST.W      [SP + #1], R1
    105c:	0e 82       	LD.W      R0, [SP]
    105e:	01 0c       	LD.W      R4, [SP + #1]
    1060:	41 41       	LD        R1, [PC + #65]        ;->0x1164  :=0xfffff
    1062:	4c d4       	ANL       R1, R4, R1
    1064:	54 11       	MOV       R5, #20			;->0x0014
    1066:	5c dd       	LSR       R3, R4, R5
    1068:	40 47       	LD        R7, [PC + #64]        ;->0x1168  :=0x7ff
    106a:	db d5       	ANL       R3, R3, R7
    106c:	5f 11       	MOV       R5, #31			;->0x001F
    106e:	74 dd       	LSR       R6, R4, R5
    1070:	0b 7a       	LSL       R1, #3			;->0x03
    1072:	5d 11       	MOV       R5, #29			;->0x001D
    1074:	60 dd       	LSR       R4, R0, R5
    1076:	09 d7       	ORL       R1, R1, R4
    1078:	53 10       	MOV       R5, #3			;->0x0003
    107a:	50 db       	LSL       R2, R0, R5
    107c:	6b c0       	ADD       R5, R3, #1
    107e:	fd d5       	ANL       R7, R5, R7
    1080:	71 38       	CMP       R7, #1			;->0x01
    1082:	37 fd       	JLE       $+55                  ;->0x10f0
    1084:	3a 44       	LD        R4, [PC + #58]        ;->0x116c  :=0x380
    1086:	23 c7       	SUB       R4, R3, R4
    1088:	5e 1f       	MOV       R5, #254			;->0x00FE
    108a:	45 70       	CMP       R4, R5
    108c:	43 fc       	JGT       $+67                  ;->0x1112
    108e:	40 38       	CMP       R4, #0			;->0x00
    1090:	26 fc       	JGT       $+38                  ;->0x10dc
    1092:	56 11       	MOV       R5, #22			;->0x0016
    1094:	55 68       	NOT       R5, R5
    1096:	45 70       	CMP       R4, R5
    1098:	40 fb       	JLT       $+64                  ;->0x1118
    109a:	0f 49       	SET       R1, #23			;->0x17
    109c:	35 44       	LD        R4, [PC + #53]        ;->0x1170  :=0x39e
    109e:	e4 c6       	SUB       R4, R4, R3
    10a0:	35 45       	LD        R5, [PC + #53]        ;->0x1174  :=0x37e
    10a2:	4f 39       	CMP       R4, #31			;->0x1F
    10a4:	0c fc       	JGT       $+12                  ;->0x10bc
    10a6:	5b c7       	SUB       R3, R3, R5
    10a8:	02 dd       	LSR       R0, R2, R4
    10aa:	c9 da       	LSL       R1, R1, R3
    10ac:	d2 da       	LSL       R2, R2, R3
    10ae:	40 10       	MOV       R4, #0			;->0x0000
    10b0:	ac c6       	SUB       R5, R4, R2
    10b2:	95 d6       	ORL       R2, R5, R2
    10b4:	97 7d       	LSR       R2, #31			;->0x1F
    10b6:	a9 d6       	ORL       R5, R1, R2
    10b8:	2d d6       	ORL       R5, R5, R0
    10ba:	31 04       	SJMP      $+49                  ;->0x111c
    10bc:	ed c6       	SUB       R5, R5, R3
    10be:	79 dd       	LSR       R7, R1, R5
    10c0:	00 10       	MOV       R0, #0			;->0x0000
    10c2:	40 3a       	CMP       R4, #32			;->0x20
    10c4:	04 f0       	JZ        $+4                   ;->0x10cc
    10c6:	2d 40       	LD        R0, [PC + #45]        ;->0x1178  :=0x35e
    10c8:	1b c6       	SUB       R3, R3, R0
    10ca:	c1 da       	LSL       R0, R1, R3
    10cc:	90 d6       	ORL       R2, R0, R2
    10ce:	40 10       	MOV       R4, #0			;->0x0000
    10d0:	ac c6       	SUB       R5, R4, R2
    10d2:	95 d6       	ORL       R2, R5, R2
    10d4:	3f 11       	MOV       R3, #31			;->0x001F
    10d6:	ea dc       	LSR       R5, R2, R3
    10d8:	ed d7       	ORL       R5, R5, R7
    10da:	21 04       	SJMP      $+33                  ;->0x111c
    10dc:	95 7d       	LSR       R2, #29			;->0x1D
    10de:	0b 7a       	LSL       R1, #3			;->0x03
    10e0:	06 7a       	LSL       R0, #6			;->0x06
    10e2:	50 10       	MOV       R5, #0			;->0x0000
    10e4:	2d c6       	SUB       R5, R5, R0
    10e6:	05 d6       	ORL       R0, R5, R0
    10e8:	87 7d       	LSR       R0, #31			;->0x1F
    10ea:	29 d6       	ORL       R5, R1, R0
    10ec:	ad d6       	ORL       R5, R5, R2
    10ee:	17 04       	SJMP      $+23                  ;->0x111c
    10f0:	91 d6       	ORL       R2, R1, R2
    10f2:	30 38       	CMP       R3, #0			;->0x00
    10f4:	07 f1       	JNZ       $+7                   ;->0x1102
    10f6:	51 10       	MOV       R5, #1			;->0x0001
    10f8:	83 58       	MOV       R4, R3
    10fa:	20 38       	CMP       R2, #0			;->0x00
    10fc:	10 f1       	JNZ       $+16                  ;->0x111c
    10fe:	a3 58       	MOV       R5, R3
    1100:	0e 04       	SJMP      $+14                  ;->0x111c
    1102:	50 10       	MOV       R5, #0			;->0x0000
    1104:	4f 1f       	MOV       R4, #255			;->0x00FF
    1106:	25 70       	CMP       R2, R5
    1108:	0a f0       	JZ        $+10                  ;->0x111c
    110a:	33 10       	MOV       R3, #3			;->0x0003
    110c:	e9 da       	LSL       R5, R1, R3
    110e:	a9 49       	SET       R5, #25			;->0x19
    1110:	06 04       	SJMP      $+6                   ;->0x111c
    1112:	50 10       	MOV       R5, #0			;->0x0000
    1114:	4f 1f       	MOV       R4, #255			;->0x00FF
    1116:	03 04       	SJMP      $+3                   ;->0x111c
    1118:	51 10       	MOV       R5, #1			;->0x0001
    111a:	40 10       	MOV       R4, #0			;->0x0000
    111c:	37 10       	MOV       R3, #7			;->0x0007
    111e:	dd d4       	ANL       R3, R5, R3
    1120:	06 f0       	JZ        $+6                   ;->0x112c
    1122:	3f 10       	MOV       R3, #15			;->0x000F
    1124:	dd d4       	ANL       R3, R5, R3
    1126:	34 38       	CMP       R3, #4			;->0x04
    1128:	02 f0       	JZ        $+2                   ;->0x112c
    112a:	2d c1       	ADD       R5, R5, #4
    112c:	31 10       	MOV       R3, #1			;->0x0001
    112e:	9a 7b       	LSL       R3, #26			;->0x1A
    1130:	dd d4       	ANL       R3, R5, R3
    1132:	08 f0       	JZ        $+8                   ;->0x1142
    1134:	64 c0       	ADD       R4, R4, #1
    1136:	3f 1f       	MOV       R3, #255			;->0x00FF
    1138:	43 70       	CMP       R4, R3
    113a:	03 f0       	JZ        $+3                   ;->0x1140
    113c:	aa 4b       	CLR       R5, #26			;->0x1A
    113e:	02 04       	SJMP      $+2                   ;->0x1142
    1140:	50 10       	MOV       R5, #0			;->0x0000
    1142:	2b 7c       	LSR       R5, #3			;->0x03
    1144:	3f 1f       	MOV       R3, #255			;->0x00FF
    1146:	43 70       	CMP       R4, R3
    1148:	04 f1       	JNZ       $+4                   ;->0x1150
    114a:	50 38       	CMP       R5, #0			;->0x00
    114c:	02 f0       	JZ        $+2                   ;->0x1150
    114e:	2e 49       	SET       R5, #22			;->0x16
    1150:	44 d1       	ZXT.B     R4, R4
    1152:	27 7b       	LSL       R4, #23			;->0x17
    1154:	0a 40       	LD        R0, [PC + #10]        ;->0x117c  :=0x7fffff
    1156:	2d d4       	ANL       R5, R5, R0
    1158:	b7 7b       	LSL       R6, #31			;->0x1F
    115a:	05 d7       	ORL       R0, R5, R4
    115c:	80 d7       	ORL       R0, R0, R6
    115e:	e8 28       	ADD       SP, #8			;->0x08
    1160:	03 5e       	POP       {R6-R7}
    1162:	1d 5c       	JMP       LR
    1164:	ff ff 0f 00 	.long     0x000fffff ->001048575 
    1168:	ff 07 00 00 	.long     0x000007ff ->000002047  [!!!@2@:SJMP      $-1                   ;->0x1166	@@: NOP      
    116c:	80 03 00 00 	.long     0x00000380 ->000000896  [!!!@4@:JMP       $-8388608             ;->0xff00116c
    1170:	9e 03 00 00 	.long     0x0000039e ->000000926  [!!!@4@:JMP       $-6422528             ;->0xff3c1170
    1174:	7e 03 00 00 	.long     0x0000037e ->000000894  [!!!@4@:JMP       $+8257536             ;->0xfc1174
    1178:	5e 03 00 00 	.long     0x0000035e ->000000862  [!!!@4@:JMP       $+6160384             ;->0xbc1178
    117c:	ff ff 7f 00 	.long     0x007fffff ->008388607 

00001180 <fputchar>:
##@@@F_:fputchar():
    1180:	c8 a0       	ST.W      [R1 + #3], R0
    1182:	41 10       	MOV       R4, #1			;->0x0001
    1184:	a5 7a       	LSL       R4, #13			;->0x0D
    1186:	a9 98       	LD.W      R5, [R1 + #2]
    1188:	2d d5       	ANL       R5, R5, R4
    118a:	fe f1       	JNZ       $-2                   ;->0x1186
    118c:	41 10       	MOV       R4, #1			;->0x0001
    118e:	a5 7a       	LSL       R4, #13			;->0x0D
    1190:	a9 98       	LD.W      R5, [R1 + #2]
    1192:	2d d5       	ANL       R5, R5, R4
    1194:	fe f0       	JZ        $-2                   ;->0x1190
    1196:	04 10       	MOV       R0, #4			;->0x0004
    1198:	01 30       	SUB       R0, #1			;->0x01
    119a:	ff f1       	JNZ       $-1                   ;->0x1198
    119c:	00 10       	MOV       R0, #0			;->0x0000
    119e:	1d 5c       	JMP       LR

000011a0 <COM_GPIO_PORT>:
##@@@F_:.rdata$COM_GPIO_PORT$scode_local_2():
    11a0:	00 00 00 50 00 00 00 50 00 00 00 50 80 00 00 50     ...P...P...P...P

000011b0 <COM_TX_PIN>:
##@@@F_:.rdata$COM_TX_PIN$scode_local_3():
    11b0:	08 00 40 00 02 00 00 08                             ..@.....

000011b8 <COM_TX_PIN_NUM>:
##@@@F_:.rdata$COM_TX_PIN_NUM$scode_local_4():
    11b8:	03 00 06 00 01 00 0b 00                             ........

000011c0 <COM_TX_PIN_RMP>:
##@@@F_:.rdata$COM_TX_PIN_RMP$scode_local_5():
    11c0:	06 06 05 05                                         ....

000011c4 <COM_RX_PIN>:
##@@@F_:.rdata$COM_RX_PIN$scode_local_6():
    11c4:	04 00 20 00 01 00 00 04                             .. .....

000011cc <COM_RX_PIN_NUM>:
##@@@F_:.rdata$COM_RX_PIN_NUM$scode_local_7():
    11cc:	02 00 05 00 00 00 0a 00                             ........

000011d4 <COM_RX_PIN_RMP>:
##@@@F_:.rdata$COM_RX_PIN_RMP$scode_local_8():
    11d4:	06 06 05 0b                                         ....

000011d8 <COM_BAUD>:
##@@@F_:.rdata$COM_BAUD$scode_local_9():
    11d8:	00 c2 01 00 00 c2 01 00 00 c2 01 00 00 c2 01 00     ................

000011e8 <COM_USART>:
##@@@F_:.rdata$COM_USART$scode_local_10():
    11e8:	00 0b 00 40 80 1e 00 40 80 09 00 40 00 0a 00 40     ...@...@...@...@

000011f8 <ctype_tab>:
    11f8:	00 80 80 80 80 80 80 80 80 80 40 40 40 40 40 80     ..........@@@@@.
    1208:	80 80 80 80 80 80 80 80 80 80 80 80 80 80 80 80     ................
    1218:	80 04 08 08 08 08 08 08 08 08 08 08 08 08 08 08     ................
    1228:	08 21 21 21 21 21 21 21 21 21 21 08 08 08 08 08     .!!!!!!!!!!.....
    1238:	08 08 03 03 03 03 03 03 02 02 02 02 02 02 02 02     ................
    1248:	02 02 02 02 02 02 02 02 02 02 02 02 08 08 08 08     ................
    1258:	08 08 11 11 11 11 11 11 10 10 10 10 10 10 10 10     ................
    1268:	10 10 10 10 10 10 10 10 10 10 10 10 08 08 08 08     ................
    1278:	80 00 00 00 00 00 00 00 00 00 00 00 00 00 00 00     ................
	...
##@@@F_:.rodata.str1.4$scode_local_1():
    12fc:	42 6f 6f 74 6c 6f 61 64 65 72 20 49 6e 69 74 69     Bootloader Initi
    130c:	6e 67 0d 0a 00 00 00 00 69 74 20 69 73 20 62 6f     ng......it is bo
    131c:	6f 74 6c 6f 61 64 65 72 0d 0a 00 00                 otloader....

Disassembly of section .data:

10000000 <_Ctype>:
##@@@F_:__lpdata_end__():
10000000:	f9 11 00 00                                         ....

10000004 <e10>:
10000004:	00 00 00 00                                         ....

10000008 <e2>:
10000008:	00 00 00 00                                         ....

1000000c <lf>:
1000000c:	00 00 00 00                                         ....

10000010 <S>:
10000010:	00 00 00 00                                         ....

10000014 <__Heap_Start__>:
	...
