	.file	"system_init.c"
	.text	
.Ltext0:
	.cfi_sections	.debug_frame
	.section .text$SystemInit
	.type	.text$SystemInit$scode_local_1, @function
	.text$SystemInit$scode_local_1:
	.align	1
	.export	SystemInit
	.type	SystemInit, @function
SystemInit:
.LFB2:
.LM1:
	.cfi_startproc
	PUSH	{r6, lr}
	.cfi_def_cfa_offset 8
	SUB	sp,#4
	.cfi_def_cfa_offset 12
.LBB4:
.LBB5:
.LM2:
	MOV	r0,#1
	LJMP	OSC_INTLF_Software_Enable
.LVL0:
.LM3:
	MOV	r0,#1
	LJMP	OSC_INTHF_Software_Enable
.LVL1:
.LM4:
	MOV	r4,#194
	LD	r5,#1075839232
	ST.w	[r5+#5],r4
.LM5:
	MOV	r0,#0
	LJMP	OSC_SCK_Division_Config
.LVL2:
.LM6:
	MOV	r0,#0
	LJMP	OSC_SCK_Source_Config
.LVL3:
.LM7:
	MOV	r5,#112
	ST.w	[sp],r5
.LVL4:
.L2:
.LM8:
	LD.w	r5,[sp]
	SUB	r5,r5,#1
	ST.w	[sp],r5
	CMP	r5,#0
	JNZ	.L2
.L5:
.LM9:
	LJMP	OSC_Get_INTHF_INT_Flag
.LVL5:
	MOV	r6,r0
	CMP	r0,#1
	JNZ	.L5
.LM10:
	MOV	r0,#0
	LJMP	OSC_PLL_Input_Source_Config
.LVL6:
.LM11:
	MOV	r0,#36
	MOV	r1,#2
	MOV	r2,#4
	LJMP	OSC_PLL_Multiple_Value_Select
.LVL7:
.LM12:
	MOV	r0,#7
	LJMP	OSC_PLL_Start_Delay_Config
.LVL8:
.LM13:
	MOV	r0,r6
	LJMP	OSC_PLL_Software_Enable
.LVL9:
.LM14:
	LJMP	OSC_PLL_RST
.LVL10:
.L4:
.LM15:
	LJMP	OSC_Get_PLL_INT_Flag
.LVL11:
	MOV	r6,r0
	CMP	r0,#1
	JNZ	.L4
.LM16:
	MOV	r4,#195
	LD	r5,#1075839232
	ST.w	[r5+#5],r4
.LM17:
	MOV	r0,#0
	LJMP	OSC_SCK_Division_Config
.LVL12:
.LM18:
	MOV	r0,#4
	LJMP	OSC_SCK_Source_Config
.LVL13:
.LM19:
	MOV	r0,#0
	LJMP	OSC_HFCK_Division_Config
.LVL14:
.LM20:
	MOV	r0,#0
	LJMP	OSC_HFCK_Source_Config
.LVL15:
.LM21:
	MOV	r0,r6
	LJMP	OSC_HFCK_Enable
.LVL16:
.LM22:
	MOV	r0,#0
	LJMP	OSC_LFCK_Division_Config
.LVL17:
.LM23:
	MOV	r0,#0
	LJMP	OSC_LFCK_Source_Config
.LVL18:
.LM24:
	MOV	r0,r6
	LJMP	OSC_LFCK_Enable
.LVL19:
.LBE5:
.LBE4:
.LM25:
	ADD	sp,#4
	.cfi_def_cfa_offset 8
	POP	r6
	.cfi_def_cfa_offset 4
	POP	lr
	.cfi_def_cfa_offset 0
	JMP	lr
	.cfi_endproc
.LFE2:
	.size	SystemInit, .-SystemInit
	.section .text$systick_delay_init
	.type	.text$systick_delay_init$scode_local_2, @function
	.text$systick_delay_init$scode_local_2:
	.align	1
	.export	systick_delay_init
	.type	systick_delay_init, @function
systick_delay_init:
.LFB3:
.LM26:
	.cfi_startproc
	PUSH	lr
	.cfi_def_cfa_offset 4
.LM27:
	MOV	r0,#0
	LJMP	SYSTICK_Cmd
.LVL20:
.LM28:
	MOV	r0,#0
	LJMP	SYSTICK_Clock_Config
.LVL21:
.LM29:
	LD	r5,#1075839148
// inline asm begin
	// 259 "../system_init.c" 1
	CLR [r5], #31
	// 0 "" 2
.LM30:
// inline asm end
	LD	r5,#SystemCoreClock
	LD.w	r4,[r5]
	LD	r5,#2000000
	DIVU	r5,r4,r5
	ZXT.b	r5,r5
	LD	r4,#fac_us
	ST.b	[r4],r5
.LM31:
	LD	r4,#1000
	MULS	r5,r5,r4 ;
	NOP
	LD	r4,#fac_ms
	ST.h	[r4],r5
.LM32:
	POP	lr
	.cfi_def_cfa_offset 0
	JMP	lr
	.cfi_endproc
.LFE3:
	.size	systick_delay_init, .-systick_delay_init
	.section .text$systick_delay_us
	.type	.text$systick_delay_us$scode_local_3, @function
	.text$systick_delay_us$scode_local_3:
	.align	1
	.export	systick_delay_us
	.type	systick_delay_us, @function
systick_delay_us:
.LFB4:
.LM33:
	.cfi_startproc
.LVL22:
.LM34:
	LD	r5,#fac_us
	LD.b	r5,[r5]
	MULS	r0,r0,r5 ;
	NOP
.LVL23:
	LD	r2,#1075839136
	ST.w	[r2+#1],r0
.LM35:
	MOV	r5,#0
	ST.w	[r2+#2],r5
.LM36:
	LD.w	r5,[r2]
	SET	r5,#0
	ST.w	[r2],r5
.LM37:
	LD	r3,#65537
.L12:
.LM38:
	LD	r4,#1075839136
	LD.w	r5,[r2]
.LVL24:
.LM39:
	ANL	r5,r5,r3
.LVL25:
	CMP	r5,#1
	JZ	.L12
.LM40:
	LD.w	r5,[r4]
	CLR	r5,#0
	ST.w	[r4],r5
.LM41:
	MOV	r5,#0
	ST.w	[r4+#2],r5
.LM42:
	JMP	lr
	.cfi_endproc
.LFE4:
	.size	systick_delay_us, .-systick_delay_us
	.section .text$systick_delay_ms
	.type	.text$systick_delay_ms$scode_local_4, @function
	.text$systick_delay_ms$scode_local_4:
	.align	1
	.export	systick_delay_ms
	.type	systick_delay_ms, @function
systick_delay_ms:
.LFB5:
.LM43:
	.cfi_startproc
.LVL26:
.LM44:
	LD	r5,#fac_ms
	LD.h	r5,[r5]
	MULS	r0,r0,r5 ;
	NOP
.LVL27:
	LD	r2,#1075839136
	ST.w	[r2+#1],r0
.LM45:
	MOV	r5,#0
	ST.w	[r2+#2],r5
.LM46:
	LD.w	r5,[r2]
	SET	r5,#0
	ST.w	[r2],r5
.LM47:
	LD	r3,#65537
.L18:
.LM48:
	LD	r4,#1075839136
	LD.w	r5,[r2]
.LVL28:
.LM49:
	ANL	r5,r5,r3
.LVL29:
	CMP	r5,#1
	JZ	.L18
.LM50:
	LD.w	r5,[r4]
	CLR	r5,#0
	ST.w	[r4],r5
.LM51:
	MOV	r5,#0
	ST.w	[r4+#2],r5
.LM52:
	JMP	lr
	.cfi_endproc
.LFE5:
	.size	systick_delay_ms, .-systick_delay_ms
	.section .text$SystemCoreClockUpdate
	.type	.text$SystemCoreClockUpdate$scode_local_5, @function
	.text$SystemCoreClockUpdate$scode_local_5:
	.align	1
	.export	SystemCoreClockUpdate
	.type	SystemCoreClockUpdate, @function
SystemCoreClockUpdate:
.LFB6:
.LM53:
	.cfi_startproc
.LVL30:
.LM54:
	MOV	r5,#1
	LSL	r5,#30
	LD.w	r5,[r5]
.LVL31:
	LSR	r5,#1
.LVL32:
	MOV	r4,#7
	ANL	r5,r5,r4
.LVL33:
.LM55:
	CMP	r5,#6
	JLS	.L33
.LVL34:
.L24:
.LM56:
	LD	r4,#16000000
	LD	r5,#SystemCoreClock
	ST.w	[r5],r4
.LM57:
	JMP	lr
.LVL35:
.L33:
.LM58:
	LSL	r5,#2
.LVL36:
	LD	r4,#.L31
	LD.w	r5,[r4+r5]
	JMP	r5
	.align	2
	.align 2
.L31:
	.long	.L24
	.long	.L26
	.long	.L24
	.long	.L28
	.long	.L29
	.long	.L24
	.long	.L30
.L28:
.LM59:
	MOV	r4,#1
	LSL	r4,#15
	LD	r5,#SystemCoreClock
	ST.w	[r5],r4
.LM60:
	JMP	lr
.L30:
.LM61:
	LD	r4,#4000000
	LD	r5,#SystemCoreClock
	ST.w	[r5],r4
.LM62:
	JMP	lr
.L26:
.LM63:
	LD	r4,#32000
	LD	r5,#SystemCoreClock
	ST.w	[r5],r4
.LM64:
	JMP	lr
.L29:
.LM65:
	MOV	r4,#1
	LSL	r4,#30
	LD.w	r5,[r4]
.LM66:
	LD	r5,#1073751424
	LD.w	r0,[r5]
.LVL37:
.LM67:
	LD.w	r3,[r5]
.LVL38:
.LM68:
	LD.w	r2,[r5]
.LVL39:
.LM69:
	LD.w	r1,[r4]
.LVL40:
.LM70:
	MOV	r5,#16
	LSL	r4,r0,r5
	LSR	r4,#18
.LM71:
	LD	r0,#16000000
.LVL41:
	MULS	r4,r4,r0 ;
	NOP
.LM72:
	LSR	r2,#20
.LVL42:
	MOV	r5,#3
	ANL	r2,r2,r5
	MOV	r5,#1
	LSL	r2,r5,r2
.LVL43:
.LM73:
	LSR	r1,#16
.LVL44:
	MOV	r0,#7
	ANL	r1,r1,r0
	LSL	r5,r5,r1
.LVL45:
.LM74:
	MULS	r5,r2,r5 ;
	NOP
.LVL46:
.LM75:
	LSR	r3,#16
.LVL47:
	MOV	r2,#15
.LVL48:
	ANL	r3,r3,r2
.LVL49:
.LM76:
	MULS	r5,r5,r3 ;
	NOP
	DIVU	r5,r4,r5
	LD	r4,#SystemCoreClock
	ST.w	[r4],r5
.LM77:
	JMP	lr
	.cfi_endproc
.LFE6:
	.size	SystemCoreClockUpdate, .-SystemCoreClockUpdate
	.export	SystemCoreClock
	.section .data$init$SystemCoreClock
	.type	.data$init$SystemCoreClock$scode_local_6, @function
	.data$init$SystemCoreClock$scode_local_6:
	.align	2
	.type	SystemCoreClock, @object
	.size	SystemCoreClock, 4
SystemCoreClock:
	.long	72000000
	.section .bss$static$fac_us
	.type	.bss$static$fac_us$scode_local_7, @function
	.bss$static$fac_us$scode_local_7:
	.type	fac_us, @object
	.size	fac_us, 1
fac_us:
	.fill 1, 1
	.section .bss$static$fac_ms
	.type	.bss$static$fac_ms$scode_local_8, @function
	.bss$static$fac_ms$scode_local_8:
	.align	1
	.type	fac_ms, @object
	.size	fac_ms, 2
fac_ms:
	.fill 2, 1
	.text	
.Letext0: