
TEST_Prj.elf:     file format elf32-kungfu32-little


Disassembly of section .text:

00000000 <_start>:
##@@@F_:__vector_entry__:
       0:	00 80 01 10 	.long     0x10018000  [!!!@2@:LD.B      R0, [R0]	@@: MOV       R0, #1
       4:	70 0b 00 00 	.long     0x00000b70  [!!!@2@:LD.W      R3, [SP + #112]	@@: NOP      
       8:	e8 03 00 00 	.long     0x000003e8  [!!!@4@:JMP       $-1572864             ;->0xffd00008
       c:	ea 03 00 00 	.long     0x000003ea  [!!!@4@:JMP       $-1441792             ;->0xffd4000c
      10:	00 00 00 00 	.long     0x00000000  [!!!@2@:NOP      	@@: NOP      
      14:	ec 03 00 00 	.long     0x000003ec  [!!!@4@:JMP       $-1310720             ;->0xffd80014
      18:	00 00 00 00 	.long     0x00000000  [!!!@2@:NOP      	@@: NOP      
      1c:	d2 68 fe ef 	.long     0xeffe68d2  [!!!@2@:NOT       LR, R2	@@: ST.W      [R7 + R7], R6
	...
      2c:	ee 03 00 00 	.long     0x000003ee  [!!!@4@:JMP       $-1179648             ;->0xffdc002c
	...
      38:	f0 03 00 00 	.long     0x000003f0  [!!!@4@:JMP       $-1048576             ;->0xffe00038
      3c:	f2 03 00 00 	.long     0x000003f2  [!!!@4@:JMP       $-917504              ;->0xffe4003c
	...
      b0:	f4 03 00 00 	.long     0x000003f4  [!!!@4@:JMP       $-786432              ;->0xffe800b0
      b4:	f6 03 00 00 	.long     0x000003f6  [!!!@4@:JMP       $-655360              ;->0xffec00b4
	...
     100:	f8 03 00 00 	.long     0x000003f8  [!!!@4@:JMP       $-524288              ;->0xfff00100
     104:	fa 03 00 00 	.long     0x000003fa  [!!!@4@:JMP       $-393216              ;->0xfff40104
     108:	fc 03 00 00 	.long     0x000003fc  [!!!@4@:JMP       $-262144              ;->0xfff80108
	...
     134:	fe 03 00 00 	.long     0x000003fe  [!!!@4@:JMP       $-131072              ;->0xfffc0134
	...

00000200 <FLASH_WriteByte>:
##@@@F_:FLASH_WriteByte():
##@@@P_:bsp_flash.c:332
##@@@L0327_:	{   
##@@@L0328_:		FLASH_WriteByte(address,*p_FlashBuffer);//   
##@@@L0329_:		p_FlashBuffer++;   
##@@@L0330_:		address+=8;   
##@@@L0331_:	}   
##@@@L0332_:}   
     200:	2d 5d       	PUSH      LR
     202:	e8 30       	SUB       SP, #8			;->0x08
     204:	11 d1       	ZXT.B     R1, R1
     206:	e1 85       	ST.W      [SP], R1
     208:	40 10       	MOV       R4, #0			;->0x0000
     20a:	01 24       	ST.W      [SP + #1], R4
     20c:	08 45       	LD        R5, [PC + #8]         ;->0x22c  :=0x100002a0
     20e:	35 11       	MOV       R3, #21			;->0x0015
     210:	53 85       	ST.W      [R5], R3
     212:	6c a0       	ST.W      [R5 + #1], R4
     214:	a8 a0       	ST.W      [R5 + #2], R0
     216:	41 10       	MOV       R4, #1			;->0x0001
     218:	ec a0       	ST.W      [R5 + #3], R4
     21a:	8e 58       	MOV       R4, SP
     21c:	2c a1       	ST.W      [R5 + #4], R4
     21e:	05 58       	MOV       R0, R5
     220:	80 00 f0 00 	LJMP      $+240     ;->0x400  400 <__FLASH_Program_Configuration_RAM_veneer>
     224:	e8 28       	ADD       SP, #8			;->0x08
     226:	0d 5d       	POP       LR
     228:	1d 5c       	JMP       LR
     22a:	00 00       	NOP      NOP      
     22c:	a0 02 00 10 	.long     0x100002a0 ->268436128  [!!!@2@:SVC       SVC, #160	@@: MOV       R0, #0

00000230 <FLASH_ReadByte>:
##@@@F_:FLASH_ReadByte():
##@@@P_:bsp_flash.c:343
##@@@L0338_:  *   
##@@@L0339_:  * Ķ┐öÕø×  read_buf:Ķ»╗Õć║ÕŹĢÕŁŚĶŖéµĢ░µŹ«   
##@@@L0340_:  *   
##@@@L0341_:  */   
##@@@L0342_:uint32_t FLASH_ReadByte(uint32_t address,uint8_t *p_FlashBuffer) //Ķ»╗õ╗ŻńĀüÕī║   
##@@@L0343_:{   
     230:	81 5f       	PUSH      {R6,LR}
     232:	c1 58       	MOV       R6, R1
##@@@P_:bsp_flash.c:345
##@@@L0344_:	uint32_t read_buf;   
##@@@L0345_:	read_buf=Read_Flash_or_CFR_RAM(address,FLASH_PROGRAM_CODE);   
     234:	10 10       	MOV       R1, #0			;->0x0000
     236:	80 00 eb 00 	LJMP      $+235     ;->0x40c  40c <__Read_Flash_or_CFR_RAM_veneer>
##@@@P_:bsp_flash.c:346
##@@@L0346_:	*p_FlashBuffer=read_buf;   
     23a:	60 83       	ST.B      [R6], R0
##@@@P_:bsp_flash.c:349
##@@@L0347_:
##@@@L0348_:	return read_buf;   
##@@@L0349_:}   
     23c:	06 5d       	POP       R6
     23e:	0d 5d       	POP       LR
     240:	1d 5c       	JMP       LR
	...

00000244 <kf_eval_usart_init>:
##@@@F_:kf_eval_usart_init():
##@@@P_:KF32_EVAL.c:115
##@@@L0110_:  * Ķ┐öÕø×  µŚĀŃĆé   
##@@@L0111_:  */   
##@@@L0112_:void kf_eval_led_on(Led_TypeDef Led)   
##@@@L0113_:{   
##@@@L0114_:    GPIO_Set_Output_Data_Bits(GPIO_PORT[Led],GPIO_PIN[Led],Bit_SET);					//Ķ«ŠńĮ«õĖ║ķ½śńöĄÕ╣│   
##@@@L0115_:}   
     244:	9f 5f       	PUSH      {R6-R10,LR}
     246:	e4 33       	SUB       SP, #52			;->0x34
     248:	c0 58       	MOV       R6, R0
     24a:	03 38       	CMP       R0, #3			;->0x03
     24c:	05 f9       	JLS       $+5                   ;->0x256
     24e:	e4 2b       	ADD       SP, #52			;->0x34
     250:	1f 5e       	POP       {R6-R10}
     252:	0d 5d       	POP       LR
     254:	1d 5c       	JMP       LR
     256:	60 58       	MOV       R3, R0
     258:	1a 7a       	LSL       R3, #2			;->0x02
     25a:	23 59       	MOV       R9, R3
     25c:	31 45       	LD        R5, [PC + #49]        ;->0x320  :=0x1344
     25e:	fd e8       	LD.W      R7, [R5 + R3]
     260:	20 c2       	ADD       R4, R0, R0
     262:	04 59       	MOV       R8, R4
     264:	30 45       	LD        R5, [PC + #48]        ;->0x324  :=0x1354
     266:	2d e7       	LD.H      R5, [R5 + R4]
     268:	a5 d0       	ZXT.H     R10, R5
     26a:	07 58       	MOV       R0, R7
     26c:	2a 58       	MOV       R1, R10
     26e:	22 10       	MOV       R2, #2			;->0x0002
     270:	80 00 13 02 	LJMP      $+531     ;->0x696  696 <GPIO_Write_Mode_Bits>
     274:	07 58       	MOV       R0, R7
     276:	2d 45       	LD        R5, [PC + #45]        ;->0x328  :=0x135c
     278:	68 58       	MOV       R3, R8
     27a:	ed e6       	LD.H      R5, [R5 + R3]
     27c:	15 d0       	ZXT.H     R1, R5
     27e:	2c 45       	LD        R5, [PC + #44]        ;->0x32c  :=0x1364
     280:	95 e5       	LD.B      R2, [R5 + R6]
     282:	80 00 30 02 	LJMP      $+560     ;->0x6e2  6e2 <GPIO_Pin_RMP_Config>
     286:	07 58       	MOV       R0, R7
     288:	2a 58       	MOV       R1, R10
     28a:	21 10       	MOV       R2, #1			;->0x0001
     28c:	80 00 f6 01 	LJMP      $+502     ;->0x678  678 <GPIO_Pin_Lock_Config>
     290:	28 45       	LD        R5, [PC + #40]        ;->0x330  :=0x1368
     292:	88 58       	MOV       R4, R8
     294:	2d e7       	LD.H      R5, [R5 + R4]
     296:	a5 d0       	ZXT.H     R10, R5
     298:	07 58       	MOV       R0, R7
     29a:	2a 58       	MOV       R1, R10
     29c:	22 10       	MOV       R2, #2			;->0x0002
     29e:	80 00 fc 01 	LJMP      $+508     ;->0x696  696 <GPIO_Write_Mode_Bits>
     2a2:	07 58       	MOV       R0, R7
     2a4:	24 45       	LD        R5, [PC + #36]        ;->0x334  :=0x1370
     2a6:	68 58       	MOV       R3, R8
     2a8:	ed e6       	LD.H      R5, [R5 + R3]
     2aa:	15 d0       	ZXT.H     R1, R5
     2ac:	23 45       	LD        R5, [PC + #35]        ;->0x338  :=0x1378
     2ae:	95 e5       	LD.B      R2, [R5 + R6]
     2b0:	80 00 19 02 	LJMP      $+537     ;->0x6e2  6e2 <GPIO_Pin_RMP_Config>
     2b4:	07 58       	MOV       R0, R7
     2b6:	2a 58       	MOV       R1, R10
     2b8:	21 10       	MOV       R2, #1			;->0x0001
     2ba:	80 00 df 01 	LJMP      $+479     ;->0x678  678 <GPIO_Pin_Lock_Config>
     2be:	0e 58       	MOV       R0, SP
     2c0:	80 00 26 04 	LJMP      $+1062    ;->0xb0c  b0c <USART_Struct_Init>
     2c4:	50 10       	MOV       R5, #0			;->0x0000
     2c6:	e5 85       	ST.W      [SP], R5
     2c8:	1d 44       	LD        R4, [PC + #29]        ;->0x33c  :=0x18000
     2ca:	02 24       	ST.W      [SP + #2], R4
     2cc:	03 25       	ST.W      [SP + #3], R5
     2ce:	04 25       	ST.W      [SP + #4], R5
     2d0:	42 10       	MOV       R4, #2			;->0x0002
     2d2:	96 e2       	ST.H      [SP + #22], R4
     2d4:	1b 44       	LD        R4, [PC + #27]        ;->0x340  :=0x137c
     2d6:	69 58       	MOV       R3, R9
     2d8:	e4 e8       	LD.W      R4, [R4 + R3]
     2da:	1b 43       	LD        R3, [PC + #27]        ;->0x344  :=0x1c200
     2dc:	43 70       	CMP       R4, R3
     2de:	3e f0       	JZ        $+62                  ;->0x35a
     2e0:	1a 43       	LD        R3, [PC + #26]        ;->0x348  :=0x2580
     2e2:	43 70       	CMP       R4, R3
     2e4:	36 f0       	JZ        $+54                  ;->0x350
     2e6:	1a 45       	LD        R5, [PC + #26]        ;->0x34c  :=0x138c
     2e8:	89 58       	MOV       R4, R9
     2ea:	35 e9       	LD.W      R6, [R5 + R4]
     2ec:	06 58       	MOV       R0, R6
     2ee:	80 00 31 03 	LJMP      $+817     ;->0x950  950 <USART_Reset>
     2f2:	06 58       	MOV       R0, R6
     2f4:	2e 58       	MOV       R1, SP
     2f6:	80 00 dd 03 	LJMP      $+989     ;->0xab0  ab0 <USART_Configuration>
     2fa:	06 58       	MOV       R0, R6
     2fc:	10 10       	MOV       R1, #0			;->0x0000
     2fe:	80 00 27 04 	LJMP      $+1063    ;->0xb4c  b4c <USART_Passageway_Select_Config>
     302:	06 58       	MOV       R0, R6
     304:	80 00 2b 04 	LJMP      $+1067    ;->0xb5a  b5a <USART_Clear_Transmit_BUFR_INT_Flag>
     308:	06 58       	MOV       R0, R6
     30a:	11 10       	MOV       R1, #1			;->0x0001
     30c:	80 00 1a 04 	LJMP      $+1050    ;->0xb40  b40 <USART_RESHD_Enable>
     310:	06 58       	MOV       R0, R6
     312:	11 10       	MOV       R1, #1			;->0x0001
     314:	80 00 10 04 	LJMP      $+1040    ;->0xb34  b34 <USART_Cmd>
     318:	e4 2b       	ADD       SP, #52			;->0x34
     31a:	1f 5e       	POP       {R6-R10}
     31c:	0d 5d       	POP       LR
     31e:	1d 5c       	JMP       LR
     320:	44 13 00 00 	.long     0x00001344 ->000004932  [!!!@2@:MOV       R4, #52	@@: NOP      
     324:	54 13 00 00 	.long     0x00001354 ->000004948  [!!!@2@:MOV       R5, #52	@@: NOP      
     328:	5c 13 00 00 	.long     0x0000135c ->000004956  [!!!@2@:MOV       R5, #60	@@: NOP      
     32c:	64 13 00 00 	.long     0x00001364 ->000004964  [!!!@2@:MOV       R6, #52	@@: NOP      
     330:	68 13 00 00 	.long     0x00001368 ->000004968  [!!!@2@:MOV       R6, #56	@@: NOP      
     334:	70 13 00 00 	.long     0x00001370 ->000004976  [!!!@2@:MOV       R7, #48	@@: NOP      
     338:	78 13 00 00 	.long     0x00001378 ->000004984  [!!!@2@:MOV       R7, #56	@@: NOP      
     33c:	00 80 01 00 	.long     0x00018000 ->000098304  [!!!@2@:LD.B      R0, [R0]	@@: .short    0x0001
     340:	7c 13 00 00 	.long     0x0000137c ->000004988  [!!!@2@:MOV       R7, #60	@@: NOP      
     344:	00 c2 01 00 	.long     0x0001c200 ->000115200  [!!!@2@:ADD       R0, R0, R0	@@: .short    0x0001
     348:	80 25 00 00 	.long     0x00002580 ->000009600  [!!!@2@:ST.W      [SP + #128], R5	@@: NOP      
     34c:	8c 13 00 00 	.long     0x0000138c ->000005004  [!!!@2@:MOV       R8, #60	@@: NOP      
     350:	48 16       	MOV       R4, #104			;->0x0068
     352:	97 e2       	ST.H      [SP + #23], R4
     354:	b8 e2       	ST.H      [SP + #24], R5
     356:	b9 e2       	ST.H      [SP + #25], R5
     358:	c7 07       	SJMP      $-57                  ;->0x2e6
     35a:	58 10       	MOV       R5, #8			;->0x0008
     35c:	b7 e2       	ST.H      [SP + #23], R5
     35e:	51 10       	MOV       R5, #1			;->0x0001
     360:	b8 e2       	ST.H      [SP + #24], R5
     362:	5d 10       	MOV       R5, #13			;->0x000D
     364:	b9 e2       	ST.H      [SP + #25], R5
     366:	c0 07       	SJMP      $-64                  ;->0x2e6

00000368 <kf_eval_led_init>:
##@@@F_:kf_eval_led_init():
     368:	81 5f       	PUSH      {R6,LR}
     36a:	e8 31       	SUB       SP, #24			;->0x18
     36c:	c0 58       	MOV       R6, R0
     36e:	0e 58       	MOV       R0, SP
     370:	80 00 78 01 	LJMP      $+376     ;->0x660  660 <GPIO_Struct_Init>
     374:	ae c3       	ADD       R5, R6, R6
     376:	0a 44       	LD        R4, [PC + #10]        ;->0x39c  :=0x133c
     378:	6c e7       	LD.H      R5, [R4 + R5]
     37a:	e5 85       	ST.W      [SP], R5
     37c:	50 10       	MOV       R5, #0			;->0x0000
     37e:	02 25       	ST.W      [SP + #2], R5
     380:	41 10       	MOV       R4, #1			;->0x0001
     382:	01 24       	ST.W      [SP + #1], R4
     384:	04 25       	ST.W      [SP + #4], R5
     386:	05 25       	ST.W      [SP + #5], R5
     388:	32 7a       	LSL       R6, #2			;->0x02
     38a:	06 45       	LD        R5, [PC + #6]         ;->0x3a0  :=0x10000290
     38c:	85 e9       	LD.W      R0, [R5 + R6]
     38e:	2e 58       	MOV       R1, SP
     390:	80 00 20 01 	LJMP      $+288     ;->0x5d0  5d0 <GPIO_Configuration>
     394:	e8 29       	ADD       SP, #24			;->0x18
     396:	06 5d       	POP       R6
     398:	0d 5d       	POP       LR
     39a:	1d 5c       	JMP       LR
     39c:	3c 13 00 00 	.long     0x0000133c ->000004924  [!!!@2@:MOV       R3, #60	@@: NOP      
     3a0:	90 02 00 10 	.long     0x10000290 ->268436112  [!!!@2@:SVC       SVC, #144	@@: MOV       R0, #0

000003a4 <kf_eval_led_off>:
##@@@F_:kf_eval_led_off():
##@@@P_:KF32_EVAL.c:123
##@@@L0118_:  * µÅÅĶ┐░  ńåäńüŁLEDńü»ÕŖ¤ĶāĮÕćĮµĢ░ŃĆé   
##@@@L0119_:  * ĶŠōÕģź : Led:  LED0 LED1 LED2  *   
##@@@L0120_:  * Ķ┐öÕø×  µŚĀŃĆé   
##@@@L0121_:  */   
##@@@L0122_:void kf_eval_led_off(Led_TypeDef Led)   
##@@@L0123_:{   
     3a4:	2d 5d       	PUSH      LR
##@@@P_:KF32_EVAL.c:124
##@@@L0124_:	GPIO_Set_Output_Data_Bits(GPIO_PORT[Led],GPIO_PIN[Led],Bit_RESET);				//Ķ«ŠńĮ«õĖ║õĮÄńöĄÕ╣│   
     3a6:	52 10       	MOV       R5, #2			;->0x0002
     3a8:	60 db       	LSL       R4, R0, R5
     3aa:	28 c2       	ADD       R5, R0, R0
     3ac:	05 43       	LD        R3, [PC + #5]         ;->0x3c0  :=0x10000290
     3ae:	03 e9       	LD.W      R0, [R3 + R4]
     3b0:	05 44       	LD        R4, [PC + #5]         ;->0x3c4  :=0x133c
     3b2:	4c e7       	LD.H      R1, [R4 + R5]
     3b4:	20 10       	MOV       R2, #0			;->0x0000
     3b6:	80 00 86 01 	LJMP      $+390     ;->0x6c2  6c2 <GPIO_Set_Output_Data_Bits>
##@@@P_:KF32_EVAL.c:125
##@@@L0125_:}   
     3ba:	0d 5d       	POP       LR
     3bc:	1d 5c       	JMP       LR
     3be:	00 00       	NOP      NOP      
     3c0:	90 02 00 10 	.long     0x10000290 ->268436112  [!!!@2@:SVC       SVC, #144	@@: MOV       R0, #0
     3c4:	3c 13 00 00 	.long     0x0000133c ->000004924  [!!!@2@:MOV       R3, #60	@@: NOP      

000003c8 <kf_eval_led_toggle>:
##@@@F_:kf_eval_led_toggle():
##@@@P_:KF32_EVAL.c:128
##@@@L0126_:
##@@@L0127_:void kf_eval_led_toggle(Led_TypeDef Led)   
##@@@L0128_:{   
     3c8:	2d 5d       	PUSH      LR
##@@@P_:KF32_EVAL.c:129
##@@@L0129_:	GPIO_Toggle_Output_Data_Config(GPIO_PORT[Led], GPIO_PIN[Led]);   
     3ca:	52 10       	MOV       R5, #2			;->0x0002
     3cc:	60 db       	LSL       R4, R0, R5
     3ce:	28 c2       	ADD       R5, R0, R0
     3d0:	04 43       	LD        R3, [PC + #4]         ;->0x3e0  :=0x10000290
     3d2:	03 e9       	LD.W      R0, [R3 + R4]
     3d4:	04 44       	LD        R4, [PC + #4]         ;->0x3e4  :=0x133c
     3d6:	4c e7       	LD.H      R1, [R4 + R5]
     3d8:	80 00 80 01 	LJMP      $+384     ;->0x6d8  6d8 <GPIO_Toggle_Output_Data_Config>
##@@@P_:KF32_EVAL.c:130
##@@@L0130_:}   
     3dc:	0d 5d       	POP       LR
     3de:	1d 5c       	JMP       LR
     3e0:	90 02 00 10 	.long     0x10000290 ->268436112  [!!!@2@:SVC       SVC, #144	@@: MOV       R0, #0
     3e4:	3c 13 00 00 	.long     0x0000133c ->000004924  [!!!@2@:MOV       R3, #60	@@: NOP      

000003e8 <_NMI_exception>:
##@@@F_:_NMI_exception():
##@@@P_:kf_it.c:18
##@@@L0013_://                                 NMIõĖŁµ¢ŁÕćĮµĢ░   
##@@@L0014_://*****************************************************************************************	   
##@@@L0015_:void __attribute__((interrupt)) _NMI_exception (void)   
##@@@L0016_:{	   
##@@@L0017_:
##@@@L0018_:}   
     3e8:	1d 5c       	JMP       LR

000003ea <_HardFault_exception>:
##@@@F_:_HardFault_exception():
##@@@P_:kf_it.c:26
##@@@L0021_://                               ńĪ¼õ╗ČķöÖĶ»»õĖŁµ¢ŁÕćĮµĢ░   
##@@@L0022_://*****************************************************************************************	   
##@@@L0023_:void __attribute__((interrupt)) _HardFault_exception (void)   
##@@@L0024_:{   
##@@@L0025_:
##@@@L0026_:}   
     3ea:	1d 5c       	JMP       LR

000003ec <_StackFault_exception>:
##@@@F_:_StackFault_exception():
##@@@P_:kf_it.c:34
##@@@L0029_://                                ÕĀåµĀłķöÖĶ»»õĖŁµ¢ŁÕćĮµĢ░   
##@@@L0030_://*****************************************************************************************	   
##@@@L0031_:void __attribute__((interrupt)) _StackFault_exception (void)   
##@@@L0032_:{   
##@@@L0033_:
##@@@L0034_:}   
     3ec:	1d 5c       	JMP       LR

000003ee <_SVC_exception>:
##@@@F_:_SVC_exception():
##@@@P_:kf_it.c:42
##@@@L0037_://                               SVCõĖŁµ¢ŁÕćĮµĢ░   
##@@@L0038_://*****************************************************************************************	   
##@@@L0039_:void __attribute__((interrupt)) _SVC_exception (void)   
##@@@L0040_:{   
##@@@L0041_:
##@@@L0042_:}   
     3ee:	1d 5c       	JMP       LR

000003f0 <_SoftSV_exception>:
##@@@F_:_SoftSV_exception():
##@@@P_:kf_it.c:50
##@@@L0045_://                              SoftSVõĖŁµ¢ŁÕćĮµĢ░   
##@@@L0046_://*****************************************************************************************	   
##@@@L0047_:void __attribute__((interrupt)) _SoftSV_exception (void)   
##@@@L0048_:{   
##@@@L0049_:
##@@@L0050_:}   
     3f0:	1d 5c       	JMP       LR

000003f2 <_SysTick_exception>:
##@@@F_:_SysTick_exception():
##@@@P_:kf_it.c:58
##@@@L0053_://                              SysTickõĖŁµ¢ŁÕćĮµĢ░   
##@@@L0054_://*****************************************************************************************	   
##@@@L0055_:void __attribute__((interrupt)) _SysTick_exception (void)   
##@@@L0056_:{   
##@@@L0057_:	   
##@@@L0058_:}   
     3f2:	1d 5c       	JMP       LR

000003f4 <_USART0_exception>:
##@@@F_:_USART0_exception():
##@@@P_:kf_it.c:66
##@@@L0061_://                                 USART0õĖŁµ¢ŁÕćĮµĢ░   
##@@@L0062_://*****************************************************************************************	   
##@@@L0063_:void __attribute__((interrupt))_USART0_exception (void)   
##@@@L0064_:{   
##@@@L0065_:
##@@@L0066_:}   
     3f4:	1d 5c       	JMP       LR

000003f6 <_USART1_exception>:
##@@@F_:_USART1_exception():
##@@@P_:kf_it.c:74
##@@@L0069_://                                 USART1õĖŁµ¢ŁÕćĮµĢ░   
##@@@L0070_://*****************************************************************************************	   
##@@@L0071_:void __attribute__((interrupt))_USART1_exception (void)   
##@@@L0072_:{   
##@@@L0073_:
##@@@L0074_:}   
     3f6:	1d 5c       	JMP       LR

000003f8 <_USART2_exception>:
##@@@F_:_USART2_exception():
##@@@P_:kf_it.c:82
##@@@L0077_://                                 USART2õĖŁµ¢ŁÕćĮµĢ░   
##@@@L0078_://*****************************************************************************************   
##@@@L0079_:void __attribute__((interrupt))_USART2_exception (void)   
##@@@L0080_:{   
##@@@L0081_:
##@@@L0082_:}   
     3f8:	1d 5c       	JMP       LR

000003fa <_USART3_exception>:
##@@@F_:_USART3_exception():
##@@@P_:kf_it.c:90
##@@@L0085_://                                 USART3õĖŁµ¢ŁÕćĮµĢ░   
##@@@L0086_://*****************************************************************************************   
##@@@L0087_:void __attribute__((interrupt))_USART3_exception (void)   
##@@@L0088_:{   
##@@@L0089_:
##@@@L0090_:}   
     3fa:	1d 5c       	JMP       LR

000003fc <_USART4_exception>:
##@@@F_:_USART4_exception():
##@@@P_:kf_it.c:98
##@@@L0093_://                                 USART4õĖŁµ¢ŁÕćĮµĢ░   
##@@@L0094_://*****************************************************************************************   
##@@@L0095_:void __attribute__((interrupt))_USART4_exception (void)   
##@@@L0096_:{   
##@@@L0097_:
##@@@L0098_:}   
     3fc:	1d 5c       	JMP       LR

000003fe <_USART5_exception>:
##@@@F_:_USART5_exception():
##@@@P_:kf_it.c:106
##@@@L0101_://                                 USART5õĖŁµ¢ŁÕćĮµĢ░   
##@@@L0102_://*****************************************************************************************   
##@@@L0103_:void __attribute__((interrupt))_USART5_exception (void)   
##@@@L0104_:{   
##@@@L0105_:
##@@@L0106_:}   
     3fe:	1d 5c       	JMP       LR

00000400 <__FLASH_Program_Configuration_RAM_veneer>:
##@@@F_:__FLASH_Program_Configuration_RAM_veneer():
     400:	25 5c bc 00 	MOVL      R5, #188			;->0x00BC
     404:	45 5c 00 10 	MOVH      R5, #4096			;->0x1000
     408:	15 5c       	JMP       R5
     40a:	00 58       	MOV       R0, R0

0000040c <__Read_Flash_or_CFR_RAM_veneer>:
##@@@F_:__Read_Flash_or_CFR_RAM_veneer():
     40c:	25 5c f4 01 	MOVL      R5, #500			;->0x01F4
     410:	45 5c 00 10 	MOVH      R5, #4096			;->0x1000
     414:	15 5c       	JMP       R5
     416:	00 58       	MOV       R0, R0

00000418 <main>:
##@@@F_:main():
##@@@P_:main.c:15
##@@@L0010_:#include "delay.h"   
##@@@L0011_:#include "KF32_EVAL.h"   
##@@@L0012_:#include "bsp_flash.h"   
##@@@L0013_:
##@@@L0014_:void main()   
##@@@L0015_:{   
     418:	81 5f       	PUSH      {R6,LR}
     41a:	e4 30       	SUB       SP, #4			;->0x04
##@@@P_:main.c:22
##@@@L0017_:	uint32_t i=0;   
##@@@L0018_:    uint32_t temp=0;   
##@@@L0019_:    uint32_t temp1=0;   
##@@@L0020_:    uint32_t temp2=0;   
##@@@L0021_:
##@@@L0022_:	SystemInit();   
     41c:	80 00 6c 00 	LJMP      $+108     ;->0x4f4  4f4 <SystemInit>
##@@@P_:main.c:24
##@@@L0023_:
##@@@L0024_:	kf_eval_usart_init(COM3);   
     420:	02 10       	MOV       R0, #2			;->0x0002
     422:	9f 00 11 ff 	LJMP      $-239     ;->0x244  244 <kf_eval_usart_init>
##@@@P_:main.c:26
##@@@L0025_:
##@@@L0026_:	kf_eval_led_init(LED3);   
     426:	00 10       	MOV       R0, #0			;->0x0000
     428:	9f 00 a0 ff 	LJMP      $-96      ;->0x368  368 <kf_eval_led_init>
##@@@P_:main.c:27
##@@@L0027_:	kf_eval_led_off(LED3);   
     42c:	00 10       	MOV       R0, #0			;->0x0000
     42e:	9f 00 bb ff 	LJMP      $-69      ;->0x3a4  3a4 <kf_eval_led_off>
##@@@P_:main.c:28
##@@@L0028_:	kf_eval_led_init(LED4);   
     432:	01 10       	MOV       R0, #1			;->0x0001
     434:	9f 00 9a ff 	LJMP      $-102     ;->0x368  368 <kf_eval_led_init>
##@@@P_:main.c:29
##@@@L0029_:	kf_eval_led_off(LED4);   
     438:	01 10       	MOV       R0, #1			;->0x0001
     43a:	9f 00 b5 ff 	LJMP      $-75      ;->0x3a4  3a4 <kf_eval_led_off>
##@@@P_:main.c:30
##@@@L0030_:	kf_eval_led_init(LED5);   
     43e:	02 10       	MOV       R0, #2			;->0x0002
     440:	9f 00 94 ff 	LJMP      $-108     ;->0x368  368 <kf_eval_led_init>
##@@@P_:main.c:31
##@@@L0031_:	kf_eval_led_off(LED5);   
     444:	02 10       	MOV       R0, #2			;->0x0002
     446:	9f 00 af ff 	LJMP      $-81      ;->0x3a4  3a4 <kf_eval_led_off>
##@@@P_:main.c:37
##@@@L0032_:
##@@@L0033_:
##@@@L0034_:	//Ķ»╗ÕåÖÕŁŚĶŖéByte   
##@@@L0035_:	uint32_t addrtest=0x00032000;   
##@@@L0036_:
##@@@L0037_:    if(INT_CTL0 & 0xfffe)			//Õ”éµ×£ÕÅ»Õ▒ÅĶöĮõĖŁµ¢ŁõĮ┐ĶāĮ’╝īÕģ│ķŚŁõĖŁµ¢ŁõĮ┐ĶāĮ’╝ī   
     44a:	20 45       	LD        R5, [PC + #32]        ;->0x4c8  :=0x40200000
     44c:	05 82       	LD.W      R0, [R5]
     44e:	20 45       	LD        R5, [PC + #32]        ;->0x4cc  :=0xfffe
     450:	40 d5       	ANL       R0, R0, R5
     452:	30 f1       	JNZ       $+48                  ;->0x4b2
##@@@P_:main.c:42
##@@@L0038_:    {   
##@@@L0039_:    	INTstate=1;   
##@@@L0040_:    	INT_All_Enable(FALSE);   	//ń”üµŁóõĖŁµ¢Ł   
##@@@L0041_:    }   
##@@@L0042_:	FLASH_Wipe_Configuration_RAM(FLASH_WIPE_CODE_PAGE,addrtest);//ń©ŗÕ║ÅÕī║ķĪĄµō”ÕłÆÕłå1K ń®║ķŚ┤  page200=200*1024=0x0003 2000;   
     454:	1f 41       	LD        R1, [PC + #31]        ;->0x4d0  :=0x32000
     456:	80 00 43 00 	LJMP      $+67      ;->0x4dc  4dc <__FLASH_Wipe_Configuration_RAM_veneer>
##@@@P_:main.c:50
##@@@L0045_:		INTstate=0;   
##@@@L0046_:		INT_All_Enable(TRUE);    //µēōÕ╝ĆõĖŁµ¢Ł   
##@@@L0047_:	}   
##@@@L0048_:
##@@@L0049_:	uint8_t num8=0;   
##@@@L0050_:	uint8_t read_byte=0;   
     45a:	00 10       	MOV       R0, #0			;->0x0000
     45c:	e0 83       	ST.B      [SP], R0
##@@@P_:main.c:52
##@@@L0051_:
##@@@L0052_:    if(INT_CTL0 & 0xfffe)			//Õ”éµ×£ÕÅ»Õ▒ÅĶöĮõĖŁµ¢ŁõĮ┐ĶāĮ’╝īÕģ│ķŚŁõĖŁµ¢ŁõĮ┐ĶāĮ’╝ī   
     45e:	1b 45       	LD        R5, [PC + #27]        ;->0x4c8  :=0x40200000
     460:	45 82       	LD.W      R4, [R5]
     462:	1b 45       	LD        R5, [PC + #27]        ;->0x4cc  :=0xfffe
     464:	6c d5       	ANL       R5, R4, R5
     466:	50 70       	CMP       R5, R0
     468:	1b f1       	JNZ       $+27                  ;->0x49e
##@@@P_:main.c:57
##@@@L0053_:    {   
##@@@L0054_:    	INTstate=1;   
##@@@L0055_:    	INT_All_Enable(FALSE);   	//ń”üµŁóõĖŁµ¢Ł   
##@@@L0056_:    }   
##@@@L0057_:	FLASH_WriteByte(addrtest,0xAA);   
     46a:	1a 40       	LD        R0, [PC + #26]        ;->0x4d0  :=0x32000
     46c:	1a 1a       	MOV       R1, #170			;->0x00AA
     46e:	9f 00 c9 fe 	LJMP      $-311     ;->0x200  200 <FLASH_WriteByte>
##@@@P_:main.c:66
##@@@L0061_:		INT_All_Enable(TRUE);    //µēōÕ╝ĆõĖŁµ¢Ł   
##@@@L0062_:	}   
##@@@L0063_:
##@@@L0064_:	// delay_ms(10);   
##@@@L0065_:	// addrtest=0x00032000;   
##@@@L0066_:	FLASH_ReadByte(addrtest,&read_byte);   
     472:	18 40       	LD        R0, [PC + #24]        ;->0x4d0  :=0x32000
     474:	2e 58       	MOV       R1, SP
     476:	9f 00 dd fe 	LJMP      $-291     ;->0x230  230 <FLASH_ReadByte>
##@@@P_:main.c:71
##@@@L0067_:
##@@@L0068_:	while(1)   
##@@@L0069_:	{   
##@@@L0070_:		/*Ķ»╗ń©ŗÕ║ÅÕī║Õ£░ÕØĆõĖ║0x32000ńÜäµĢ░µŹ«Õ╣Čµ»öĶŠā*/   
##@@@L0071_:		if(Read_Flash_or_CFR_RAM(0x32000,FLASH_PROGRAM_CODE)==0xAA)   
     47a:	6a 1a       	MOV       R6, #170			;->0x00AA
     47c:	15 40       	LD        R0, [PC + #21]        ;->0x4d0  :=0x32000
     47e:	10 10       	MOV       R1, #0			;->0x0000
     480:	80 00 34 00 	LJMP      $+52      ;->0x4e8  4e8 <__Read_Flash_or_CFR_RAM_veneer>
     484:	06 70       	CMP       R0, R6
     486:	fb f1       	JNZ       $-5                   ;->0x47c
##@@@P_:main.c:73
##@@@L0072_:		{   
##@@@L0073_:			kf_eval_led_toggle(LED3);   
     488:	00 10       	MOV       R0, #0			;->0x0000
     48a:	9f 00 9f ff 	LJMP      $-97      ;->0x3c8  3c8 <kf_eval_led_toggle>
##@@@P_:main.c:74
##@@@L0074_:			printf("read_byte=0x%02X\r\n",read_byte);   
     48e:	12 40       	LD        R0, [PC + #18]        ;->0x4d4  :=0x14a0
     490:	1e 80       	LD.B      R1, [SP]
     492:	80 00 a3 03 	LJMP      $+931     ;->0xbd8  bd8 <printf>
##@@@P_:main.c:75
##@@@L0075_:			delay_ms(500);   
     496:	11 40       	LD        R0, [PC + #17]        ;->0x4d8  :=0x1f4
     498:	80 00 82 00 	LJMP      $+130     ;->0x59c  59c <delay_ms>
     49c:	f0 07       	SJMP      $-16                  ;->0x47c
##@@@P_:main.c:55
##@@@L0050_:	uint8_t read_byte=0;   
##@@@L0051_:
##@@@L0052_:    if(INT_CTL0 & 0xfffe)			//Õ”éµ×£ÕÅ»Õ▒ÅĶöĮõĖŁµ¢ŁõĮ┐ĶāĮ’╝īÕģ│ķŚŁõĖŁµ¢ŁõĮ┐ĶāĮ’╝ī   
##@@@L0053_:    {   
##@@@L0054_:    	INTstate=1;   
##@@@L0055_:    	INT_All_Enable(FALSE);   	//ń”üµŁóõĖŁµ¢Ł   
     49e:	80 00 35 01 	LJMP      $+309     ;->0x708  708 <INT_All_Enable>
##@@@P_:main.c:57
##@@@L0056_:    }   
##@@@L0057_:	FLASH_WriteByte(addrtest,0xAA);   
     4a2:	0c 40       	LD        R0, [PC + #12]        ;->0x4d0  :=0x32000
     4a4:	1a 1a       	MOV       R1, #170			;->0x00AA
     4a6:	9f 00 ad fe 	LJMP      $-339     ;->0x200  200 <FLASH_WriteByte>
##@@@P_:main.c:61
##@@@L0058_:	if(INTstate==1)   
##@@@L0059_:	{   
##@@@L0060_:		INTstate=0;   
##@@@L0061_:		INT_All_Enable(TRUE);    //µēōÕ╝ĆõĖŁµ¢Ł   
     4aa:	01 10       	MOV       R0, #1			;->0x0001
     4ac:	80 00 2e 01 	LJMP      $+302     ;->0x708  708 <INT_All_Enable>
     4b0:	e1 07       	SJMP      $-31                  ;->0x472
##@@@P_:main.c:40
##@@@L0035_:	uint32_t addrtest=0x00032000;   
##@@@L0036_:
##@@@L0037_:    if(INT_CTL0 & 0xfffe)			//Õ”éµ×£ÕÅ»Õ▒ÅĶöĮõĖŁµ¢ŁõĮ┐ĶāĮ’╝īÕģ│ķŚŁõĖŁµ¢ŁõĮ┐ĶāĮ’╝ī   
##@@@L0038_:    {   
##@@@L0039_:    	INTstate=1;   
##@@@L0040_:    	INT_All_Enable(FALSE);   	//ń”üµŁóõĖŁµ¢Ł   
     4b2:	00 10       	MOV       R0, #0			;->0x0000
     4b4:	80 00 2a 01 	LJMP      $+298     ;->0x708  708 <INT_All_Enable>
##@@@P_:main.c:42
##@@@L0041_:    }   
##@@@L0042_:	FLASH_Wipe_Configuration_RAM(FLASH_WIPE_CODE_PAGE,addrtest);//ń©ŗÕ║ÅÕī║ķĪĄµō”ÕłÆÕłå1K ń®║ķŚ┤  page200=200*1024=0x0003 2000;   
     4b8:	00 10       	MOV       R0, #0			;->0x0000
     4ba:	06 41       	LD        R1, [PC + #6]         ;->0x4d0  :=0x32000
     4bc:	80 00 10 00 	LJMP      $+16      ;->0x4dc  4dc <__FLASH_Wipe_Configuration_RAM_veneer>
##@@@P_:main.c:46
##@@@L0043_:	if(INTstate==1)   
##@@@L0044_:	{   
##@@@L0045_:		INTstate=0;   
##@@@L0046_:		INT_All_Enable(TRUE);    //µēōÕ╝ĆõĖŁµ¢Ł   
     4c0:	01 10       	MOV       R0, #1			;->0x0001
     4c2:	80 00 23 01 	LJMP      $+291     ;->0x708  708 <INT_All_Enable>
     4c6:	ca 07       	SJMP      $-54                  ;->0x45a
     4c8:	00 00 20 40 	.long     0x40200000 ->1075838976  [!!!@2@:NOP      	@@: LD        R0, [PC + #32]        ;->0x548  :=0x8001a1
     4cc:	fe ff 00 00 	.long     0x0000fffe ->000065534 
     4d0:	00 20 03 00 	.long     0x00032000 ->000204800 
     4d4:	a0 14 00 00 	.long     0x000014a0 ->000005280  [!!!@2@:MOV       R10, #64	@@: NOP      
     4d8:	f4 01 00 00 	.long     0x000001f4 ->000000500  [!!!@2@:CMN       PC, R4	@@: NOP      

000004dc <__FLASH_Wipe_Configuration_RAM_veneer>:
##@@@F_:__FLASH_Wipe_Configuration_RAM_veneer():
     4dc:	25 5c 00 00 	MOVL      R5, #0			;->0x0000
     4e0:	45 5c 00 10 	MOVH      R5, #4096			;->0x1000
     4e4:	15 5c       	JMP       R5
     4e6:	00 58       	MOV       R0, R0

000004e8 <__Read_Flash_or_CFR_RAM_veneer>:
##@@@F_:__Read_Flash_or_CFR_RAM_veneer():
     4e8:	25 5c f4 01 	MOVL      R5, #500			;->0x01F4
     4ec:	45 5c 00 10 	MOVH      R5, #4096			;->0x1000
     4f0:	15 5c       	JMP       R5
     4f2:	00 58       	MOV       R0, R0

000004f4 <SystemInit>:
##@@@F_:SystemInit():
##@@@P_:system_init.c:244
##@@@L0239_: * 			 Initialize PLL, HFCLK, LFCLK, and the PLL and update the systemFrequency variable.   
##@@@L0240_: *  @param : None   
##@@@L0241_: *  @retval :None   
##@@@L0242_: */   
##@@@L0243_:void SystemInit(void)   
##@@@L0244_:{   
     4f4:	81 5f       	PUSH      {R6,LR}
     4f6:	e4 30       	SUB       SP, #4			;->0x04
##@@@F_:SetSysClock():
##@@@P_:system_init.c:118
##@@@L0113_: * ******************************************************************************   
##@@@L0114_: * 	Enable INTHF & INTLF,and set the INTHF as the SCLK.   
##@@@L0115_: * 	Wait till INTHF is ready and if Time out is reached exit.   
##@@@L0116_: * ******************************************************************************   
##@@@L0117_: */   
##@@@L0118_:	OSC_INTLF_Software_Enable(TRUE);   
     4f8:	01 10       	MOV       R0, #1			;->0x0001
     4fa:	80 00 db 01 	LJMP      $+475     ;->0x8b0  8b0 <OSC_INTLF_Software_Enable>
##@@@P_:system_init.c:119
##@@@L0119_:	OSC_INTHF_Software_Enable(TRUE);   
     4fe:	01 10       	MOV       R0, #1			;->0x0001
     500:	80 00 ce 01 	LJMP      $+462     ;->0x89c  89c <OSC_INTHF_Software_Enable>
##@@@P_:system_init.c:120
##@@@L0120_:	FLASH_CFG = 0xC2;//FLASHĶ»╗ÕÅ¢Õæ©µ£¤8õĖ¬ń│╗ń╗¤Õæ©µ£¤   
     504:	42 1c       	MOV       R4, #194			;->0x00C2
     506:	25 45       	LD        R5, [PC + #37]        ;->0x598  :=0x40200100
     508:	6c a1       	ST.W      [R5 + #5], R4
##@@@P_:system_init.c:122
##@@@L0121_:	/* Set the INTHF as the SCLK DIV<1:1> */   
##@@@L0122_:	OSC_SCK_Division_Config(SCLK_DIVISION_1); //õĖ╗µŚČķÆ¤ÕłåķóæķĆēµŗ®   
     50a:	00 10       	MOV       R0, #0			;->0x0000
     50c:	80 00 20 01 	LJMP      $+288     ;->0x74c  74c <OSC_SCK_Division_Config>
##@@@P_:system_init.c:123
##@@@L0123_:	OSC_SCK_Source_Config(SCLK_SOURCE_INTHF); //ķĆēµŗ®Õåģķā©ķ½śķóæõĮ£õĖ║ń│╗ń╗¤µŚČķÆ¤   
     510:	00 10       	MOV       R0, #0			;->0x0000
     512:	80 00 55 01 	LJMP      $+341     ;->0x7bc  7bc <OSC_SCK_Source_Config>
##@@@P_:system_init.c:124
##@@@L0124_:	StartUpCounter = HSI_STARTUP_TIMEOUT;   
     516:	50 17       	MOV       R5, #112			;->0x0070
     518:	e5 85       	ST.W      [SP], R5
##@@@P_:system_init.c:125
##@@@L0125_:	while (--StartUpCounter);   
     51a:	5e 82       	LD.W      R5, [SP]
     51c:	6d cc       	SUB       R5, R5, #1
     51e:	e5 85       	ST.W      [SP], R5
     520:	50 38       	CMP       R5, #0			;->0x00
     522:	fc f1       	JNZ       $-4                   ;->0x51a
##@@@P_:system_init.c:126
##@@@L0126_:	while (OSC_Get_INTHF_INT_Flag() != SET);   
     524:	80 00 d7 01 	LJMP      $+471     ;->0x8d2  8d2 <OSC_Get_INTHF_INT_Flag>
     528:	c0 58       	MOV       R6, R0
     52a:	01 38       	CMP       R0, #1			;->0x01
     52c:	fc f1       	JNZ       $-4                   ;->0x524
##@@@P_:system_init.c:138
##@@@L0133_: * If an external clock source is used, must be wait till EXTHF is ready and if   
##@@@L0134_: * Time out is reached exit.   
##@@@L0135_: * ******************************************************************************   
##@@@L0136_: */   
##@@@L0137_:#ifdef SYSCLK_FREQ_HSI   
##@@@L0138_:	OSC_PLL_Input_Source_Config(PLL_INPUT_INTHF);   
     52e:	00 10       	MOV       R0, #0			;->0x0000
     530:	80 00 1a 01 	LJMP      $+282     ;->0x764  764 <OSC_PLL_Input_Source_Config>
##@@@P_:system_init.c:189
##@@@L0184_:#ifdef SYSCLK_FREQ_48MHz   
##@@@L0185_:	OSC_PLL_Multiple_Value_Select(48, 2, 8);   
##@@@L0186_:#elif defined SYSCLK_FREQ_64MHz   
##@@@L0187_:	OSC_PLL_Multiple_Value_Select(32,2,4);   
##@@@L0188_:#elif defined SYSCLK_FREQ_72MHz   
##@@@L0189_:	OSC_PLL_Multiple_Value_Select(36, 2, 4);   
     534:	04 12       	MOV       R0, #36			;->0x0024
     536:	12 10       	MOV       R1, #2			;->0x0002
     538:	24 10       	MOV       R2, #4			;->0x0004
     53a:	80 00 4b 01 	LJMP      $+331     ;->0x7d0  7d0 <OSC_PLL_Multiple_Value_Select>
##@@@P_:system_init.c:196
##@@@L0191_:	OSC_PLL_Multiple_Value_Select(12, 1, 2);   
##@@@L0192_:#elif defined SYSCLK_FREQ_120MHz   
##@@@L0193_:	OSC_PLL_Multiple_Value_Select(30, 2, 2);   
##@@@L0194_:#endif   
##@@@L0195_:#ifdef SYSCLK_FREQ_HSI   
##@@@L0196_:	OSC_PLL_Start_Delay_Config(PLL_START_DELAY_8192);   
     53e:	07 10       	MOV       R0, #7			;->0x0007
     540:	80 00 98 01 	LJMP      $+408     ;->0x870  870 <OSC_PLL_Start_Delay_Config>
##@@@P_:system_init.c:206
##@@@L0201_:		OSC_PLL_Start_Delay_Config(PLL_START_DELAY_8192);   
##@@@L0202_:	#else   
##@@@L0203_:		OSC_PLL_Start_Delay_Config(PLL_START_DELAY_16384);   
##@@@L0204_:	#endif   
##@@@L0205_:#endif   
##@@@L0206_:	OSC_PLL_Software_Enable(TRUE);   
     544:	06 58       	MOV       R0, R6
     546:	80 00 a1 01 	LJMP      $+417     ;->0x888  888 <OSC_PLL_Software_Enable>
##@@@P_:system_init.c:207
##@@@L0207_:	OSC_PLL_RST();   
     54a:	80 00 8d 01 	LJMP      $+397     ;->0x864  864 <OSC_PLL_RST>
##@@@P_:system_init.c:208
##@@@L0208_:	while (OSC_Get_PLL_INT_Flag() != SET);   
     54e:	80 00 bb 01 	LJMP      $+443     ;->0x8c4  8c4 <OSC_Get_PLL_INT_Flag>
     552:	c0 58       	MOV       R6, R0
     554:	01 38       	CMP       R0, #1			;->0x01
     556:	fc f1       	JNZ       $-4                   ;->0x54e
##@@@P_:system_init.c:214
##@@@L0209_:#ifdef SYSCLK_FREQ_48MHz   
##@@@L0210_:	FLASH_CFG = 0xC2;   
##@@@L0211_:#elif defined SYSCLK_FREQ_64MHz   
##@@@L0212_:	FLASH_CFG = 0xC3;   
##@@@L0213_:#elif defined SYSCLK_FREQ_72MHz   
##@@@L0214_:	FLASH_CFG = 0xC3;   
     558:	43 1c       	MOV       R4, #195			;->0x00C3
     55a:	10 45       	LD        R5, [PC + #16]        ;->0x598  :=0x40200100
     55c:	6c a1       	ST.W      [R5 + #5], R4
##@@@P_:system_init.c:221
##@@@L0216_:	FLASH_CFG = 0xC3;   
##@@@L0217_:#elif defined SYSCLK_FREQ_120MHz   
##@@@L0218_:	FLASH_CFG = 0xC4;   
##@@@L0219_:#endif   
##@@@L0220_:	/* Configure the System clock source is PLL */   
##@@@L0221_:	OSC_SCK_Division_Config(SCLK_DIVISION_1);   
     55e:	00 10       	MOV       R0, #0			;->0x0000
     560:	80 00 f6 00 	LJMP      $+246     ;->0x74c  74c <OSC_SCK_Division_Config>
##@@@P_:system_init.c:222
##@@@L0222_:	OSC_SCK_Source_Config(SCLK_SOURCE_PLL);   
     564:	04 10       	MOV       R0, #4			;->0x0004
     566:	80 00 2b 01 	LJMP      $+299     ;->0x7bc  7bc <OSC_SCK_Source_Config>
##@@@P_:system_init.c:224
##@@@L0223_:	/* Enable HFCLK and if EXTHF is invalid configure the HFCLK default clock source is HSI DIV<1:1> */   
##@@@L0224_:	OSC_HFCK_Division_Config(HFCK_DIVISION_1);   
     56a:	00 10       	MOV       R0, #0			;->0x0000
     56c:	80 00 e4 00 	LJMP      $+228     ;->0x734  734 <OSC_HFCK_Division_Config>
##@@@P_:system_init.c:226
##@@@L0225_:#ifdef SYSCLK_FREQ_HSI   
##@@@L0226_:	OSC_HFCK_Source_Config(HFCK_SOURCE_INTHF);   
     570:	00 10       	MOV       R0, #0			;->0x0000
     572:	80 00 01 01 	LJMP      $+257     ;->0x774  774 <OSC_HFCK_Source_Config>
##@@@P_:system_init.c:230
##@@@L0227_:#else   
##@@@L0228_:	OSC_HFCK_Source_Config(HFCK_SOURCE_EXTHF);   
##@@@L0229_:#endif   
##@@@L0230_:	OSC_HFCK_Enable(TRUE);   
     576:	06 58       	MOV       R0, R6
     578:	80 00 0a 01 	LJMP      $+266     ;->0x78c  78c <OSC_HFCK_Enable>
##@@@P_:system_init.c:232
##@@@L0231_:	/* Enable LFCLK and if configure the LFCLK default clock source is LSI DIV<1:1> */   
##@@@L0232_:	OSC_LFCK_Division_Config(LFCK_DIVISION_1);   
     57c:	00 10       	MOV       R0, #0			;->0x0000
     57e:	80 00 cf 00 	LJMP      $+207     ;->0x71c  71c <OSC_LFCK_Division_Config>
##@@@P_:system_init.c:233
##@@@L0233_:	OSC_LFCK_Source_Config(LFCK_INPUT_INTLF);   
     582:	00 10       	MOV       R0, #0			;->0x0000
     584:	80 00 0c 01 	LJMP      $+268     ;->0x79c  79c <OSC_LFCK_Source_Config>
##@@@P_:system_init.c:234
##@@@L0234_:	OSC_LFCK_Enable(TRUE);   
     588:	06 58       	MOV       R0, R6
     58a:	80 00 11 01 	LJMP      $+273     ;->0x7ac  7ac <OSC_LFCK_Enable>
##@@@F_:SystemInit():
##@@@P_:system_init.c:247
##@@@L0242_: */   
##@@@L0243_:void SystemInit(void)   
##@@@L0244_:{   
##@@@L0245_:	/* Configure the System clock source, PLL Multiplier and Divider factors */   
##@@@L0246_:	SetSysClock();   
##@@@L0247_:}   
     58e:	e4 28       	ADD       SP, #4			;->0x04
     590:	06 5d       	POP       R6
     592:	0d 5d       	POP       LR
     594:	1d 5c       	JMP       LR
     596:	00 00       	NOP      NOP      
     598:	00 01 20 40 	.long     0x40200100 ->1075839232  [!!!@2@:CMN       R0, R0	@@: LD        R0, [PC + #32]        ;->0x618  :=0x58e8db27

0000059c <delay_ms>:
##@@@F_:delay_ms():
##@@@P_:delay.c:12
##@@@L0007_: * @brief : Õ╗ČµŚČnms   
##@@@L0008_: * @param  nms: Õ╗ČµŚČµŚČķŚ┤’╝īÕŹĢõĮŹ’╝Üms   
##@@@L0009_: * @return *   
##@@@L0010_: */   
##@@@L0011_:void delay_ms(volatile uint32_t nms)   
##@@@L0012_:{   
     59c:	ec 30       	SUB       SP, #12			;->0x0C
     59e:	02 20       	ST.W      [SP + #2], R0
##@@@P_:delay.c:14
##@@@L0013_:	volatile uint32_t i,j;   
##@@@L0014_:	for(i=0;i<nms;i++)   
     5a0:	50 10       	MOV       R5, #0			;->0x0000
     5a2:	01 25       	ST.W      [SP + #1], R5
     5a4:	01 0d       	LD.W      R5, [SP + #1]
     5a6:	02 0c       	LD.W      R4, [SP + #2]
     5a8:	45 70       	CMP       R4, R5
     5aa:	0f f9       	JLS       $+15                  ;->0x5c8
##@@@P_:delay.c:16
##@@@L0015_:	{   
##@@@L0016_:		j=DELAY_MS_LOOP_COUNT;   
     5ac:	08 43       	LD        R3, [PC + #8]         ;->0x5cc  :=0x17a2
     5ae:	e3 85       	ST.W      [SP], R3
##@@@P_:delay.c:17 (discriminator 1)
##@@@L0017_:		while(j--);   
     5b0:	5e 82       	LD.W      R5, [SP]
     5b2:	65 cc       	SUB       R4, R5, #1
     5b4:	e4 85       	ST.W      [SP], R4
     5b6:	50 38       	CMP       R5, #0			;->0x00
     5b8:	fc f1       	JNZ       $-4                   ;->0x5b0
##@@@P_:delay.c:14
##@@@L0009_: * @return *   
##@@@L0010_: */   
##@@@L0011_:void delay_ms(volatile uint32_t nms)   
##@@@L0012_:{   
##@@@L0013_:	volatile uint32_t i,j;   
##@@@L0014_:	for(i=0;i<nms;i++)   
     5ba:	01 0d       	LD.W      R5, [SP + #1]
     5bc:	6d c0       	ADD       R5, R5, #1
     5be:	01 25       	ST.W      [SP + #1], R5
     5c0:	01 0d       	LD.W      R5, [SP + #1]
     5c2:	02 0c       	LD.W      R4, [SP + #2]
     5c4:	45 70       	CMP       R4, R5
     5c6:	f4 f8       	JHI       $-12                  ;->0x5ae
##@@@P_:delay.c:20
##@@@L0015_:	{   
##@@@L0016_:		j=DELAY_MS_LOOP_COUNT;   
##@@@L0017_:		while(j--);   
##@@@L0018_:	}   
##@@@L0019_:
##@@@L0020_:}   
     5c8:	ec 28       	ADD       SP, #12			;->0x0C
     5ca:	1d 5c       	JMP       LR
     5cc:	a2 17 00 00 	.long     0x000017a2 ->000006050  [!!!@2@:MOV       R10, #114	@@: NOP      

000005d0 <GPIO_Configuration>:
##@@@F_:GPIO_Configuration():
##@@@P_:kf32f_basic_gpio.c:611
##@@@L0606_:
##@@@L0607_:    /*---------------- ĶÄĘÕÅ¢GPIOx_PORÕ»äÕŁśÕÖ© ----------------*/   
##@@@L0608_:    tmpreg = GPIOx->POR;   
##@@@L0609_:
##@@@L0610_:    return (uint16_t)tmpreg;   
##@@@L0611_:}   
     5d0:	1f 5f       	PUSH      {R6-R10}
     5d2:	61 82       	LD.W      R6, [R1]
     5d4:	50 10       	MOV       R5, #0			;->0x0000
     5d6:	21 10       	MOV       R2, #1			;->0x0001
     5d8:	a3 10       	MOV       R10, #3			;->0x0003
     5da:	04 04       	SJMP      $+4                   ;->0x5e2
     5dc:	6d c0       	ADD       R5, R5, #1
     5de:	50 39       	CMP       R5, #16			;->0x10
     5e0:	31 f0       	JZ        $+49                  ;->0x642
     5e2:	62 db       	LSL       R4, R2, R5
     5e4:	9c d5       	ANL       R3, R4, R6
     5e6:	34 70       	CMP       R3, R4
     5e8:	fa f1       	JNZ       $-6                   ;->0x5dc
     5ea:	65 c3       	ADD       R4, R5, R5
     5ec:	78 99       	LD.W      R7, [R0 + #5]
     5ee:	27 59       	MOV       R9, R7
     5f0:	ea 58       	MOV       R7, R10
     5f2:	3f db       	LSL       R7, R7, R4
     5f4:	87 68       	NOT       R8, R7
##@@@F_:SFR_Config():
     5f6:	89 69       	ANL       R8, R9
##@@@F_:GPIO_Configuration():
     5f8:	79 98       	LD.W      R7, [R1 + #1]
     5fa:	3f db       	LSL       R7, R7, R4
##@@@F_:SFR_Config():
     5fc:	87 6a       	ORL       R8, R7
##@@@F_:GPIO_Configuration():
     5fe:	e8 58       	MOV       R7, R8
     600:	47 a1       	ST.W      [R0 + #5], R7
     602:	79 98       	LD.W      R7, [R1 + #1]
     604:	7f cc       	SUB       R7, R7, #1
     606:	71 38       	CMP       R7, #1			;->0x01
     608:	1f f9       	JLS       $+31                  ;->0x646
     60a:	33 68       	NOT       R3, R3
     60c:	b8 99       	LD.W      R7, [R0 + #6]
     60e:	27 59       	MOV       R9, R7
     610:	3a db       	LSL       R7, R2, R4
     612:	87 68       	NOT       R8, R7
##@@@F_:SFR_Config():
     614:	89 69       	ANL       R8, R9
##@@@F_:GPIO_Configuration():
     616:	b9 98       	LD.W      R7, [R1 + #2]
     618:	27 db       	LSL       R4, R7, R4
##@@@F_:SFR_Config():
     61a:	e8 58       	MOV       R7, R8
     61c:	27 d7       	ORL       R4, R7, R4
##@@@F_:GPIO_Configuration():
     61e:	84 a1       	ST.W      [R0 + #6], R4
     620:	a0 98       	LD.W      R4, [R0 + #2]
##@@@F_:SFR_Config():
     622:	23 d5       	ANL       R4, R3, R4
     624:	04 59       	MOV       R8, R4
##@@@F_:GPIO_Configuration():
     626:	39 99       	LD.W      R7, [R1 + #4]
     628:	67 db       	LSL       R4, R7, R5
##@@@F_:SFR_Config():
     62a:	e8 58       	MOV       R7, R8
     62c:	27 d7       	ORL       R4, R7, R4
##@@@F_:GPIO_Configuration():
     62e:	84 a0       	ST.W      [R0 + #2], R4
     630:	e0 98       	LD.W      R4, [R0 + #3]
##@@@F_:SFR_Config():
     632:	1b d5       	ANL       R3, R3, R4
##@@@F_:GPIO_Configuration():
     634:	79 99       	LD.W      R7, [R1 + #5]
     636:	67 db       	LSL       R4, R7, R5
##@@@F_:SFR_Config():
     638:	1b d7       	ORL       R3, R3, R4
##@@@F_:GPIO_Configuration():
     63a:	c3 a0       	ST.W      [R0 + #3], R3
     63c:	6d c0       	ADD       R5, R5, #1
     63e:	50 39       	CMP       R5, #16			;->0x10
     640:	d1 f1       	JNZ       $-47                  ;->0x5e2
     642:	1f 5e       	POP       {R6-R10}
     644:	1d 5c       	JMP       LR
     646:	38 99       	LD.W      R7, [R0 + #4]
     648:	07 59       	MOV       R8, R7
     64a:	33 68       	NOT       R3, R3
##@@@F_:SFR_Config():
     64c:	e3 58       	MOV       R7, R3
     64e:	78 69       	ANL       R7, R8
     650:	07 59       	MOV       R8, R7
##@@@F_:GPIO_Configuration():
     652:	f9 98       	LD.W      R7, [R1 + #3]
     654:	7f db       	LSL       R7, R7, R5
##@@@F_:SFR_Config():
     656:	87 6a       	ORL       R8, R7
##@@@F_:GPIO_Configuration():
     658:	e8 58       	MOV       R7, R8
     65a:	07 a1       	ST.W      [R0 + #4], R7
     65c:	d8 07       	SJMP      $-40                  ;->0x60c
	...

00000660 <GPIO_Struct_Init>:
##@@@F_:GPIO_Struct_Init():
     660:	05 45       	LD        R5, [PC + #5]         ;->0x674  :=0xffff
     662:	05 85       	ST.W      [R0], R5
     664:	53 10       	MOV       R5, #3			;->0x0003
     666:	45 a0       	ST.W      [R0 + #1], R5
     668:	50 10       	MOV       R5, #0			;->0x0000
     66a:	85 a0       	ST.W      [R0 + #2], R5
     66c:	c5 a0       	ST.W      [R0 + #3], R5
     66e:	05 a1       	ST.W      [R0 + #4], R5
     670:	45 a1       	ST.W      [R0 + #5], R5
     672:	1d 5c       	JMP       LR
     674:	ff ff 00 00 	.long     0x0000ffff ->000065535 

00000678 <GPIO_Pin_Lock_Config>:
##@@@F_:GPIO_Pin_Lock_Config():
     678:	11 d0       	ZXT.H     R1, R1
     67a:	e0 99       	LD.W      R4, [R0 + #7]
     67c:	04 45       	LD        R5, [PC + #4]         ;->0x68c  :=0x5c5a0000
     67e:	6c d7       	ORL       R5, R4, R5
     680:	20 38       	CMP       R2, #0			;->0x00
     682:	07 f1       	JNZ       $+7                   ;->0x690
     684:	11 68       	NOT       R1, R1
     686:	69 d5       	ANL       R5, R1, R5
     688:	c5 a1       	ST.W      [R0 + #7], R5
     68a:	1d 5c       	JMP       LR
     68c:	00 00 5a 5c 	.long     0x5c5a0000 ->1549402112  [!!!@2@:NOP      	@@: MOVH      R26, #23642
     690:	69 d7       	ORL       R5, R1, R5
     692:	c5 a1       	ST.W      [R0 + #7], R5
     694:	1d 5c       	JMP       LR

00000696 <GPIO_Write_Mode_Bits>:
##@@@F_:GPIO_Write_Mode_Bits():
     696:	03 5f       	PUSH      {R6-R7}
     698:	11 d0       	ZXT.H     R1, R1
     69a:	58 99       	LD.W      R3, [R0 + #5]
     69c:	10 38       	CMP       R1, #0			;->0x00
     69e:	0f f0       	JZ        $+15                  ;->0x6bc
     6a0:	50 10       	MOV       R5, #0			;->0x0000
     6a2:	61 10       	MOV       R6, #1			;->0x0001
     6a4:	73 10       	MOV       R7, #3			;->0x0003
     6a6:	a1 d5       	ANL       R4, R1, R6
     6a8:	06 f0       	JZ        $+6                   ;->0x6b4
     6aa:	67 db       	LSL       R4, R7, R5
     6ac:	44 68       	NOT       R4, R4
     6ae:	dc d4       	ANL       R3, R4, R3
     6b0:	62 db       	LSL       R4, R2, R5
     6b2:	1b d7       	ORL       R3, R3, R4
     6b4:	09 7c       	LSR       R1, #1			;->0x01
     6b6:	ad c0       	ADD       R5, R5, #2
     6b8:	10 38       	CMP       R1, #0			;->0x00
     6ba:	f6 f1       	JNZ       $-10                  ;->0x6a6
     6bc:	43 a1       	ST.W      [R0 + #5], R3
     6be:	03 5e       	POP       {R6-R7}
     6c0:	1d 5c       	JMP       LR

000006c2 <GPIO_Set_Output_Data_Bits>:
##@@@F_:GPIO_Set_Output_Data_Bits():
##@@@P_:kf32f_basic_gpio.c:626
##@@@L0621_:  * Ķ┐öÕø×  µŚĀŃĆé   
##@@@L0622_:  */   
##@@@L0623_:void   
##@@@L0624_:GPIO_Set_Output_Data_Bits (GPIO_SFRmap* GPIOx,   
##@@@L0625_:                    uint16_t GpioPin, BitAction BitsValue)   
##@@@L0626_:{   
     6c2:	11 d0       	ZXT.H     R1, R1
##@@@P_:kf32f_basic_gpio.c:636
##@@@L0631_:
##@@@L0632_:    /*----------- Ķ«ŠńĮ«GPIOx_PORÕ»äÕŁśÕÖ© -----------*/   
##@@@L0633_:    if (BitsValue != Bit_RESET)   
##@@@L0634_:    {   
##@@@L0635_:        /* ķĆ╗ĶŠæķ½śńöĄÕ╣│ */   
##@@@L0636_:        GPIOx->POR |= (uint32_t)GpioPin;   
     6c4:	68 98       	LD.W      R5, [R0 + #1]
##@@@P_:kf32f_basic_gpio.c:633
##@@@L0628_:    CHECK_RESTRICTION(CHECK_GPIO_ALL_PERIPH(GPIOx));   
##@@@L0629_:    CHECK_RESTRICTION(CHECK_GPIO_PIN_MASK(GpioPin));   
##@@@L0630_:    CHECK_RESTRICTION(CHECK_GPIO_BIT_ACTION(BitsValue));   
##@@@L0631_:
##@@@L0632_:    /*----------- Ķ«ŠńĮ«GPIOx_PORÕ»äÕŁśÕÖ© -----------*/   
##@@@L0633_:    if (BitsValue != Bit_RESET)   
     6c6:	20 38       	CMP       R2, #0			;->0x00
     6c8:	05 f1       	JNZ       $+5                   ;->0x6d2
##@@@P_:kf32f_basic_gpio.c:641
##@@@L0636_:        GPIOx->POR |= (uint32_t)GpioPin;   
##@@@L0637_:    }   
##@@@L0638_:    else   
##@@@L0639_:    {   
##@@@L0640_:        /* ķĆ╗ĶŠæõĮÄńöĄÕ╣│ */   
##@@@L0641_:        GPIOx->POR &= ~((uint32_t)GpioPin);   
     6ca:	11 68       	NOT       R1, R1
     6cc:	49 d5       	ANL       R1, R1, R5
     6ce:	41 a0       	ST.W      [R0 + #1], R1
##@@@P_:kf32f_basic_gpio.c:643
##@@@L0642_:    }   
##@@@L0643_:}   
     6d0:	1d 5c       	JMP       LR
##@@@P_:kf32f_basic_gpio.c:636
##@@@L0631_:
##@@@L0632_:    /*----------- Ķ«ŠńĮ«GPIOx_PORÕ»äÕŁśÕÖ© -----------*/   
##@@@L0633_:    if (BitsValue != Bit_RESET)   
##@@@L0634_:    {   
##@@@L0635_:        /* ķĆ╗ĶŠæķ½śńöĄÕ╣│ */   
##@@@L0636_:        GPIOx->POR |= (uint32_t)GpioPin;   
     6d2:	49 d7       	ORL       R1, R1, R5
     6d4:	41 a0       	ST.W      [R0 + #1], R1
##@@@P_:kf32f_basic_gpio.c:643
##@@@L0638_:    else   
##@@@L0639_:    {   
##@@@L0640_:        /* ķĆ╗ĶŠæõĮÄńöĄÕ╣│ */   
##@@@L0641_:        GPIOx->POR &= ~((uint32_t)GpioPin);   
##@@@L0642_:    }   
##@@@L0643_:}   
     6d6:	1d 5c       	JMP       LR

000006d8 <GPIO_Toggle_Output_Data_Config>:
##@@@F_:GPIO_Toggle_Output_Data_Config():
##@@@P_:kf32f_basic_gpio.c:654
##@@@L0649_:  *                õĖĆõĖ¬µł¢ÕżÜõĖ¬ń╗äÕÉłŃĆé   
##@@@L0650_:  * Ķ┐öÕø×  µŚĀŃĆé   
##@@@L0651_:  */   
##@@@L0652_:void   
##@@@L0653_:GPIO_Toggle_Output_Data_Config (GPIO_SFRmap* GPIOx, uint16_t GpioPin)   
##@@@L0654_:{   
     6d8:	11 d0       	ZXT.H     R1, R1
##@@@P_:kf32f_basic_gpio.c:659
##@@@L0655_:    /* ÕÅéµĢ░µĀĪķ¬ī */   
##@@@L0656_:    CHECK_RESTRICTION(CHECK_GPIO_ALL_PERIPH(GPIOx));   
##@@@L0657_:
##@@@L0658_:    /*----------- Ķ«ŠńĮ«GPIOx_PORÕ»äÕŁśÕÖ© -----------*/   
##@@@L0659_:    GPIOx->POR ^= (uint32_t)GpioPin;   
     6da:	68 98       	LD.W      R5, [R0 + #1]
     6dc:	49 d9       	XRL       R1, R1, R5
     6de:	41 a0       	ST.W      [R0 + #1], R1
##@@@P_:kf32f_basic_gpio.c:660
##@@@L0660_:}   
     6e0:	1d 5c       	JMP       LR

000006e2 <GPIO_Pin_RMP_Config>:
##@@@F_:GPIO_Pin_RMP_Config():
##@@@P_:kf32f_basic_gpio.c:737
##@@@L0732_:  * Ķ┐öÕø×  µŚĀŃĆé   
##@@@L0733_:  */   
##@@@L0734_:void   
##@@@L0735_:GPIO_Pin_RMP_Config (GPIO_SFRmap* GPIOx,   
##@@@L0736_:                    uint16_t GpioPinNum, uint8_t PinRemap)   
##@@@L0737_:{   
     6e2:	11 d0       	ZXT.H     R1, R1
     6e4:	22 d1       	ZXT.B     R2, R2
##@@@P_:kf32f_basic_gpio.c:747
##@@@L0742_:    CHECK_RESTRICTION(CHECK_GPIO_ALL_PERIPH(GPIOx));   
##@@@L0743_:    CHECK_RESTRICTION(CHECK_GPIO_PIN_NUM(GpioPinNum));   
##@@@L0744_:    CHECK_RESTRICTION(CHECK_GPIO_RMP(PinRemap));   
##@@@L0745_:
##@@@L0746_:    /* ĶÄĘÕÅ¢ÕÄ¤Õ¦ŗGPIO_RMPH/LµĢ░µŹ« */   
##@@@L0747_:    tmpreg1 = GPIOx->RMP[GpioPinNum >> 0x03];   
     6e6:	43 10       	MOV       R4, #3			;->0x0003
     6e8:	29 dd       	LSR       R5, R1, R4
     6ea:	58 28       	ADD       R5, #8			;->0x08
     6ec:	2a 7a       	LSL       R5, #2			;->0x02
     6ee:	58 e9       	LD.W      R3, [R0 + R5]
##@@@P_:kf32f_basic_gpio.c:750
##@@@L0748_:
##@@@L0749_:    /* õ┐«µö╣Õ»╣Õ║öńÜäµĢ░ÕĆ╝ */   
##@@@L0750_:    tmpreg = ((uint32_t)PinRemap << (((uint32_t)GpioPinNum & 0x07) * 4));   
     6f0:	47 10       	MOV       R4, #7			;->0x0007
     6f2:	09 d5       	ANL       R1, R1, R4
     6f4:	0a 7a       	LSL       R1, #2			;->0x02
##@@@P_:kf32f_basic_gpio.c:751
##@@@L0751_:    tmpreg1 &= ~((uint32_t)0xF << (((uint32_t)GpioPinNum & 0x07) * 4));   
     6f6:	4f 10       	MOV       R4, #15			;->0x000F
     6f8:	64 da       	LSL       R4, R4, R1
     6fa:	44 68       	NOT       R4, R4
     6fc:	e4 d4       	ANL       R4, R4, R3
##@@@P_:kf32f_basic_gpio.c:750
##@@@L0745_:
##@@@L0746_:    /* ĶÄĘÕÅ¢ÕÄ¤Õ¦ŗGPIO_RMPH/LµĢ░µŹ« */   
##@@@L0747_:    tmpreg1 = GPIOx->RMP[GpioPinNum >> 0x03];   
##@@@L0748_:
##@@@L0749_:    /* õ┐«µö╣Õ»╣Õ║öńÜäµĢ░ÕĆ╝ */   
##@@@L0750_:    tmpreg = ((uint32_t)PinRemap << (((uint32_t)GpioPinNum & 0x07) * 4));   
     6fe:	4a da       	LSL       R1, R2, R1
##@@@P_:kf32f_basic_gpio.c:752
##@@@L0751_:    tmpreg1 &= ~((uint32_t)0xF << (((uint32_t)GpioPinNum & 0x07) * 4));   
##@@@L0752_:    tmpreg1 = tmpreg1 | tmpreg;   
     700:	4c d6       	ORL       R1, R4, R1
##@@@P_:kf32f_basic_gpio.c:755
##@@@L0753_:
##@@@L0754_:    /* ķģŹńĮ«GPIO_RMPH/LµĢ░µŹ« */   
##@@@L0755_:    GPIOx->RMP[GpioPinNum >> 0x03] = tmpreg1;   
     702:	41 ef       	ST.W      [R0 + R5], R1
##@@@P_:kf32f_basic_gpio.c:756
##@@@L0756_:}   
     704:	1d 5c       	JMP       LR
	...

00000708 <INT_All_Enable>:
##@@@F_:INT_All_Enable():
##@@@P_:kf32f_basic_int.c:255
##@@@L0250_:
##@@@L0251_:    /*---------------- Ķ«ŠńĮ«INT_CTL0Õ»äÕŁśÕÖ©AIEõĮŹ ----------------*/   
##@@@L0252_:    if (NewState != FALSE)   
##@@@L0253_:    {   
##@@@L0254_:        /* Õģ©Õ▒ĆÕÅ»Õ▒ÅĶöĮõĖŁµ¢ŁõĮ┐ĶāĮ */   
##@@@L0255_:        SFR_SET_BIT_ASM(INT_CTL0, INT_CTL0_AIE_POS);   
     708:	03 45       	LD        R5, [PC + #3]         ;->0x714  :=0x40200000
##@@@P_:kf32f_basic_int.c:252
##@@@L0247_:{   
##@@@L0248_:    /* ÕÅéµĢ░µĀĪķ¬ī */   
##@@@L0249_:    CHECK_RESTRICTION(CHECK_FUNCTIONAL_STATE(NewState));   
##@@@L0250_:
##@@@L0251_:    /*---------------- Ķ«ŠńĮ«INT_CTL0Õ»äÕŁśÕÖ©AIEõĮŹ ----------------*/   
##@@@L0252_:    if (NewState != FALSE)   
     70a:	00 38       	CMP       R0, #0			;->0x00
     70c:	06 f1       	JNZ       $+6                   ;->0x718
##@@@P_:kf32f_basic_int.c:260
##@@@L0255_:        SFR_SET_BIT_ASM(INT_CTL0, INT_CTL0_AIE_POS);   
##@@@L0256_:    }   
##@@@L0257_:    else   
##@@@L0258_:    {   
##@@@L0259_:        /* Õģ©Õ▒ĆÕÅ»Õ▒ÅĶöĮõĖŁµ¢Łń”üµŁó */   
##@@@L0260_:        SFR_CLR_BIT_ASM(INT_CTL0, INT_CTL0_AIE_POS);   
     70e:	28 4e       	CLR       [R5], #0			;->0x00
##@@@P_:kf32f_basic_int.c:262
##@@@L0261_:    }   
##@@@L0262_:}   
     710:	1d 5c       	JMP       LR
     712:	00 00       	NOP      NOP      
     714:	00 00 20 40 	.long     0x40200000 ->1075838976  [!!!@2@:NOP      	@@: LD        R0, [PC + #32]        ;->0x794  :=0x5c1d4ea8
##@@@P_:kf32f_basic_int.c:255
##@@@L0250_:
##@@@L0251_:    /*---------------- Ķ«ŠńĮ«INT_CTL0Õ»äÕŁśÕÖ©AIEõĮŹ ----------------*/   
##@@@L0252_:    if (NewState != FALSE)   
##@@@L0253_:    {   
##@@@L0254_:        /* Õģ©Õ▒ĆÕÅ»Õ▒ÅĶöĮõĖŁµ¢ŁõĮ┐ĶāĮ */   
##@@@L0255_:        SFR_SET_BIT_ASM(INT_CTL0, INT_CTL0_AIE_POS);   
     718:	28 4c       	SET       [R5], #0			;->0x00
##@@@P_:kf32f_basic_int.c:262
##@@@L0257_:    else   
##@@@L0258_:    {   
##@@@L0259_:        /* Õģ©Õ▒ĆÕÅ»Õ▒ÅĶöĮõĖŁµ¢Łń”üµŁó */   
##@@@L0260_:        SFR_CLR_BIT_ASM(INT_CTL0, INT_CTL0_AIE_POS);   
##@@@L0261_:    }   
##@@@L0262_:}   
     71a:	1d 5c       	JMP       LR

0000071c <OSC_LFCK_Division_Config>:
##@@@F_:OSC_LFCK_Division_Config():
##@@@P_:kf32f_basic_osc.c:1619
##@@@L1614_:    else   
##@@@L1615_:    {   
##@@@L1616_:        /* PLLµ£¬ķöüÕ«Ü */   
##@@@L1617_:        return RESET;   
##@@@L1618_:    }   
##@@@L1619_:}   
     71c:	51 10       	MOV       R5, #1			;->0x0001
     71e:	ae 7b       	LSL       R5, #30			;->0x1E
     720:	45 82       	LD.W      R4, [R5]
     722:	80 7b       	LSL       R0, #24			;->0x18
##@@@F_:SFR_Config():
     724:	03 43       	LD        R3, [PC + #3]         ;->0x730  :=0xf8ffffff
     726:	e4 d4       	ANL       R4, R4, R3
     728:	20 d7       	ORL       R4, R0, R4
##@@@F_:OSC_LFCK_Division_Config():
     72a:	54 85       	ST.W      [R5], R4
     72c:	1d 5c       	JMP       LR
     72e:	00 00       	NOP      NOP      
     730:	ff ff ff f8 	.long     0xf8ffffff ->-117440513 

00000734 <OSC_HFCK_Division_Config>:
##@@@F_:OSC_HFCK_Division_Config():
     734:	51 10       	MOV       R5, #1			;->0x0001
     736:	ae 7b       	LSL       R5, #30			;->0x1E
     738:	45 82       	LD.W      R4, [R5]
     73a:	04 7b       	LSL       R0, #20			;->0x14
##@@@F_:SFR_Config():
     73c:	03 43       	LD        R3, [PC + #3]         ;->0x748  :=0xff0fffff
     73e:	e4 d4       	ANL       R4, R4, R3
     740:	20 d7       	ORL       R4, R0, R4
##@@@F_:OSC_HFCK_Division_Config():
     742:	54 85       	ST.W      [R5], R4
     744:	1d 5c       	JMP       LR
     746:	00 00       	NOP      NOP      
     748:	ff ff 0f ff 	.long     0xff0fffff ->-15728641 

0000074c <OSC_SCK_Division_Config>:
##@@@F_:OSC_SCK_Division_Config():
     74c:	51 10       	MOV       R5, #1			;->0x0001
     74e:	ae 7b       	LSL       R5, #30			;->0x1E
     750:	45 82       	LD.W      R4, [R5]
     752:	00 7b       	LSL       R0, #16			;->0x10
##@@@F_:SFR_Config():
     754:	03 43       	LD        R3, [PC + #3]         ;->0x760  :=0xfff8ffff
     756:	e4 d4       	ANL       R4, R4, R3
     758:	20 d7       	ORL       R4, R0, R4
##@@@F_:OSC_SCK_Division_Config():
     75a:	54 85       	ST.W      [R5], R4
     75c:	1d 5c       	JMP       LR
     75e:	00 00       	NOP      NOP      
     760:	ff ff f8 ff 	.long     0xfff8ffff ->-00458753 

00000764 <OSC_PLL_Input_Source_Config>:
##@@@F_:OSC_PLL_Input_Source_Config():
     764:	51 10       	MOV       R5, #1			;->0x0001
     766:	ae 7b       	LSL       R5, #30			;->0x1E
     768:	00 38       	CMP       R0, #0			;->0x00
     76a:	03 f1       	JNZ       $+3                   ;->0x770
     76c:	ac 4e       	CLR       [R5], #12			;->0x0C
     76e:	1d 5c       	JMP       LR
     770:	ac 4c       	SET       [R5], #12			;->0x0C
     772:	1d 5c       	JMP       LR

00000774 <OSC_HFCK_Source_Config>:
##@@@F_:OSC_HFCK_Source_Config():
     774:	51 10       	MOV       R5, #1			;->0x0001
     776:	ae 7b       	LSL       R5, #30			;->0x1E
     778:	45 82       	LD.W      R4, [R5]
     77a:	81 7a       	LSL       R0, #9			;->0x09
##@@@F_:SFR_Config():
     77c:	03 43       	LD        R3, [PC + #3]         ;->0x788  :=0xfffff1ff
     77e:	e4 d4       	ANL       R4, R4, R3
     780:	20 d7       	ORL       R4, R0, R4
##@@@F_:OSC_HFCK_Source_Config():
     782:	54 85       	ST.W      [R5], R4
     784:	1d 5c       	JMP       LR
     786:	00 00       	NOP      NOP      
     788:	ff f1 ff ff 	.long     0xfffff1ff ->-00003585 

0000078c <OSC_HFCK_Enable>:
##@@@F_:OSC_HFCK_Enable():
     78c:	51 10       	MOV       R5, #1			;->0x0001
     78e:	ae 7b       	LSL       R5, #30			;->0x1E
     790:	00 38       	CMP       R0, #0			;->0x00
     792:	03 f1       	JNZ       $+3                   ;->0x798
     794:	a8 4e       	CLR       [R5], #8			;->0x08
     796:	1d 5c       	JMP       LR
     798:	a8 4c       	SET       [R5], #8			;->0x08
     79a:	1d 5c       	JMP       LR

0000079c <OSC_LFCK_Source_Config>:
##@@@F_:OSC_LFCK_Source_Config():
     79c:	51 10       	MOV       R5, #1			;->0x0001
     79e:	ae 7b       	LSL       R5, #30			;->0x1E
     7a0:	00 38       	CMP       R0, #0			;->0x00
     7a2:	03 f1       	JNZ       $+3                   ;->0x7a8
     7a4:	2e 4e       	CLR       [R5], #6			;->0x06
     7a6:	1d 5c       	JMP       LR
     7a8:	2e 4c       	SET       [R5], #6			;->0x06
     7aa:	1d 5c       	JMP       LR

000007ac <OSC_LFCK_Enable>:
##@@@F_:OSC_LFCK_Enable():
     7ac:	51 10       	MOV       R5, #1			;->0x0001
     7ae:	ae 7b       	LSL       R5, #30			;->0x1E
     7b0:	00 38       	CMP       R0, #0			;->0x00
     7b2:	03 f1       	JNZ       $+3                   ;->0x7b8
     7b4:	2c 4e       	CLR       [R5], #4			;->0x04
     7b6:	1d 5c       	JMP       LR
     7b8:	2c 4c       	SET       [R5], #4			;->0x04
     7ba:	1d 5c       	JMP       LR

000007bc <OSC_SCK_Source_Config>:
##@@@F_:OSC_SCK_Source_Config():
     7bc:	51 10       	MOV       R5, #1			;->0x0001
     7be:	ae 7b       	LSL       R5, #30			;->0x1E
     7c0:	45 82       	LD.W      R4, [R5]
     7c2:	00 c2       	ADD       R0, R0, R0
##@@@F_:SFR_Config():
     7c4:	3e 10       	MOV       R3, #14			;->0x000E
     7c6:	33 68       	NOT       R3, R3
     7c8:	e4 d4       	ANL       R4, R4, R3
     7ca:	20 d7       	ORL       R4, R0, R4
##@@@F_:OSC_SCK_Source_Config():
     7cc:	54 85       	ST.W      [R5], R4
     7ce:	1d 5c       	JMP       LR

000007d0 <OSC_PLL_Multiple_Value_Select>:
##@@@F_:OSC_PLL_Multiple_Value_Select():
     7d0:	10 45       	LD        R5, [PC + #16]        ;->0x810  :=0x40002580
     7d2:	45 82       	LD.W      R4, [R5]
     7d4:	02 7a       	LSL       R0, #2			;->0x02
##@@@F_:SFR_Config():
     7d6:	10 43       	LD        R3, [PC + #16]        ;->0x814  :=0xffff0003
     7d8:	e4 d4       	ANL       R4, R4, R3
     7da:	20 d7       	ORL       R4, R0, R4
##@@@F_:OSC_PLL_Multiple_Value_Select():
     7dc:	54 85       	ST.W      [R5], R4
     7de:	45 82       	LD.W      R4, [R5]
     7e0:	08 7b       	LSL       R1, #16			;->0x10
##@@@F_:SFR_Config():
     7e2:	0e 43       	LD        R3, [PC + #14]        ;->0x818  :=0xfff0ffff
     7e4:	e4 d4       	ANL       R4, R4, R3
     7e6:	21 d7       	ORL       R4, R1, R4
##@@@F_:OSC_PLL_Multiple_Value_Select():
     7e8:	54 85       	ST.W      [R5], R4
     7ea:	28 38       	CMP       R2, #8			;->0x08
     7ec:	18 f0       	JZ        $+24                  ;->0x81c
     7ee:	24 38       	CMP       R2, #4			;->0x04
     7f0:	22 f0       	JZ        $+34                  ;->0x834
     7f2:	22 38       	CMP       R2, #2			;->0x02
     7f4:	2c f0       	JZ        $+44                  ;->0x84c
     7f6:	40 10       	MOV       R4, #0			;->0x0000
     7f8:	21 38       	CMP       R2, #1			;->0x01
     7fa:	03 f0       	JZ        $+3                   ;->0x800
     7fc:	54 11       	MOV       R5, #20			;->0x0014
     7fe:	62 db       	LSL       R4, R2, R5
     800:	04 45       	LD        R5, [PC + #4]         ;->0x810  :=0x40002580
     802:	35 82       	LD.W      R3, [R5]
##@@@F_:SFR_Config():
     804:	1c 4b       	CLR       R3, #20			;->0x14
     806:	1d 4b       	CLR       R3, #21			;->0x15
     808:	e4 d6       	ORL       R4, R4, R3
##@@@F_:OSC_PLL_Multiple_Value_Select():
     80a:	54 85       	ST.W      [R5], R4
     80c:	1d 5c       	JMP       LR
     80e:	00 00       	NOP      NOP      
     810:	80 25 00 40 	.long     0x40002580 ->1073751424  [!!!@2@:ST.W      [SP + #128], R5	@@: LD        R0, [PC + #0]         ;->0x810  :=0x40002580
     814:	03 00 ff ff 	.long     0xffff0003 ->-00065533 
     818:	ff ff f0 ff 	.long     0xfff0ffff ->-00983041 
     81c:	04 44       	LD        R4, [PC + #4]         ;->0x82c  :=0x300000
     81e:	05 45       	LD        R5, [PC + #5]         ;->0x830  :=0x40002580
     820:	35 82       	LD.W      R3, [R5]
##@@@F_:SFR_Config():
     822:	1c 4b       	CLR       R3, #20			;->0x14
     824:	1d 4b       	CLR       R3, #21			;->0x15
     826:	e4 d6       	ORL       R4, R4, R3
##@@@F_:OSC_PLL_Multiple_Value_Select():
     828:	54 85       	ST.W      [R5], R4
     82a:	1d 5c       	JMP       LR
     82c:	00 00 30 00 	.long     0x00300000 ->003145728 
     830:	80 25 00 40 	.long     0x40002580 ->1073751424  [!!!@2@:ST.W      [SP + #128], R5	@@: LD        R0, [PC + #0]         ;->0x830  :=0x40002580
     834:	41 10       	MOV       R4, #1			;->0x0001
     836:	25 7b       	LSL       R4, #21			;->0x15
     838:	04 45       	LD        R5, [PC + #4]         ;->0x848  :=0x40002580
     83a:	35 82       	LD.W      R3, [R5]
##@@@F_:SFR_Config():
     83c:	1c 4b       	CLR       R3, #20			;->0x14
     83e:	1d 4b       	CLR       R3, #21			;->0x15
     840:	e4 d6       	ORL       R4, R4, R3
##@@@F_:OSC_PLL_Multiple_Value_Select():
     842:	54 85       	ST.W      [R5], R4
     844:	1d 5c       	JMP       LR
     846:	00 00       	NOP      NOP      
     848:	80 25 00 40 	.long     0x40002580 ->1073751424  [!!!@2@:ST.W      [SP + #128], R5	@@: LD        R0, [PC + #0]         ;->0x848  :=0x40002580
     84c:	41 10       	MOV       R4, #1			;->0x0001
     84e:	24 7b       	LSL       R4, #20			;->0x14
     850:	04 45       	LD        R5, [PC + #4]         ;->0x860  :=0x40002580
     852:	35 82       	LD.W      R3, [R5]
##@@@F_:SFR_Config():
     854:	1c 4b       	CLR       R3, #20			;->0x14
     856:	1d 4b       	CLR       R3, #21			;->0x15
     858:	e4 d6       	ORL       R4, R4, R3
##@@@F_:OSC_PLL_Multiple_Value_Select():
     85a:	54 85       	ST.W      [R5], R4
     85c:	1d 5c       	JMP       LR
     85e:	00 00       	NOP      NOP      
     860:	80 25 00 40 	.long     0x40002580 ->1073751424  [!!!@2@:ST.W      [SP + #128], R5	@@: LD        R0, [PC + #0]         ;->0x860  :=0x40002580

00000864 <OSC_PLL_RST>:
##@@@F_:OSC_PLL_RST():
     864:	02 45       	LD        R5, [PC + #2]         ;->0x86c  :=0x40002580
     866:	28 4c       	SET       [R5], #0			;->0x00
     868:	1d 5c       	JMP       LR
     86a:	00 00       	NOP      NOP      
     86c:	80 25 00 40 	.long     0x40002580 ->1073751424  [!!!@2@:ST.W      [SP + #128], R5	@@: LD        R0, [PC + #0]         ;->0x86c  :=0x40002580

00000870 <OSC_PLL_Start_Delay_Config>:
##@@@F_:OSC_PLL_Start_Delay_Config():
     870:	51 10       	MOV       R5, #1			;->0x0001
     872:	ae 7b       	LSL       R5, #30			;->0x1E
     874:	e5 98       	LD.W      R4, [R5 + #3]
     876:	80 7b       	LSL       R0, #24			;->0x18
##@@@F_:SFR_Config():
     878:	03 43       	LD        R3, [PC + #3]         ;->0x884  :=0xf0ffffff
     87a:	e4 d4       	ANL       R4, R4, R3
     87c:	20 d7       	ORL       R4, R0, R4
##@@@F_:OSC_PLL_Start_Delay_Config():
     87e:	ec a0       	ST.W      [R5 + #3], R4
     880:	1d 5c       	JMP       LR
     882:	00 00       	NOP      NOP      
     884:	ff ff ff f0 	.long     0xf0ffffff ->-251658241 

00000888 <OSC_PLL_Software_Enable>:
##@@@F_:OSC_PLL_Software_Enable():
     888:	03 45       	LD        R5, [PC + #3]         ;->0x894  :=0x4000000c
     88a:	00 38       	CMP       R0, #0			;->0x00
     88c:	06 f1       	JNZ       $+6                   ;->0x898
     88e:	2c 4e       	CLR       [R5], #4			;->0x04
     890:	1d 5c       	JMP       LR
     892:	00 00       	NOP      NOP      
     894:	0c 00 00 40 	.long     0x4000000c ->1073741836 
     898:	2c 4c       	SET       [R5], #4			;->0x04
     89a:	1d 5c       	JMP       LR

0000089c <OSC_INTHF_Software_Enable>:
##@@@F_:OSC_INTHF_Software_Enable():
     89c:	03 45       	LD        R5, [PC + #3]         ;->0x8a8  :=0x4000000c
     89e:	00 38       	CMP       R0, #0			;->0x00
     8a0:	06 f1       	JNZ       $+6                   ;->0x8ac
     8a2:	29 4e       	CLR       [R5], #1			;->0x01
     8a4:	1d 5c       	JMP       LR
     8a6:	00 00       	NOP      NOP      
     8a8:	0c 00 00 40 	.long     0x4000000c ->1073741836 
     8ac:	29 4c       	SET       [R5], #1			;->0x01
     8ae:	1d 5c       	JMP       LR

000008b0 <OSC_INTLF_Software_Enable>:
##@@@F_:OSC_INTLF_Software_Enable():
     8b0:	03 45       	LD        R5, [PC + #3]         ;->0x8bc  :=0x4000000c
     8b2:	00 38       	CMP       R0, #0			;->0x00
     8b4:	06 f1       	JNZ       $+6                   ;->0x8c0
     8b6:	28 4e       	CLR       [R5], #0			;->0x00
     8b8:	1d 5c       	JMP       LR
     8ba:	00 00       	NOP      NOP      
     8bc:	0c 00 00 40 	.long     0x4000000c ->1073741836 
     8c0:	28 4c       	SET       [R5], #0			;->0x00
     8c2:	1d 5c       	JMP       LR

000008c4 <OSC_Get_PLL_INT_Flag>:
##@@@F_:OSC_Get_PLL_INT_Flag():
     8c4:	51 10       	MOV       R5, #1			;->0x0001
     8c6:	ae 7b       	LSL       R5, #30			;->0x1E
     8c8:	85 98       	LD.W      R0, [R5 + #2]
     8ca:	04 7c       	LSR       R0, #4			;->0x04
     8cc:	51 10       	MOV       R5, #1			;->0x0001
     8ce:	40 d5       	ANL       R0, R0, R5
     8d0:	1d 5c       	JMP       LR

000008d2 <OSC_Get_INTHF_INT_Flag>:
##@@@F_:OSC_Get_INTHF_INT_Flag():
##@@@P_:kf32f_basic_osc.c:1630
##@@@L1625_:  */   
##@@@L1626_:FlagStatus   
##@@@L1627_:OSC_Get_INTHF_INT_Flag (void)   
##@@@L1628_:{   
##@@@L1629_:    /*---------------- Ķ«ŠńĮ«OSC_INTÕ»äÕŁśÕÖ©IHFIFõĮŹ ----------------*/   
##@@@L1630_:    if (OSC_INT & OSC_INT_IHFIF)   
     8d2:	51 10       	MOV       R5, #1			;->0x0001
     8d4:	ae 7b       	LSL       R5, #30			;->0x1E
     8d6:	85 98       	LD.W      R0, [R5 + #2]
     8d8:	01 7c       	LSR       R0, #1			;->0x01
##@@@P_:kf32f_basic_osc.c:1640
##@@@L1635_:    else   
##@@@L1636_:    {   
##@@@L1637_:        /* PLLµ£¬ķöüÕ«Ü */   
##@@@L1638_:        return RESET;   
##@@@L1639_:    }   
##@@@L1640_:}   
     8da:	51 10       	MOV       R5, #1			;->0x0001
     8dc:	40 d5       	ANL       R0, R0, R5
     8de:	1d 5c       	JMP       LR

000008e0 <PCLK_CTL1_Peripheral_Clock_Enable>:
##@@@F_:PCLK_CTL1_Peripheral_Clock_Enable():
##@@@P_:kf32f_basic_pclk.c:95
##@@@L0090_:    CHECK_RESTRICTION(CHECK_PCLK_CTL1_PERIPH(PCLK_CTL1_bit));   
##@@@L0091_:    CHECK_RESTRICTION(CHECK_FUNCTIONAL_STATE(NewState));   
##@@@L0092_:
##@@@L0093_:    if (NewState != FALSE)   
##@@@L0094_:    {   
##@@@L0095_:        PCLK_CTL1 |= PCLK_CTL1_bit;   
     8e0:	04 45       	LD        R5, [PC + #4]         ;->0x8f0  :=0x40002640
     8e2:	65 98       	LD.W      R4, [R5 + #1]
##@@@P_:kf32f_basic_pclk.c:93
##@@@L0088_:{   
##@@@L0089_:    /* ÕÅéµĢ░µĀĪķ¬ī */   
##@@@L0090_:    CHECK_RESTRICTION(CHECK_PCLK_CTL1_PERIPH(PCLK_CTL1_bit));   
##@@@L0091_:    CHECK_RESTRICTION(CHECK_FUNCTIONAL_STATE(NewState));   
##@@@L0092_:
##@@@L0093_:    if (NewState != FALSE)   
     8e4:	10 38       	CMP       R1, #0			;->0x00
     8e6:	07 f1       	JNZ       $+7                   ;->0x8f4
##@@@P_:kf32f_basic_pclk.c:99
##@@@L0094_:    {   
##@@@L0095_:        PCLK_CTL1 |= PCLK_CTL1_bit;   
##@@@L0096_:    }   
##@@@L0097_:    else   
##@@@L0098_:    {   
##@@@L0099_:        PCLK_CTL1 &= ~PCLK_CTL1_bit;   
     8e8:	00 68       	NOT       R0, R0
     8ea:	00 d5       	ANL       R0, R0, R4
     8ec:	68 a0       	ST.W      [R5 + #1], R0
##@@@P_:kf32f_basic_pclk.c:101
##@@@L0100_:    }   
##@@@L0101_:}   
     8ee:	1d 5c       	JMP       LR
     8f0:	40 26 00 40 	.long     0x40002640 ->1073751616  [!!!@2@:ST.W      [SP + #64], R6	@@: LD        R0, [PC + #0]         ;->0x8f0  :=0x40002640
##@@@P_:kf32f_basic_pclk.c:95
##@@@L0090_:    CHECK_RESTRICTION(CHECK_PCLK_CTL1_PERIPH(PCLK_CTL1_bit));   
##@@@L0091_:    CHECK_RESTRICTION(CHECK_FUNCTIONAL_STATE(NewState));   
##@@@L0092_:
##@@@L0093_:    if (NewState != FALSE)   
##@@@L0094_:    {   
##@@@L0095_:        PCLK_CTL1 |= PCLK_CTL1_bit;   
     8f4:	00 d7       	ORL       R0, R0, R4
     8f6:	68 a0       	ST.W      [R5 + #1], R0
##@@@P_:kf32f_basic_pclk.c:101
##@@@L0096_:    }   
##@@@L0097_:    else   
##@@@L0098_:    {   
##@@@L0099_:        PCLK_CTL1 &= ~PCLK_CTL1_bit;   
##@@@L0100_:    }   
##@@@L0101_:}   
     8f8:	1d 5c       	JMP       LR
	...

000008fc <PCLK_CTL2_Peripheral_Clock_Enable>:
##@@@F_:PCLK_CTL2_Peripheral_Clock_Enable():
##@@@P_:kf32f_basic_pclk.c:137
##@@@L0132_:    CHECK_RESTRICTION(CHECK_PCLK_CTL2_PERIPH(PCLK_CTL2_bit));   
##@@@L0133_:    CHECK_RESTRICTION(CHECK_FUNCTIONAL_STATE(NewState));   
##@@@L0134_:
##@@@L0135_:    if (NewState != FALSE)   
##@@@L0136_:    {   
##@@@L0137_:        PCLK_CTL2 |= PCLK_CTL2_bit;   
     8fc:	04 45       	LD        R5, [PC + #4]         ;->0x90c  :=0x40002640
     8fe:	a5 98       	LD.W      R4, [R5 + #2]
##@@@P_:kf32f_basic_pclk.c:135
##@@@L0130_:{   
##@@@L0131_:    /* ÕÅéµĢ░µĀĪķ¬ī */   
##@@@L0132_:    CHECK_RESTRICTION(CHECK_PCLK_CTL2_PERIPH(PCLK_CTL2_bit));   
##@@@L0133_:    CHECK_RESTRICTION(CHECK_FUNCTIONAL_STATE(NewState));   
##@@@L0134_:
##@@@L0135_:    if (NewState != FALSE)   
     900:	10 38       	CMP       R1, #0			;->0x00
     902:	07 f1       	JNZ       $+7                   ;->0x910
##@@@P_:kf32f_basic_pclk.c:141
##@@@L0136_:    {   
##@@@L0137_:        PCLK_CTL2 |= PCLK_CTL2_bit;   
##@@@L0138_:    }   
##@@@L0139_:    else   
##@@@L0140_:    {   
##@@@L0141_:        PCLK_CTL2 &= ~PCLK_CTL2_bit;   
     904:	00 68       	NOT       R0, R0
     906:	00 d5       	ANL       R0, R0, R4
     908:	a8 a0       	ST.W      [R5 + #2], R0
##@@@P_:kf32f_basic_pclk.c:143
##@@@L0142_:    }   
##@@@L0143_:}   
     90a:	1d 5c       	JMP       LR
     90c:	40 26 00 40 	.long     0x40002640 ->1073751616  [!!!@2@:ST.W      [SP + #64], R6	@@: LD        R0, [PC + #0]         ;->0x90c  :=0x40002640
##@@@P_:kf32f_basic_pclk.c:137
##@@@L0132_:    CHECK_RESTRICTION(CHECK_PCLK_CTL2_PERIPH(PCLK_CTL2_bit));   
##@@@L0133_:    CHECK_RESTRICTION(CHECK_FUNCTIONAL_STATE(NewState));   
##@@@L0134_:
##@@@L0135_:    if (NewState != FALSE)   
##@@@L0136_:    {   
##@@@L0137_:        PCLK_CTL2 |= PCLK_CTL2_bit;   
     910:	00 d7       	ORL       R0, R0, R4
     912:	a8 a0       	ST.W      [R5 + #2], R0
##@@@P_:kf32f_basic_pclk.c:143
##@@@L0138_:    }   
##@@@L0139_:    else   
##@@@L0140_:    {   
##@@@L0141_:        PCLK_CTL2 &= ~PCLK_CTL2_bit;   
##@@@L0142_:    }   
##@@@L0143_:}   
     914:	1d 5c       	JMP       LR
	...

00000918 <RST_CTL1_Peripheral_Reset_Enable>:
##@@@F_:RST_CTL1_Peripheral_Reset_Enable():
##@@@P_:kf32f_basic_rst.c:96
##@@@L0091_:    CHECK_RESTRICTION(CHECK_RST_CTL1_RESET_PERIPH(RST_CTL1_bit));   
##@@@L0092_:    CHECK_RESTRICTION(CHECK_FUNCTIONAL_STATE(NewState));   
##@@@L0093_:
##@@@L0094_:    if (NewState != FALSE)   
##@@@L0095_:    {   
##@@@L0096_:        RST_CTL1 |= RST_CTL1_bit;   
     918:	04 45       	LD        R5, [PC + #4]         ;->0x928  :=0x40001500
     91a:	65 98       	LD.W      R4, [R5 + #1]
##@@@P_:kf32f_basic_rst.c:94
##@@@L0089_:{   
##@@@L0090_:    /* ▓╬╩²ąŻčķ */   
##@@@L0091_:    CHECK_RESTRICTION(CHECK_RST_CTL1_RESET_PERIPH(RST_CTL1_bit));   
##@@@L0092_:    CHECK_RESTRICTION(CHECK_FUNCTIONAL_STATE(NewState));   
##@@@L0093_:
##@@@L0094_:    if (NewState != FALSE)   
     91c:	10 38       	CMP       R1, #0			;->0x00
     91e:	07 f1       	JNZ       $+7                   ;->0x92c
##@@@P_:kf32f_basic_rst.c:100
##@@@L0095_:    {   
##@@@L0096_:        RST_CTL1 |= RST_CTL1_bit;   
##@@@L0097_:    }   
##@@@L0098_:    else   
##@@@L0099_:    {   
##@@@L0100_:        RST_CTL1 &= ~RST_CTL1_bit;   
     920:	00 68       	NOT       R0, R0
     922:	00 d5       	ANL       R0, R0, R4
     924:	68 a0       	ST.W      [R5 + #1], R0
##@@@P_:kf32f_basic_rst.c:102
##@@@L0101_:    }   
##@@@L0102_:}   
     926:	1d 5c       	JMP       LR
     928:	00 15 00 40 	.long     0x40001500 ->1073747200  [!!!@2@:MOV       R0, #80	@@: LD        R0, [PC + #0]         ;->0x928  :=0x40001500
##@@@P_:kf32f_basic_rst.c:96
##@@@L0091_:    CHECK_RESTRICTION(CHECK_RST_CTL1_RESET_PERIPH(RST_CTL1_bit));   
##@@@L0092_:    CHECK_RESTRICTION(CHECK_FUNCTIONAL_STATE(NewState));   
##@@@L0093_:
##@@@L0094_:    if (NewState != FALSE)   
##@@@L0095_:    {   
##@@@L0096_:        RST_CTL1 |= RST_CTL1_bit;   
     92c:	00 d7       	ORL       R0, R0, R4
     92e:	68 a0       	ST.W      [R5 + #1], R0
##@@@P_:kf32f_basic_rst.c:102
##@@@L0097_:    }   
##@@@L0098_:    else   
##@@@L0099_:    {   
##@@@L0100_:        RST_CTL1 &= ~RST_CTL1_bit;   
##@@@L0101_:    }   
##@@@L0102_:}   
     930:	1d 5c       	JMP       LR
	...

00000934 <RST_CTL2_Peripheral_Reset_Enable>:
##@@@F_:RST_CTL2_Peripheral_Reset_Enable():
##@@@P_:kf32f_basic_rst.c:138
##@@@L0133_:    CHECK_RESTRICTION(CHECK_RST_CTL2_RESET_PERIPH(RST_CTL2_bit));   
##@@@L0134_:    CHECK_RESTRICTION(CHECK_FUNCTIONAL_STATE(NewState));   
##@@@L0135_:
##@@@L0136_:    if (NewState != FALSE)   
##@@@L0137_:    {   
##@@@L0138_:        RST_CTL2 |= RST_CTL2_bit;   
     934:	04 45       	LD        R5, [PC + #4]         ;->0x944  :=0x40001500
     936:	a5 98       	LD.W      R4, [R5 + #2]
##@@@P_:kf32f_basic_rst.c:136
##@@@L0131_:{   
##@@@L0132_:    /* ▓╬╩²ąŻčķ */   
##@@@L0133_:    CHECK_RESTRICTION(CHECK_RST_CTL2_RESET_PERIPH(RST_CTL2_bit));   
##@@@L0134_:    CHECK_RESTRICTION(CHECK_FUNCTIONAL_STATE(NewState));   
##@@@L0135_:
##@@@L0136_:    if (NewState != FALSE)   
     938:	10 38       	CMP       R1, #0			;->0x00
     93a:	07 f1       	JNZ       $+7                   ;->0x948
##@@@P_:kf32f_basic_rst.c:142
##@@@L0137_:    {   
##@@@L0138_:        RST_CTL2 |= RST_CTL2_bit;   
##@@@L0139_:    }   
##@@@L0140_:    else   
##@@@L0141_:    {   
##@@@L0142_:        RST_CTL2 &= ~RST_CTL2_bit;   
     93c:	00 68       	NOT       R0, R0
     93e:	00 d5       	ANL       R0, R0, R4
     940:	a8 a0       	ST.W      [R5 + #2], R0
##@@@P_:kf32f_basic_rst.c:144
##@@@L0143_:    }   
##@@@L0144_:}   
     942:	1d 5c       	JMP       LR
     944:	00 15 00 40 	.long     0x40001500 ->1073747200  [!!!@2@:MOV       R0, #80	@@: LD        R0, [PC + #0]         ;->0x944  :=0x40001500
##@@@P_:kf32f_basic_rst.c:138
##@@@L0133_:    CHECK_RESTRICTION(CHECK_RST_CTL2_RESET_PERIPH(RST_CTL2_bit));   
##@@@L0134_:    CHECK_RESTRICTION(CHECK_FUNCTIONAL_STATE(NewState));   
##@@@L0135_:
##@@@L0136_:    if (NewState != FALSE)   
##@@@L0137_:    {   
##@@@L0138_:        RST_CTL2 |= RST_CTL2_bit;   
     948:	00 d7       	ORL       R0, R0, R4
     94a:	a8 a0       	ST.W      [R5 + #2], R0
##@@@P_:kf32f_basic_rst.c:144
##@@@L0139_:    }   
##@@@L0140_:    else   
##@@@L0141_:    {   
##@@@L0142_:        RST_CTL2 &= ~RST_CTL2_bit;   
##@@@L0143_:    }   
##@@@L0144_:}   
     94c:	1d 5c       	JMP       LR
	...

00000950 <USART_Reset>:
##@@@F_:USART_Reset():
##@@@P_:kf32f_basic_usart.c:2381
##@@@L2376_:
##@@@L2377_:    /*---------------- Ķ«ŠńĮ«USART_STRÕ»äÕŁśÕÖ©RCFRõĮŹ ----------------*/   
##@@@L2378_:    SFR_SET_BIT_ASM(USARTx->STR, USART_STR_RCFR_POS);   
##@@@L2379_:    while(USARTx->STR & USART_STR_RDRIF);   
##@@@L2380_:    SFR_CLR_BIT_ASM(USARTx->STR, USART_STR_RCFR_POS);   
##@@@L2381_:}   
     950:	81 5f       	PUSH      {R6,LR}
     952:	c0 58       	MOV       R6, R0
     954:	0e 45       	LD        R5, [PC + #14]        ;->0x98c  :=0x40000980
     956:	05 70       	CMP       R0, R5
     958:	3c f0       	JZ        $+60                  ;->0x9d0
     95a:	0e 45       	LD        R5, [PC + #14]        ;->0x990  :=0x40000a00
     95c:	05 70       	CMP       R0, R5
     95e:	49 f0       	JZ        $+73                  ;->0x9f0
     960:	0d 45       	LD        R5, [PC + #13]        ;->0x994  :=0x40000a80
     962:	05 70       	CMP       R0, R5
     964:	56 f0       	JZ        $+86                  ;->0xa10
     966:	0d 45       	LD        R5, [PC + #13]        ;->0x998  :=0x40000b00
     968:	05 70       	CMP       R0, R5
     96a:	63 f0       	JZ        $+99                  ;->0xa30
     96c:	0c 45       	LD        R5, [PC + #12]        ;->0x99c  :=0x40000b80
     96e:	05 70       	CMP       R0, R5
     970:	70 f0       	JZ        $+112                 ;->0xa50
     972:	0c 45       	LD        R5, [PC + #12]        ;->0x9a0  :=0x40001e80
     974:	65 70       	CMP       R6, R5
     976:	7d f0       	JZ        $+125                 ;->0xa70
     978:	0b 45       	LD        R5, [PC + #11]        ;->0x9a4  :=0x40001f00
     97a:	65 70       	CMP       R6, R5
     97c:	02 f1       	JNZ       $+2                   ;->0x980
     97e:	89 04       	SJMP      $+137                 ;->0xa90
     980:	0a 45       	LD        R5, [PC + #10]        ;->0x9a8  :=0x40001f80
     982:	65 70       	CMP       R6, R5
     984:	14 f0       	JZ        $+20                  ;->0x9ac
     986:	06 5d       	POP       R6
     988:	0d 5d       	POP       LR
     98a:	1d 5c       	JMP       LR
     98c:	80 09 00 40 	.long     0x40000980 ->1073744256  [!!!@2@:LD.W      R1, [SP + #128]	@@: LD        R0, [PC + #0]         ;->0x98c  :=0x40000980
     990:	00 0a 00 40 	.long     0x40000a00 ->1073744384  [!!!@2@:LD.W      R2, [SP + #0]	@@: LD        R0, [PC + #0]         ;->0x990  :=0x40000a00
     994:	80 0a 00 40 	.long     0x40000a80 ->1073744512  [!!!@2@:LD.W      R2, [SP + #128]	@@: LD        R0, [PC + #0]         ;->0x994  :=0x40000a80
     998:	00 0b 00 40 	.long     0x40000b00 ->1073744640  [!!!@2@:LD.W      R3, [SP + #0]	@@: LD        R0, [PC + #0]         ;->0x998  :=0x40000b00
     99c:	80 0b 00 40 	.long     0x40000b80 ->1073744768  [!!!@2@:LD.W      R3, [SP + #128]	@@: LD        R0, [PC + #0]         ;->0x99c  :=0x40000b80
     9a0:	80 1e 00 40 	.long     0x40001e80 ->1073749632  [!!!@2@:MOV       R8, #224	@@: LD        R0, [PC + #0]         ;->0x9a0  :=0x40001e80
     9a4:	00 1f 00 40 	.long     0x40001f00 ->1073749760  [!!!@2@:MOV       R0, #240	@@: LD        R0, [PC + #0]         ;->0x9a4  :=0x40001f00
     9a8:	80 1f 00 40 	.long     0x40001f80 ->1073749888  [!!!@2@:MOV       R8, #240	@@: LD        R0, [PC + #0]         ;->0x9a8  :=0x40001f80
     9ac:	01 10       	MOV       R0, #1			;->0x0001
     9ae:	87 7b       	LSL       R0, #31			;->0x1F
     9b0:	11 10       	MOV       R1, #1			;->0x0001
     9b2:	9f 00 c1 ff 	LJMP      $-63      ;->0x934  934 <RST_CTL2_Peripheral_Reset_Enable>
     9b6:	01 10       	MOV       R0, #1			;->0x0001
     9b8:	87 7b       	LSL       R0, #31			;->0x1F
     9ba:	10 10       	MOV       R1, #0			;->0x0000
     9bc:	9f 00 bc ff 	LJMP      $-68      ;->0x934  934 <RST_CTL2_Peripheral_Reset_Enable>
     9c0:	01 10       	MOV       R0, #1			;->0x0001
     9c2:	87 7b       	LSL       R0, #31			;->0x1F
     9c4:	11 10       	MOV       R1, #1			;->0x0001
     9c6:	9f 00 9b ff 	LJMP      $-101     ;->0x8fc  8fc <PCLK_CTL2_Peripheral_Clock_Enable>
     9ca:	06 5d       	POP       R6
     9cc:	0d 5d       	POP       LR
     9ce:	1d 5c       	JMP       LR
     9d0:	01 10       	MOV       R0, #1			;->0x0001
     9d2:	03 7b       	LSL       R0, #19			;->0x13
     9d4:	11 10       	MOV       R1, #1			;->0x0001
     9d6:	9f 00 a1 ff 	LJMP      $-95      ;->0x918  918 <RST_CTL1_Peripheral_Reset_Enable>
     9da:	01 10       	MOV       R0, #1			;->0x0001
     9dc:	03 7b       	LSL       R0, #19			;->0x13
     9de:	10 10       	MOV       R1, #0			;->0x0000
     9e0:	9f 00 9c ff 	LJMP      $-100     ;->0x918  918 <RST_CTL1_Peripheral_Reset_Enable>
     9e4:	01 10       	MOV       R0, #1			;->0x0001
     9e6:	03 7b       	LSL       R0, #19			;->0x13
     9e8:	11 10       	MOV       R1, #1			;->0x0001
     9ea:	9f 00 7b ff 	LJMP      $-133     ;->0x8e0  8e0 <PCLK_CTL1_Peripheral_Clock_Enable>
     9ee:	c2 07       	SJMP      $-62                  ;->0x972
     9f0:	01 10       	MOV       R0, #1			;->0x0001
     9f2:	04 7b       	LSL       R0, #20			;->0x14
     9f4:	11 10       	MOV       R1, #1			;->0x0001
     9f6:	9f 00 91 ff 	LJMP      $-111     ;->0x918  918 <RST_CTL1_Peripheral_Reset_Enable>
     9fa:	01 10       	MOV       R0, #1			;->0x0001
     9fc:	04 7b       	LSL       R0, #20			;->0x14
     9fe:	10 10       	MOV       R1, #0			;->0x0000
     a00:	9f 00 8c ff 	LJMP      $-116     ;->0x918  918 <RST_CTL1_Peripheral_Reset_Enable>
     a04:	01 10       	MOV       R0, #1			;->0x0001
     a06:	04 7b       	LSL       R0, #20			;->0x14
     a08:	11 10       	MOV       R1, #1			;->0x0001
     a0a:	9f 00 6b ff 	LJMP      $-149     ;->0x8e0  8e0 <PCLK_CTL1_Peripheral_Clock_Enable>
     a0e:	b2 07       	SJMP      $-78                  ;->0x972
     a10:	01 10       	MOV       R0, #1			;->0x0001
     a12:	05 7b       	LSL       R0, #21			;->0x15
     a14:	11 10       	MOV       R1, #1			;->0x0001
     a16:	9f 00 81 ff 	LJMP      $-127     ;->0x918  918 <RST_CTL1_Peripheral_Reset_Enable>
     a1a:	01 10       	MOV       R0, #1			;->0x0001
     a1c:	05 7b       	LSL       R0, #21			;->0x15
     a1e:	10 10       	MOV       R1, #0			;->0x0000
     a20:	9f 00 7c ff 	LJMP      $-132     ;->0x918  918 <RST_CTL1_Peripheral_Reset_Enable>
     a24:	01 10       	MOV       R0, #1			;->0x0001
     a26:	05 7b       	LSL       R0, #21			;->0x15
     a28:	11 10       	MOV       R1, #1			;->0x0001
     a2a:	9f 00 5b ff 	LJMP      $-165     ;->0x8e0  8e0 <PCLK_CTL1_Peripheral_Clock_Enable>
     a2e:	a5 07       	SJMP      $-91                  ;->0x978
     a30:	01 10       	MOV       R0, #1			;->0x0001
     a32:	06 7b       	LSL       R0, #22			;->0x16
     a34:	11 10       	MOV       R1, #1			;->0x0001
     a36:	9f 00 71 ff 	LJMP      $-143     ;->0x918  918 <RST_CTL1_Peripheral_Reset_Enable>
     a3a:	01 10       	MOV       R0, #1			;->0x0001
     a3c:	06 7b       	LSL       R0, #22			;->0x16
     a3e:	10 10       	MOV       R1, #0			;->0x0000
     a40:	9f 00 6c ff 	LJMP      $-148     ;->0x918  918 <RST_CTL1_Peripheral_Reset_Enable>
     a44:	01 10       	MOV       R0, #1			;->0x0001
     a46:	06 7b       	LSL       R0, #22			;->0x16
     a48:	11 10       	MOV       R1, #1			;->0x0001
     a4a:	9f 00 4b ff 	LJMP      $-181     ;->0x8e0  8e0 <PCLK_CTL1_Peripheral_Clock_Enable>
     a4e:	9c 07       	SJMP      $-100                 ;->0x986
     a50:	01 10       	MOV       R0, #1			;->0x0001
     a52:	07 7b       	LSL       R0, #23			;->0x17
     a54:	11 10       	MOV       R1, #1			;->0x0001
     a56:	9f 00 61 ff 	LJMP      $-159     ;->0x918  918 <RST_CTL1_Peripheral_Reset_Enable>
     a5a:	01 10       	MOV       R0, #1			;->0x0001
     a5c:	07 7b       	LSL       R0, #23			;->0x17
     a5e:	10 10       	MOV       R1, #0			;->0x0000
     a60:	9f 00 5c ff 	LJMP      $-164     ;->0x918  918 <RST_CTL1_Peripheral_Reset_Enable>
     a64:	01 10       	MOV       R0, #1			;->0x0001
     a66:	07 7b       	LSL       R0, #23			;->0x17
     a68:	11 10       	MOV       R1, #1			;->0x0001
     a6a:	9f 00 3b ff 	LJMP      $-197     ;->0x8e0  8e0 <PCLK_CTL1_Peripheral_Clock_Enable>
     a6e:	8c 07       	SJMP      $-116                 ;->0x986
     a70:	01 10       	MOV       R0, #1			;->0x0001
     a72:	85 7b       	LSL       R0, #29			;->0x1D
     a74:	11 10       	MOV       R1, #1			;->0x0001
     a76:	9f 00 5f ff 	LJMP      $-161     ;->0x934  934 <RST_CTL2_Peripheral_Reset_Enable>
     a7a:	01 10       	MOV       R0, #1			;->0x0001
     a7c:	85 7b       	LSL       R0, #29			;->0x1D
     a7e:	10 10       	MOV       R1, #0			;->0x0000
     a80:	9f 00 5a ff 	LJMP      $-166     ;->0x934  934 <RST_CTL2_Peripheral_Reset_Enable>
     a84:	01 10       	MOV       R0, #1			;->0x0001
     a86:	85 7b       	LSL       R0, #29			;->0x1D
     a88:	11 10       	MOV       R1, #1			;->0x0001
     a8a:	9f 00 39 ff 	LJMP      $-199     ;->0x8fc  8fc <PCLK_CTL2_Peripheral_Clock_Enable>
     a8e:	7c 07       	SJMP      $-132                 ;->0x986
     a90:	01 10       	MOV       R0, #1			;->0x0001
     a92:	86 7b       	LSL       R0, #30			;->0x1E
     a94:	11 10       	MOV       R1, #1			;->0x0001
     a96:	9f 00 4f ff 	LJMP      $-177     ;->0x934  934 <RST_CTL2_Peripheral_Reset_Enable>
     a9a:	01 10       	MOV       R0, #1			;->0x0001
     a9c:	86 7b       	LSL       R0, #30			;->0x1E
     a9e:	10 10       	MOV       R1, #0			;->0x0000
     aa0:	9f 00 4a ff 	LJMP      $-182     ;->0x934  934 <RST_CTL2_Peripheral_Reset_Enable>
     aa4:	01 10       	MOV       R0, #1			;->0x0001
     aa6:	86 7b       	LSL       R0, #30			;->0x1E
     aa8:	11 10       	MOV       R1, #1			;->0x0001
     aaa:	9f 00 29 ff 	LJMP      $-215     ;->0x8fc  8fc <PCLK_CTL2_Peripheral_Clock_Enable>
     aae:	6c 07       	SJMP      $-148                 ;->0x986

00000ab0 <USART_Configuration>:
##@@@F_:USART_Configuration():
     ab0:	30 82       	LD.W      R3, [R0]
     ab2:	51 98       	LD.W      R2, [R1 + #1]
     ab4:	41 82       	LD.W      R4, [R1]
     ab6:	2a d7       	ORL       R5, R2, R4
     ab8:	91 98       	LD.W      R2, [R1 + #2]
     aba:	ad d6       	ORL       R5, R5, R2
     abc:	e1 98       	LD.W      R4, [R1 + #3]
     abe:	2d d7       	ORL       R5, R5, R4
     ac0:	51 99       	LD.W      R2, [R1 + #5]
     ac2:	ad d6       	ORL       R5, R5, R2
     ac4:	21 99       	LD.W      R4, [R1 + #4]
     ac6:	2d d7       	ORL       R5, R5, R4
     ac8:	d1 99       	LD.W      R2, [R1 + #7]
     aca:	ad d6       	ORL       R5, R5, R2
     acc:	21 9a       	LD.W      R4, [R1 + #8]
     ace:	2d d7       	ORL       R5, R5, R4
     ad0:	91 99       	LD.W      R2, [R1 + #6]
     ad2:	ad d6       	ORL       R5, R5, R2
     ad4:	61 9a       	LD.W      R4, [R1 + #9]
     ad6:	2d d7       	ORL       R5, R5, R4
     ad8:	91 9a       	LD.W      R2, [R1 + #10]
     ada:	ad d6       	ORL       R5, R5, R2
     adc:	a1 ad       	LD.H      R4, [R1 + #22]
     ade:	2d d7       	ORL       R5, R5, R4
##@@@F_:SFR_Config():
     ae0:	09 44       	LD        R4, [PC + #9]         ;->0xb04  :=0xfcca3eff
     ae2:	23 d5       	ANL       R4, R3, R4
     ae4:	2d d7       	ORL       R5, R5, R4
##@@@F_:USART_Configuration():
     ae6:	05 85       	ST.W      [R0], R5
     ae8:	60 98       	LD.W      R4, [R0 + #1]
##@@@F_:SFR_Config():
     aea:	08 45       	LD        R5, [PC + #8]         ;->0xb08  :=0xff000000
     aec:	6c d5       	ANL       R5, R4, R5
##@@@F_:USART_Configuration():
     aee:	e1 ad       	LD.H      R4, [R1 + #23]
     af0:	2d d7       	ORL       R5, R5, R4
     af2:	21 ae       	LD.H      R4, [R1 + #24]
     af4:	20 7b       	LSL       R4, #16			;->0x10
     af6:	2d d7       	ORL       R5, R5, R4
     af8:	61 ae       	LD.H      R4, [R1 + #25]
     afa:	24 7b       	LSL       R4, #20			;->0x14
##@@@F_:SFR_Config():
     afc:	2d d7       	ORL       R5, R5, R4
##@@@F_:USART_Configuration():
     afe:	45 a0       	ST.W      [R0 + #1], R5
     b00:	1d 5c       	JMP       LR
     b02:	00 00       	NOP      NOP      
     b04:	ff 3e ca fc 	.long     0xfcca3eff ->-53854465  [!!!@2@:CMP       PC, #111	@@: JGT       $-54                  ;->0xa98
     b08:	00 00 00 ff 	.long     0xff000000 ->-16777216 

00000b0c <USART_Struct_Init>:
##@@@F_:USART_Struct_Init():
     b0c:	50 10       	MOV       R5, #0			;->0x0000
     b0e:	05 85       	ST.W      [R0], R5
     b10:	45 a0       	ST.W      [R0 + #1], R5
     b12:	41 10       	MOV       R4, #1			;->0x0001
     b14:	a7 7a       	LSL       R4, #15			;->0x0F
     b16:	84 a0       	ST.W      [R0 + #2], R4
     b18:	c5 a0       	ST.W      [R0 + #3], R5
     b1a:	05 a1       	ST.W      [R0 + #4], R5
     b1c:	45 a1       	ST.W      [R0 + #5], R5
     b1e:	85 a1       	ST.W      [R0 + #6], R5
     b20:	c5 a1       	ST.W      [R0 + #7], R5
     b22:	05 a2       	ST.W      [R0 + #8], R5
     b24:	45 a2       	ST.W      [R0 + #9], R5
     b26:	85 a2       	ST.W      [R0 + #10], R5
     b28:	85 b5       	ST.H      [R0 + #22], R5
     b2a:	41 10       	MOV       R4, #1			;->0x0001
     b2c:	c4 b5       	ST.H      [R0 + #23], R4
     b2e:	05 b6       	ST.H      [R0 + #24], R5
     b30:	44 b6       	ST.H      [R0 + #25], R4
     b32:	1d 5c       	JMP       LR

00000b34 <USART_Cmd>:
##@@@F_:USART_Cmd():
     b34:	10 38       	CMP       R1, #0			;->0x00
     b36:	03 f1       	JNZ       $+3                   ;->0xb3c
     b38:	00 4e       	CLR       [R0], #0			;->0x00
     b3a:	1d 5c       	JMP       LR
     b3c:	00 4c       	SET       [R0], #0			;->0x00
     b3e:	1d 5c       	JMP       LR

00000b40 <USART_RESHD_Enable>:
##@@@F_:USART_RESHD_Enable():
     b40:	10 38       	CMP       R1, #0			;->0x00
     b42:	03 f1       	JNZ       $+3                   ;->0xb48
     b44:	86 4f       	CLR       [R0], #30			;->0x1E
     b46:	1d 5c       	JMP       LR
     b48:	86 4d       	SET       [R0], #30			;->0x1E
     b4a:	1d 5c       	JMP       LR

00000b4c <USART_Passageway_Select_Config>:
##@@@F_:USART_Passageway_Select_Config():
     b4c:	00 29       	ADD       R0, #16			;->0x10
     b4e:	10 38       	CMP       R1, #0			;->0x00
     b50:	03 f1       	JNZ       $+3                   ;->0xb56
     b52:	04 4e       	CLR       [R0], #4			;->0x04
     b54:	1d 5c       	JMP       LR
     b56:	04 4c       	SET       [R0], #4			;->0x04
     b58:	1d 5c       	JMP       LR

00000b5a <USART_Clear_Transmit_BUFR_INT_Flag>:
##@@@F_:USART_Clear_Transmit_BUFR_INT_Flag():
##@@@P_:kf32f_basic_usart.c:2395
##@@@L2390_:{   
##@@@L2391_:    /* ÕÅéµĢ░µĀĪķ¬ī */   
##@@@L2392_:    CHECK_RESTRICTION(CHECK_USART_ALL_PERIPH(USARTx));   
##@@@L2393_:
##@@@L2394_:    /*---------------- Ķ«ŠńĮ«USART_STRÕ»äÕŁśÕÖ©TXFRõĮŹ ----------------*/   
##@@@L2395_:    SFR_SET_BIT_ASM(USARTx->STR, USART_STR_TXFR_POS);   
     b5a:	58 10       	MOV       R5, #8			;->0x0008
     b5c:	58 c3       	ADD       R3, R0, R5
     b5e:	9a 4c       	SET       [R3], #10			;->0x0A
##@@@P_:kf32f_basic_usart.c:2396
##@@@L2396_:    while(!((USARTx->STR & USART_STR_TFEIF)>>USART_STR_TFEIF_POS));   
     b60:	41 10       	MOV       R4, #1			;->0x0001
     b62:	a4 7a       	LSL       R4, #12			;->0x0C
##@@@P_:kf32f_basic_usart.c:2396 (discriminator 1)
     b64:	a8 98       	LD.W      R5, [R0 + #2]
     b66:	2d d5       	ANL       R5, R5, R4
     b68:	fe f0       	JZ        $-2                   ;->0xb64
##@@@P_:kf32f_basic_usart.c:2397
##@@@L2397_:    SFR_CLR_BIT_ASM(USARTx->STR, USART_STR_TXFR_POS);   
     b6a:	9a 4e       	CLR       [R3], #10			;->0x0A
##@@@P_:kf32f_basic_usart.c:2398
##@@@L2398_:}   
     b6c:	1d 5c       	JMP       LR
	...

00000b70 <startup>:
##@@@F_:startup():
##@@@P_:startup.c:8
##@@@L0003_:extern unsigned char __bss_end__;   
##@@@L0004_:extern unsigned char __data_start__;   
##@@@L0005_:extern void main();   
##@@@L0006_:
##@@@L0007_:void startup()   
##@@@L0008_:{   
     b70:	2d 5d       	PUSH      LR
##@@@P_:startup.c:14
##@@@L0009_:	unsigned char length;   
##@@@L0010_:	unsigned int *s,*begin,*end;   
##@@@L0011_:	s = (unsigned int*)&__text_end__;   
##@@@L0012_:	begin = (unsigned int*)&__data_start__;   
##@@@L0013_:	end = (unsigned int*)&__bss_start__;   
##@@@L0014_:	while(begin < end)   
     b72:	12 45       	LD        R5, [PC + #18]        ;->0xbb8  :=0x10000000
     b74:	12 41       	LD        R1, [PC + #18]        ;->0xbbc  :=0x100002a0
     b76:	15 70       	CMP       R1, R5
     b78:	0d f9       	JLS       $+13                  ;->0xb92
     b7a:	12 44       	LD        R4, [PC + #18]        ;->0xbc0  :=0x14b4
##@@@P_:startup.c:7
##@@@L0002_:extern unsigned char __bss_start__;   
##@@@L0003_:extern unsigned char __bss_end__;   
##@@@L0004_:extern unsigned char __data_start__;   
##@@@L0005_:extern void main();   
##@@@L0006_:
##@@@L0007_:void startup()   
     b7c:	12 43       	LD        R3, [PC + #18]        ;->0xbc4  :=0x10000004
     b7e:	13 42       	LD        R2, [PC + #19]        ;->0xbc8  :=0x100002a3
     b80:	d2 c6       	SUB       R2, R2, R3
     b82:	12 7c       	LSR       R2, #2			;->0x02
     b84:	52 c0       	ADD       R2, R2, #1
     b86:	12 7a       	LSL       R2, #2			;->0x02
     b88:	52 c3       	ADD       R2, R2, R5
##@@@P_:startup.c:15
##@@@L0010_:	unsigned int *s,*begin,*end;   
##@@@L0011_:	s = (unsigned int*)&__text_end__;   
##@@@L0012_:	begin = (unsigned int*)&__data_start__;   
##@@@L0013_:	end = (unsigned int*)&__bss_start__;   
##@@@L0014_:	while(begin < end)   
##@@@L0015_:		*begin++ = *s++;   
     b8a:	34 72       	LD.W      R3, [R4++]
     b8c:	53 73       	ST.W      [R5++], R3
##@@@P_:startup.c:14
##@@@L0009_:	unsigned char length;   
##@@@L0010_:	unsigned int *s,*begin,*end;   
##@@@L0011_:	s = (unsigned int*)&__text_end__;   
##@@@L0012_:	begin = (unsigned int*)&__data_start__;   
##@@@L0013_:	end = (unsigned int*)&__bss_start__;   
##@@@L0014_:	while(begin < end)   
     b8e:	52 70       	CMP       R5, R2
     b90:	fd f1       	JNZ       $-3                   ;->0xb8a
##@@@P_:startup.c:19
##@@@L0015_:		*begin++ = *s++;   
##@@@L0016_:	   
##@@@L0017_:	begin = (unsigned int*)&__bss_start__;   
##@@@L0018_:	end = (unsigned int*)&__bss_end__;   
##@@@L0019_:	while(begin < end)   
     b92:	0b 45       	LD        R5, [PC + #11]        ;->0xbbc  :=0x100002a0
     b94:	0e 44       	LD        R4, [PC + #14]        ;->0xbcc  :=0x100002c8
     b96:	41 70       	CMP       R4, R1
     b98:	0c f9       	JLS       $+12                  ;->0xbb0
##@@@P_:startup.c:7
##@@@L0002_:extern unsigned char __bss_start__;   
##@@@L0003_:extern unsigned char __bss_end__;   
##@@@L0004_:extern unsigned char __data_start__;   
##@@@L0005_:extern void main();   
##@@@L0006_:
##@@@L0007_:void startup()   
     b9a:	0e 44       	LD        R4, [PC + #14]        ;->0xbd0  :=0x100002a4
     b9c:	0e 43       	LD        R3, [PC + #14]        ;->0xbd4  :=0x100002cb
     b9e:	1b c7       	SUB       R3, R3, R4
     ba0:	1a 7c       	LSR       R3, #2			;->0x02
     ba2:	5b c0       	ADD       R3, R3, #1
     ba4:	1a 7a       	LSL       R3, #2			;->0x02
     ba6:	5b c3       	ADD       R3, R3, R5
##@@@P_:startup.c:20
##@@@L0015_:		*begin++ = *s++;   
##@@@L0016_:	   
##@@@L0017_:	begin = (unsigned int*)&__bss_start__;   
##@@@L0018_:	end = (unsigned int*)&__bss_end__;   
##@@@L0019_:	while(begin < end)   
##@@@L0020_:		*begin++ = 0;   
     ba8:	40 10       	MOV       R4, #0			;->0x0000
     baa:	54 73       	ST.W      [R5++], R4
##@@@P_:startup.c:19
##@@@L0014_:	while(begin < end)   
##@@@L0015_:		*begin++ = *s++;   
##@@@L0016_:	   
##@@@L0017_:	begin = (unsigned int*)&__bss_start__;   
##@@@L0018_:	end = (unsigned int*)&__bss_end__;   
##@@@L0019_:	while(begin < end)   
     bac:	53 70       	CMP       R5, R3
     bae:	fe f1       	JNZ       $-2                   ;->0xbaa
##@@@P_:startup.c:21
##@@@L0020_:		*begin++ = 0;   
##@@@L0021_:	main();   
     bb0:	9f 00 34 fc 	LJMP      $-972     ;->0x418  418 <main>
##@@@P_:startup.c:22
     bb4:	0d 5d       	POP       LR
     bb6:	1d 5c       	JMP       LR
     bb8:	00 00 00 10 	.long     0x10000000 ->268435456  [!!!@2@:NOP      	@@: MOV       R0, #0
     bbc:	a0 02 00 10 	.long     0x100002a0 ->268436128  [!!!@2@:SVC       SVC, #160	@@: MOV       R0, #0
     bc0:	b4 14 00 00 	.long     0x000014b4 ->000005300  [!!!@2@:MOV       R11, #68	@@: NOP      
     bc4:	04 00 00 10 	.long     0x10000004 ->268435460 
     bc8:	a3 02 00 10 	.long     0x100002a3 ->268436131  [!!!@2@:SVC       SVC, #163	@@: MOV       R0, #0
     bcc:	c8 02 00 10 	.long     0x100002c8 ->268436168  [!!!@2@:SVC       SVC, #200	@@: MOV       R0, #0
     bd0:	a4 02 00 10 	.long     0x100002a4 ->268436132  [!!!@2@:SVC       SVC, #164	@@: MOV       R0, #0
     bd4:	cb 02 00 10 	.long     0x100002cb ->268436171  [!!!@2@:SVC       SVC, #203	@@: MOV       R0, #0

00000bd8 <printf>:
##@@@F_:printf():
##@@@P_:printf.c:8
     bd8:	24 5d       	PUSH      R4
     bda:	23 5d       	PUSH      R3
     bdc:	22 5d       	PUSH      R2
     bde:	21 5d       	PUSH      R1
     be0:	20 5d       	PUSH      R0
     be2:	2d 5d       	PUSH      LR
##@@@P_:printf.c:11
     be4:	05 40       	LD        R0, [PC + #5]         ;->0xbf8  :=0x40000980
     be6:	01 09       	LD.W      R1, [SP + #1]
     be8:	4e 58       	MOV       R2, SP
     bea:	28 28       	ADD       R2, #8			;->0x08
     bec:	80 00 08 00 	LJMP      $+8       ;->0xbfc  bfc <vfprintf>
##@@@P_:printf.c:12
     bf0:	0d 5d       	POP       LR
     bf2:	e4 29       	ADD       SP, #20			;->0x14
     bf4:	1d 5c       	JMP       LR
     bf6:	00 00       	NOP      NOP      
     bf8:	80 09 00 40 	.long     0x40000980 ->1073744256  [!!!@2@:LD.W      R1, [SP + #128]	@@: LD        R0, [PC + #0]         ;->0xbf8  :=0x40000980

00000bfc <vfprintf>:
##@@@F_:vfprintf():
##@@@P_:vfprintf.c:43
     bfc:	ff 5f       	PUSH      {R6-R12,LR}
     bfe:	ec 33       	SUB       SP, #60			;->0x3C
     c00:	0b 20       	ST.W      [SP + #11], R0
     c02:	82 59       	MOV       R12, R2
##@@@P_:vfprintf.c:84
     c04:	e1 58       	MOV       R7, R1
##@@@P_:vfprintf.c:75
     c06:	00 10       	MOV       R0, #0			;->0x0000
     c08:	0a 20       	ST.W      [SP + #10], R0
##@@@P_:vfprintf.c:86
     c0a:	18 05       	SJMP      $+280                 ;->0xe3a
##@@@P_:vfprintf.c:90
     c0c:	05 3a       	CMP       R0, #37			;->0x25
     c0e:	02 f0       	JZ        $+2                   ;->0xc12
     c10:	0c 05       	SJMP      $+268                 ;->0xe28
##@@@P_:vfprintf.c:121
     c12:	47 88       	LD.B      R0, [R7 + #1]
     c14:	05 3a       	CMP       R0, #37			;->0x25
     c16:	09 f1       	JNZ       $+9                   ;->0xc28
##@@@P_:vfprintf.c:123
     c18:	0b 09       	LD.W      R1, [SP + #11]
     c1a:	80 00 81 03 	LJMP      $+897     ;->0x131c  131c <fputchar>
##@@@P_:vfprintf.c:124
     c1e:	0a 09       	LD.W      R1, [SP + #10]
     c20:	49 c0       	ADD       R1, R1, #1
     c22:	0a 21       	ST.W      [SP + #10], R1
##@@@P_:vfprintf.c:125
     c24:	bf c0       	ADD       R7, R7, #2
##@@@P_:vfprintf.c:126
     c26:	0a 05       	SJMP      $+266                 ;->0xe3a
##@@@P_:vfprintf.c:131
     c28:	00 3b       	CMP       R0, #48			;->0x30
     c2a:	05 f0       	JZ        $+5                   ;->0xc34
##@@@P_:vfprintf.c:117
     c2c:	7f c0       	ADD       R7, R7, #1
##@@@P_:vfprintf.c:106
     c2e:	40 12       	MOV       R4, #32			;->0x0020
     c30:	0c 24       	ST.W      [SP + #12], R4
     c32:	03 04       	SJMP      $+3                   ;->0xc38
##@@@P_:vfprintf.c:134
     c34:	bf c0       	ADD       R7, R7, #2
##@@@P_:vfprintf.c:133
     c36:	0c 20       	ST.W      [SP + #12], R0
##@@@P_:vfprintf.c:136
     c38:	57 80       	LD.B      R5, [R7]
##@@@P_:vfprintf.c:105
     c3a:	40 10       	MOV       R4, #0			;->0x0000
     c3c:	0d 24       	ST.W      [SP + #13], R4
##@@@P_:vfprintf.c:136
     c3e:	5d 3a       	CMP       R5, #45			;->0x2D
     c40:	04 f1       	JNZ       $+4                   ;->0xc48
##@@@P_:vfprintf.c:139
     c42:	7f c0       	ADD       R7, R7, #1
##@@@P_:vfprintf.c:138
     c44:	01 10       	MOV       R0, #1			;->0x0001
     c46:	0d 20       	ST.W      [SP + #13], R0
##@@@P_:vfprintf.c:144
     c48:	57 80       	LD.B      R5, [R7]
##@@@P_:vfprintf.c:115
     c4a:	bb 12       	MOV       R11, #43			;->0x002B
##@@@P_:vfprintf.c:114
     c4c:	60 10       	MOV       R6, #0			;->0x0000
##@@@P_:vfprintf.c:144
     c4e:	50 3a       	CMP       R5, #32			;->0x20
     c50:	04 f1       	JNZ       $+4                   ;->0xc58
##@@@P_:vfprintf.c:148
     c52:	7f c0       	ADD       R7, R7, #1
##@@@P_:vfprintf.c:147
     c54:	65 59       	MOV       R11, R5
##@@@P_:vfprintf.c:146
     c56:	61 10       	MOV       R6, #1			;->0x0001
##@@@P_:vfprintf.c:151
     c58:	57 80       	LD.B      R5, [R7]
     c5a:	5b 3a       	CMP       R5, #43			;->0x2B
     c5c:	03 f1       	JNZ       $+3                   ;->0xc62
##@@@P_:vfprintf.c:154
     c5e:	7f c0       	ADD       R7, R7, #1
##@@@P_:vfprintf.c:153
     c60:	61 10       	MOV       R6, #1			;->0x0001
##@@@P_:vfprintf.c:160
     c62:	57 80       	LD.B      R5, [R7]
     c64:	51 33       	SUB       R5, #49			;->0x31
     c66:	55 d1       	ZXT.B     R5, R5
##@@@P_:vfprintf.c:104
     c68:	80 10       	MOV       R8, #0			;->0x0000
##@@@P_:vfprintf.c:160
     c6a:	58 38       	CMP       R5, #8			;->0x08
     c6c:	12 f8       	JHI       $+18                  ;->0xc90
     c6e:	a7 58       	MOV       R5, R7
##@@@P_:vfprintf.c:164
     c70:	2a 10       	MOV       R2, #10			;->0x000A
     c72:	08 04       	SJMP      $+8                   ;->0xc82
     c74:	28 58       	MOV       R1, R8
     c76:	99 ca       	MULS      R3, R1, R2
     c78:	00 00       	NOP      NOP      
     c7a:	30 33       	SUB       R3, #48			;->0x30
     c7c:	03 59       	MOV       R8, R3
     c7e:	84 64       	ADD       R8, R4
     c80:	88 d1       	ZXT.B     R8, R8
     c82:	e5 58       	MOV       R7, R5
##@@@P_:vfprintf.c:162 (discriminator 1)
     c84:	45 76       	LD.B      R4, [R5++]
     c86:	00 13       	MOV       R0, #48			;->0x0030
     c88:	1c c6       	SUB       R3, R4, R0
     c8a:	33 d1       	ZXT.B     R3, R3
     c8c:	39 38       	CMP       R3, #9			;->0x09
     c8e:	f3 f9       	JLS       $-13                  ;->0xc74
##@@@P_:vfprintf.c:171
     c90:	57 80       	LD.B      R5, [R7]
##@@@P_:vfprintf.c:110
     c92:	9f 1f       	MOV       R9, #255			;->0x00FF
##@@@P_:vfprintf.c:171
     c94:	5e 3a       	CMP       R5, #46			;->0x2E
     c96:	13 f1       	JNZ       $+19                  ;->0xcbc
##@@@P_:vfprintf.c:173
     c98:	6f c0       	ADD       R5, R7, #1
##@@@P_:vfprintf.c:174
     c9a:	90 10       	MOV       R9, #0			;->0x0000
##@@@P_:vfprintf.c:177
     c9c:	2a 10       	MOV       R2, #10			;->0x000A
##@@@P_:vfprintf.c:175
     c9e:	08 04       	SJMP      $+8                   ;->0xcae
##@@@P_:vfprintf.c:177
     ca0:	29 58       	MOV       R1, R9
     ca2:	99 ca       	MULS      R3, R1, R2
     ca4:	00 00       	NOP      NOP      
     ca6:	30 33       	SUB       R3, #48			;->0x30
     ca8:	23 59       	MOV       R9, R3
     caa:	94 64       	ADD       R9, R4
     cac:	99 d1       	ZXT.B     R9, R9
     cae:	e5 58       	MOV       R7, R5
##@@@P_:vfprintf.c:175 (discriminator 1)
     cb0:	45 76       	LD.B      R4, [R5++]
     cb2:	00 13       	MOV       R0, #48			;->0x0030
     cb4:	1c c6       	SUB       R3, R4, R0
     cb6:	33 d1       	ZXT.B     R3, R3
     cb8:	39 38       	CMP       R3, #9			;->0x09
     cba:	f3 f9       	JLS       $-13                  ;->0xca0
##@@@P_:vfprintf.c:185
     cbc:	57 80       	LD.B      R5, [R7]
     cbe:	5c 3e       	CMP       R5, #108			;->0x6C
     cc0:	05 f1       	JNZ       $+5                   ;->0xcca
##@@@P_:vfprintf.c:188
     cc2:	7f c0       	ADD       R7, R7, #1
##@@@P_:vfprintf.c:96
     cc4:	50 10       	MOV       R5, #0			;->0x0000
##@@@P_:vfprintf.c:187
     cc6:	11 10       	MOV       R1, #1			;->0x0001
     cc8:	09 04       	SJMP      $+9                   ;->0xcda
##@@@P_:vfprintf.c:190
     cca:	58 3e       	CMP       R5, #104			;->0x68
     ccc:	05 f1       	JNZ       $+5                   ;->0xcd6
##@@@P_:vfprintf.c:193
     cce:	7f c0       	ADD       R7, R7, #1
##@@@P_:vfprintf.c:192
     cd0:	51 10       	MOV       R5, #1			;->0x0001
##@@@P_:vfprintf.c:94
     cd2:	10 10       	MOV       R1, #0			;->0x0000
     cd4:	03 04       	SJMP      $+3                   ;->0xcda
##@@@P_:vfprintf.c:96
     cd6:	50 10       	MOV       R5, #0			;->0x0000
##@@@P_:vfprintf.c:94
     cd8:	25 58       	MOV       R1, R5
##@@@P_:vfprintf.c:196
     cda:	37 80       	LD.B      R3, [R7]
##@@@P_:vfprintf.c:99
     cdc:	40 10       	MOV       R4, #0			;->0x0000
##@@@P_:vfprintf.c:196
     cde:	35 3f       	CMP       R3, #117			;->0x75
     ce0:	03 f1       	JNZ       $+3                   ;->0xce6
##@@@P_:vfprintf.c:199
     ce2:	7f c0       	ADD       R7, R7, #1
##@@@P_:vfprintf.c:198
     ce4:	41 10       	MOV       R4, #1			;->0x0001
##@@@P_:vfprintf.c:202
     ce6:	07 80       	LD.B      R0, [R7]
     ce8:	03 3f       	CMP       R0, #115			;->0x73
     cea:	02 f1       	JNZ       $+2                   ;->0xcee
     cec:	d1 04       	SJMP      $+209                 ;->0xe8e
##@@@P_:vfprintf.c:209
     cee:	08 3f       	CMP       R0, #120			;->0x78
     cf0:	02 f1       	JNZ       $+2                   ;->0xcf4
     cf2:	b8 04       	SJMP      $+184                 ;->0xe62
##@@@P_:vfprintf.c:211
     cf4:	08 3d       	CMP       R0, #88			;->0x58
     cf6:	02 f1       	JNZ       $+2                   ;->0xcfa
     cf8:	b7 04       	SJMP      $+183                 ;->0xe66
##@@@P_:vfprintf.c:215
     cfa:	03 3e       	CMP       R0, #99			;->0x63
     cfc:	02 f1       	JNZ       $+2                   ;->0xd00
     cfe:	b7 04       	SJMP      $+183                 ;->0xe6c
##@@@P_:vfprintf.c:217
     d00:	0f 3e       	CMP       R0, #111			;->0x6F
     d02:	02 f1       	JNZ       $+2                   ;->0xd06
     d04:	b7 04       	SJMP      $+183                 ;->0xe72
##@@@P_:vfprintf.c:219
     d06:	02 3e       	CMP       R0, #98			;->0x62
     d08:	02 f1       	JNZ       $+2                   ;->0xd0c
     d0a:	b7 04       	SJMP      $+183                 ;->0xe78
##@@@P_:vfprintf.c:221
     d0c:	06 3e       	CMP       R0, #102			;->0x66
     d0e:	02 f1       	JNZ       $+2                   ;->0xd12
     d10:	9a 04       	SJMP      $+154                 ;->0xe44
##@@@P_:vfprintf.c:227
     d12:	04 3e       	CMP       R0, #100			;->0x64
     d14:	02 f1       	JNZ       $+2                   ;->0xd18
     d16:	b4 04       	SJMP      $+180                 ;->0xe7e
##@@@P_:vfprintf.c:227 (discriminator 1)
     d18:	09 3e       	CMP       R0, #105			;->0x69
     d1a:	02 f1       	JNZ       $+2                   ;->0xd1e
     d1c:	b1 04       	SJMP      $+177                 ;->0xe7e
##@@@P_:vfprintf.c:229
     d1e:	40 38       	CMP       R4, #0			;->0x00
     d20:	03 f0       	JZ        $+3                   ;->0xd26
##@@@P_:vfprintf.c:230
     d22:	7f cc       	SUB       R7, R7, #1
     d24:	ad 04       	SJMP      $+173                 ;->0xe7e
##@@@P_:vfprintf.c:239
     d26:	0b 09       	LD.W      R1, [SP + #11]
     d28:	80 00 fa 02 	LJMP      $+762     ;->0x131c  131c <fputchar>
##@@@P_:vfprintf.c:240
     d2c:	0a 09       	LD.W      R1, [SP + #10]
     d2e:	49 c0       	ADD       R1, R1, #1
     d30:	0a 21       	ST.W      [SP + #10], R1
##@@@P_:vfprintf.c:241
     d32:	7f c0       	ADD       R7, R7, #1
##@@@P_:vfprintf.c:242
     d34:	83 04       	SJMP      $+131                 ;->0xe3a
##@@@P_:vfprintf.c:284
     d36:	0c 82       	LD.W      R0, [R12]
     d38:	05 04       	SJMP      $+5                   ;->0xd42
     d3a:	0c 82       	LD.W      R0, [R12]
##@@@P_:vfprintf.c:286
     d3c:	50 38       	CMP       R5, #0			;->0x00
     d3e:	02 f0       	JZ        $+2                   ;->0xd42
##@@@P_:vfprintf.c:288
     d40:	00 d1       	ZXT.B     R0, R0
##@@@P_:vfprintf.c:294
     d42:	83 59       	MOV       R12, R3
##@@@P_:vfprintf.c:301
     d44:	20 38       	CMP       R2, #0			;->0x00
     d46:	13 f0       	JZ        $+19                  ;->0xd6c
##@@@P_:vfprintf.c:303
     d48:	40 38       	CMP       R4, #0			;->0x00
     d4a:	06 f0       	JZ        $+6                   ;->0xd56
##@@@P_:vfprintf.c:304
     d4c:	6e 58       	MOV       R3, SP
     d4e:	4b c0       	ADD       R1, R3, #1
     d50:	80 00 1e 02 	LJMP      $+542     ;->0x118c  118c <ultoa>
     d54:	05 04       	SJMP      $+5                   ;->0xd5e
##@@@P_:vfprintf.c:306
     d56:	8e 58       	MOV       R4, SP
     d58:	4c c0       	ADD       R1, R4, #1
     d5a:	80 00 3c 02 	LJMP      $+572     ;->0x11d2  11d2 <ltoa>
##@@@P_:vfprintf.c:308
     d5e:	60 38       	CMP       R6, #0			;->0x00
     d60:	0b f0       	JZ        $+11                  ;->0xd76
##@@@P_:vfprintf.c:308 (discriminator 1)
     d62:	a1 e1       	LD.B      R5, [SP + #1]
     d64:	5d 3a       	CMP       R5, #45			;->0x2D
     d66:	0b f0       	JZ        $+11                  ;->0xd7c
##@@@P_:vfprintf.c:311
     d68:	eb 83       	ST.B      [SP], R11
     d6a:	7a 04       	SJMP      $+122                 ;->0xe5e
##@@@P_:vfprintf.c:318
     d6c:	01 e3       	ST.B      [SP + #1], R0
##@@@P_:vfprintf.c:319
     d6e:	42 e3       	ST.B      [SP + #2], R2
##@@@P_:vfprintf.c:299
     d70:	ae 58       	MOV       R5, SP
     d72:	75 c0       	ADD       R6, R5, #1
     d74:	06 04       	SJMP      $+6                   ;->0xd80
     d76:	0e 58       	MOV       R0, SP
     d78:	70 c0       	ADD       R6, R0, #1
     d7a:	03 04       	SJMP      $+3                   ;->0xd80
     d7c:	2e 58       	MOV       R1, SP
     d7e:	71 c0       	ADD       R6, R1, #1
##@@@P_:vfprintf.c:278
     d80:	9f 1f       	MOV       R9, #255			;->0x00FF
     d82:	a6 58       	MOV       R5, R6
##@@@P_:vfprintf.c:326
     d84:	03 04       	SJMP      $+3                   ;->0xd8a
##@@@P_:vfprintf.c:329
     d86:	81 30       	SUB       R8, #1			;->0x01
     d88:	88 d1       	ZXT.B     R8, R8
##@@@P_:vfprintf.c:326 (discriminator 1)
     d8a:	80 38       	CMP       R8, #0			;->0x00
     d8c:	04 f0       	JZ        $+4                   ;->0xd94
##@@@P_:vfprintf.c:326 (discriminator 2)
     d8e:	45 76       	LD.B      R4, [R5++]
     d90:	40 38       	CMP       R4, #0			;->0x00
     d92:	fa f1       	JNZ       $-6                   ;->0xd86
##@@@P_:vfprintf.c:332
     d94:	0d 0b       	LD.W      R3, [SP + #13]
     d96:	30 38       	CMP       R3, #0			;->0x00
     d98:	03 f1       	JNZ       $+3                   ;->0xd9e
##@@@P_:vfprintf.c:332 (discriminator 1)
     d9a:	68 59       	MOV       R11, R8
     d9c:	0d 04       	SJMP      $+13                  ;->0xdb6
##@@@P_:vfprintf.c:346
     d9e:	0a 0c       	LD.W      R4, [SP + #10]
     da0:	64 59       	MOV       R11, R4
##@@@P_:vfprintf.c:42
     da2:	2e c7       	SUB       R5, R6, R4
     da4:	0c 25       	ST.W      [SP + #12], R5
##@@@P_:vfprintf.c:346
     da6:	6f 1f       	MOV       R6, #255			;->0x00FF
     da8:	23 04       	SJMP      $+35                  ;->0xdee
##@@@P_:vfprintf.c:336
     daa:	0c 08       	LD.W      R0, [SP + #12]
     dac:	0b 09       	LD.W      R1, [SP + #11]
     dae:	80 00 b7 02 	LJMP      $+695     ;->0x131c  131c <fputchar>
##@@@P_:vfprintf.c:338
     db2:	b1 30       	SUB       R11, #1			;->0x01
     db4:	bb d1       	ZXT.B     R11, R11
##@@@P_:vfprintf.c:334 (discriminator 1)
     db6:	b0 38       	CMP       R11, #0			;->0x00
     db8:	f9 f1       	JNZ       $-7                   ;->0xdaa
     dba:	0a 08       	LD.W      R0, [SP + #10]
     dbc:	08 64       	ADD       R0, R8
     dbe:	0a 20       	ST.W      [SP + #10], R0
##@@@P_:vfprintf.c:42
     dc0:	0b 59       	MOV       R8, R11
     dc2:	ee 07       	SJMP      $-18                  ;->0xd9e
##@@@P_:vfprintf.c:346
     dc4:	25 59       	MOV       R9, R5
##@@@P_:vfprintf.c:351
     dc6:	a0 38       	CMP       R10, #0			;->0x00
     dc8:	0b f0       	JZ        $+11                  ;->0xdde
##@@@P_:vfprintf.c:353
     dca:	37 41       	LD        R1, [PC + #55]        ;->0xea4  :=0x1000029c
     dcc:	31 82       	LD.W      R3, [R1]
     dce:	0e 23       	ST.W      [SP + #14], R3
     dd0:	2b e4       	LD.B      R5, [R3 + R0]
     dd2:	45 d1       	ZXT.B     R4, R5
     dd4:	50 11       	MOV       R5, #16			;->0x0010
     dd6:	6c d5       	ANL       R5, R4, R5
     dd8:	03 f0       	JZ        $+3                   ;->0xdde
##@@@P_:vfprintf.c:353 (discriminator 1)
     dda:	00 32       	SUB       R0, #32			;->0x20
     ddc:	00 d1       	ZXT.B     R0, R0
##@@@P_:vfprintf.c:355
     dde:	0b 09       	LD.W      R1, [SP + #11]
     de0:	80 00 9e 02 	LJMP      $+670     ;->0x131c  131c <fputchar>
##@@@P_:vfprintf.c:357
     de4:	b1 28       	ADD       R11, #1			;->0x01
##@@@P_:vfprintf.c:358
     de6:	80 38       	CMP       R8, #0			;->0x00
     de8:	03 f0       	JZ        $+3                   ;->0xdee
##@@@P_:vfprintf.c:360
     dea:	81 30       	SUB       R8, #1			;->0x01
     dec:	88 d1       	ZXT.B     R8, R8
##@@@P_:vfprintf.c:344 (discriminator 1)
     dee:	0c 09       	LD.W      R1, [SP + #12]
     df0:	6b 58       	MOV       R3, R11
     df2:	c9 e4       	LD.B      R1, [R1 + R3]
     df4:	01 d1       	ZXT.B     R0, R1
     df6:	00 38       	CMP       R0, #0			;->0x00
     df8:	06 f1       	JNZ       $+6                   ;->0xe04
##@@@P_:vfprintf.c:344
     dfa:	c8 58       	MOV       R6, R8
##@@@P_:vfprintf.c:367
     dfc:	0d 0b       	LD.W      R3, [SP + #13]
     dfe:	30 38       	CMP       R3, #0			;->0x00
     e00:	1a f0       	JZ        $+26                  ;->0xe34
     e02:	0f 04       	SJMP      $+15                  ;->0xe20
##@@@P_:vfprintf.c:346
     e04:	96 70       	CMP       R9, R6
     e06:	e0 f0       	JZ        $-32                  ;->0xdc6
##@@@P_:vfprintf.c:346 (discriminator 1)
     e08:	89 58       	MOV       R4, R9
     e0a:	6c cc       	SUB       R5, R4, #1
     e0c:	55 d1       	ZXT.B     R5, R5
     e0e:	90 38       	CMP       R9, #0			;->0x00
     e10:	da f1       	JNZ       $-38                  ;->0xdc4
     e12:	f4 07       	SJMP      $-12                  ;->0xdfa
##@@@P_:vfprintf.c:371
     e14:	00 12       	MOV       R0, #32			;->0x0020
     e16:	0b 09       	LD.W      R1, [SP + #11]
     e18:	80 00 82 02 	LJMP      $+642     ;->0x131c  131c <fputchar>
##@@@P_:vfprintf.c:373
     e1c:	81 30       	SUB       R8, #1			;->0x01
     e1e:	88 d1       	ZXT.B     R8, R8
##@@@P_:vfprintf.c:369 (discriminator 1)
     e20:	80 38       	CMP       R8, #0			;->0x00
     e22:	f9 f1       	JNZ       $-7                   ;->0xe14
     e24:	b6 64       	ADD       R11, R6
     e26:	07 04       	SJMP      $+7                   ;->0xe34
##@@@P_:vfprintf.c:383
     e28:	0b 09       	LD.W      R1, [SP + #11]
     e2a:	80 00 79 02 	LJMP      $+633     ;->0x131c  131c <fputchar>
##@@@P_:vfprintf.c:384
     e2e:	0a 0d       	LD.W      R5, [SP + #10]
     e30:	6d c0       	ADD       R5, R5, #1
     e32:	65 59       	MOV       R11, R5
##@@@P_:vfprintf.c:387
     e34:	7f c0       	ADD       R7, R7, #1
     e36:	2b 58       	MOV       R1, R11
     e38:	0a 21       	ST.W      [SP + #10], R1
##@@@P_:vfprintf.c:86 (discriminator 1)
     e3a:	07 80       	LD.B      R0, [R7]
     e3c:	00 38       	CMP       R0, #0			;->0x00
     e3e:	02 f0       	JZ        $+2                   ;->0xe42
     e40:	e6 06       	SJMP      $-282                 ;->0xc0c
     e42:	2c 04       	SJMP      $+44                  ;->0xe9a
##@@@P_:vfprintf.c:256
     e44:	cc 58       	MOV       R6, R12
     e46:	68 28       	ADD       R6, #8			;->0x08
     e48:	6c 58       	MOV       R3, R12
     e4a:	03 82       	LD.W      R0, [R3]
     e4c:	4b 98       	LD.W      R1, [R3 + #1]
     e4e:	80 00 d1 01 	LJMP      $+465     ;->0x11f0  11f0 <__truncdfsf2>
##@@@P_:vfprintf.c:258
     e52:	2e 58       	MOV       R1, SP
     e54:	49 58       	MOV       R2, R9
     e56:	80 00 69 00 	LJMP      $+105     ;->0xf28  f28 <ftoa>
##@@@P_:vfprintf.c:256
     e5a:	86 59       	MOV       R12, R6
##@@@P_:vfprintf.c:101
     e5c:	a0 10       	MOV       R10, #0			;->0x0000
##@@@P_:vfprintf.c:257
     e5e:	ce 58       	MOV       R6, SP
     e60:	90 07       	SJMP      $-112                 ;->0xd80
##@@@P_:vfprintf.c:101
     e62:	a0 10       	MOV       R10, #0			;->0x0000
     e64:	02 04       	SJMP      $+2                   ;->0xe68
##@@@P_:vfprintf.c:213
     e66:	a1 10       	MOV       R10, #1			;->0x0001
     e68:	20 11       	MOV       R2, #16			;->0x0010
     e6a:	0c 04       	SJMP      $+12                  ;->0xe82
##@@@P_:vfprintf.c:101
     e6c:	a0 10       	MOV       R10, #0			;->0x0000
##@@@P_:vfprintf.c:216
     e6e:	4a 58       	MOV       R2, R10
     e70:	09 04       	SJMP      $+9                   ;->0xe82
##@@@P_:vfprintf.c:101
     e72:	a0 10       	MOV       R10, #0			;->0x0000
##@@@P_:vfprintf.c:218
     e74:	28 10       	MOV       R2, #8			;->0x0008
     e76:	06 04       	SJMP      $+6                   ;->0xe82
##@@@P_:vfprintf.c:101
     e78:	a0 10       	MOV       R10, #0			;->0x0000
##@@@P_:vfprintf.c:220
     e7a:	22 10       	MOV       R2, #2			;->0x0002
     e7c:	03 04       	SJMP      $+3                   ;->0xe82
##@@@P_:vfprintf.c:101
     e7e:	a0 10       	MOV       R10, #0			;->0x0000
##@@@P_:vfprintf.c:100
     e80:	2a 10       	MOV       R2, #10			;->0x000A
     e82:	0c 58       	MOV       R0, R12
     e84:	18 c1       	ADD       R3, R0, #4
##@@@P_:vfprintf.c:282
     e86:	10 38       	CMP       R1, #0			;->0x00
     e88:	02 f0       	JZ        $+2                   ;->0xe8c
     e8a:	56 07       	SJMP      $-170                 ;->0xd36
     e8c:	57 07       	SJMP      $-169                 ;->0xd3a
##@@@P_:vfprintf.c:249
     e8e:	6c 82       	LD.W      R6, [R12]
     e90:	c4 28       	ADD       R12, #4			;->0x04
##@@@P_:vfprintf.c:206
     e92:	30 12       	MOV       R3, #32			;->0x0020
     e94:	0c 23       	ST.W      [SP + #12], R3
##@@@P_:vfprintf.c:101
     e96:	a0 10       	MOV       R10, #0			;->0x0000
     e98:	75 07       	SJMP      $-139                 ;->0xd82
##@@@P_:vfprintf.c:391
     e9a:	0a 08       	LD.W      R0, [SP + #10]
     e9c:	ec 2b       	ADD       SP, #60			;->0x3C
     e9e:	7f 5e       	POP       {R6-R12}
     ea0:	0d 5d       	POP       LR
     ea2:	1d 5c       	JMP       LR
     ea4:	9c 02 00 10 	.long     0x1000029c ->268436124  [!!!@2@:SVC       SVC, #156	@@: MOV       R0, #0

00000ea8 <_ftoa_put_char>:
##@@@F_:_ftoa_put_char():
##@@@P_:ftoa.c:80
     ea8:	03 44       	LD        R4, [PC + #3]         ;->0xeb4  :=0x100002c4
     eaa:	54 82       	LD.W      R5, [R4]
     eac:	50 77       	ST.B      [R5++], R0
     eae:	45 85       	ST.W      [R4], R5
##@@@P_:ftoa.c:81
     eb0:	1d 5c       	JMP       LR
     eb2:	00 00       	NOP      NOP      
     eb4:	c4 02 00 10 	.long     0x100002c4 ->268436164  [!!!@2@:SVC       SVC, #196	@@: MOV       R0, #0

00000eb8 <_ftoa_put_digit>:
##@@@F_:_ftoa_put_digit():
##@@@P_:ftoa.c:84
     eb8:	81 5f       	PUSH      {R6,LR}
##@@@P_:ftoa.c:85
     eba:	09 46       	LD        R6, [PC + #9]         ;->0xedc  :=0x100002c0
     ebc:	06 82       	LD.W      R0, [R6]
     ebe:	84 7d       	LSR       R0, #28			;->0x1C
     ec0:	00 2b       	ADD       R0, #48			;->0x30
     ec2:	9f 00 f3 ff 	LJMP      $-13      ;->0xea8  ea8 <_ftoa_put_char>
##@@@P_:ftoa.c:86
     ec6:	07 45       	LD        R5, [PC + #7]         ;->0xee0  :=0xfffffff
     ec8:	36 82       	LD.W      R3, [R6]
     eca:	6b d5       	ANL       R5, R3, R5
##@@@F_:_mul10():
##@@@P_:ftoa.c:55
     ecc:	32 10       	MOV       R3, #2			;->0x0002
     ece:	e5 da       	LSL       R4, R5, R3
     ed0:	6c c3       	ADD       R5, R4, R5
     ed2:	6d c3       	ADD       R5, R5, R5
     ed4:	65 85       	ST.W      [R6], R5
##@@@F_:_ftoa_put_digit():
##@@@P_:ftoa.c:88
     ed6:	06 5d       	POP       R6
     ed8:	0d 5d       	POP       LR
     eda:	1d 5c       	JMP       LR
     edc:	c0 02 00 10 	.long     0x100002c0 ->268436160  [!!!@2@:SVC       SVC, #192	@@: MOV       R0, #0
     ee0:	ff ff ff 0f 	.long     0x0fffffff ->268435455 

00000ee4 <_ftoa_round>:
##@@@F_:_ftoa_round():
##@@@P_:ftoa.c:60
     ee4:	00 38       	CMP       R0, #0			;->0x00
     ee6:	1a f4       	JMI       $+26                  ;->0xf1a
##@@@P_:ftoa.c:62
     ee8:	0d 45       	LD        R5, [PC + #13]        ;->0xf1c  :=0x100002c0
     eea:	45 82       	LD.W      R4, [R5]
##@@@P_:ftoa.c:64
     eec:	51 10       	MOV       R5, #1			;->0x0001
     eee:	ab 7b       	LSL       R5, #27			;->0x1B
##@@@F_:_div10():
##@@@P_:ftoa.c:50
     ef0:	3a 10       	MOV       R3, #10			;->0x000A
##@@@F_:_ftoa_round():
##@@@P_:ftoa.c:64
     ef2:	04 04       	SJMP      $+4                   ;->0xefa
##@@@F_:_div10():
##@@@P_:ftoa.c:50
     ef4:	6d c1       	ADD       R5, R5, #5
     ef6:	ed d2       	DIVU      R5, R5, R3
##@@@F_:_ftoa_round():
##@@@P_:ftoa.c:67
     ef8:	40 cc       	SUB       R0, R0, #1
##@@@P_:ftoa.c:64 (discriminator 1)
     efa:	00 38       	CMP       R0, #0			;->0x00
     efc:	fc f1       	JNZ       $-4                   ;->0xef4
##@@@P_:ftoa.c:69
     efe:	2d c3       	ADD       R5, R5, R4
     f00:	07 44       	LD        R4, [PC + #7]         ;->0xf1c  :=0x100002c0
     f02:	45 85       	ST.W      [R4], R5
##@@@P_:ftoa.c:70
     f04:	07 43       	LD        R3, [PC + #7]         ;->0xf20  :=0x9fffffff
     f06:	53 70       	CMP       R5, R3
     f08:	09 f9       	JLS       $+9                   ;->0xf1a
##@@@F_:_div10():
##@@@P_:ftoa.c:50
     f0a:	6d c1       	ADD       R5, R5, #5
     f0c:	3a 10       	MOV       R3, #10			;->0x000A
     f0e:	ed d2       	DIVU      R5, R5, R3
     f10:	45 85       	ST.W      [R4], R5
##@@@F_:_ftoa_round():
##@@@P_:ftoa.c:73
     f12:	05 45       	LD        R5, [PC + #5]         ;->0xf24  :=0x100002b8
     f14:	35 82       	LD.W      R3, [R5]
     f16:	63 c0       	ADD       R4, R3, #1
     f18:	54 85       	ST.W      [R5], R4
##@@@P_:ftoa.c:76
     f1a:	1d 5c       	JMP       LR
     f1c:	c0 02 00 10 	.long     0x100002c0 ->268436160  [!!!@2@:SVC       SVC, #192	@@: MOV       R0, #0
     f20:	ff ff ff 9f 	.long     0x9fffffff ->-1610612737 
     f24:	b8 02 00 10 	.long     0x100002b8 ->268436152  [!!!@2@:SVC       SVC, #184	@@: MOV       R0, #0

00000f28 <ftoa>:
##@@@F_:ftoa():
##@@@P_:ftoa.c:91
     f28:	87 5f       	PUSH      {R6-R8,LR}
     f2a:	62 d1       	ZXT.B     R6, R2
##@@@P_:ftoa.c:92
     f2c:	8d 47       	LD        R7, [PC + #141]       ;->0x1160  :=0x100002c0
     f2e:	70 85       	ST.W      [R7], R0
##@@@P_:ftoa.c:93
     f30:	8d 45       	LD        R5, [PC + #141]       ;->0x1164  :=0x100002c4
     f32:	51 85       	ST.W      [R5], R1
##@@@P_:ftoa.c:96
     f34:	00 38       	CMP       R0, #0			;->0x00
     f36:	04 f5       	JPL       $+4                   ;->0xf3e
##@@@P_:ftoa.c:97
     f38:	0d 12       	MOV       R0, #45			;->0x002D
     f3a:	9f 00 b7 ff 	LJMP      $-73      ;->0xea8  ea8 <_ftoa_put_char>
##@@@P_:ftoa.c:99
     f3e:	57 82       	LD.W      R5, [R7]
     f40:	07 11       	MOV       R0, #23			;->0x0017
     f42:	1d dc       	LSR       R3, R5, R0
     f44:	1f 1f       	MOV       R1, #255			;->0x00FF
     f46:	5b d4       	ANL       R3, R3, R1
     f48:	88 44       	LD        R4, [PC + #136]       ;->0x1168  :=0x100002bc
     f4a:	43 85       	ST.W      [R4], R3
##@@@P_:ftoa.c:100
     f4c:	88 42       	LD        R2, [PC + #136]       ;->0x116c  :=0x7fffff
     f4e:	ad d4       	ANL       R5, R5, R2
     f50:	01 10       	MOV       R0, #1			;->0x0001
     f52:	07 7b       	LSL       R0, #23			;->0x17
     f54:	25 d6       	ORL       R4, R5, R0
     f56:	74 85       	ST.W      [R7], R4
##@@@P_:ftoa.c:103
     f58:	31 70       	CMP       R3, R1
     f5a:	1a f1       	JNZ       $+26                  ;->0xf8e
##@@@P_:ftoa.c:105
     f5c:	51 10       	MOV       R5, #1			;->0x0001
     f5e:	2f 7b       	LSL       R5, #23			;->0x17
     f60:	45 70       	CMP       R4, R5
     f62:	09 f1       	JNZ       $+9                   ;->0xf74
##@@@P_:ftoa.c:108
     f64:	09 16       	MOV       R0, #105			;->0x0069
     f66:	9f 00 a1 ff 	LJMP      $-95      ;->0xea8  ea8 <_ftoa_put_char>
##@@@P_:ftoa.c:109
     f6a:	0e 16       	MOV       R0, #110			;->0x006E
     f6c:	9f 00 9e ff 	LJMP      $-98      ;->0xea8  ea8 <_ftoa_put_char>
##@@@P_:ftoa.c:110
     f70:	06 14       	MOV       R0, #70			;->0x0046
     f72:	08 04       	SJMP      $+8                   ;->0xf82
##@@@P_:ftoa.c:115
     f74:	0e 16       	MOV       R0, #110			;->0x006E
     f76:	9f 00 99 ff 	LJMP      $-103     ;->0xea8  ea8 <_ftoa_put_char>
##@@@P_:ftoa.c:116
     f7a:	01 16       	MOV       R0, #97			;->0x0061
     f7c:	9f 00 96 ff 	LJMP      $-106     ;->0xea8  ea8 <_ftoa_put_char>
##@@@P_:ftoa.c:117
     f80:	0e 16       	MOV       R0, #110			;->0x006E
     f82:	9f 00 93 ff 	LJMP      $-109     ;->0xea8  ea8 <_ftoa_put_char>
##@@@P_:ftoa.c:119
     f86:	00 10       	MOV       R0, #0			;->0x0000
     f88:	9f 00 90 ff 	LJMP      $-112     ;->0xea8  ea8 <_ftoa_put_char>
##@@@P_:ftoa.c:120
     f8c:	e6 04       	SJMP      $+230                 ;->0x1158
##@@@P_:ftoa.c:124
     f8e:	30 38       	CMP       R3, #0			;->0x00
     f90:	0c f0       	JZ        $+12                  ;->0xfa8
##@@@P_:ftoa.c:170
     f92:	74 45       	LD        R5, [PC + #116]       ;->0x1160  :=0x100002c0
     f94:	55 82       	LD.W      R5, [R5]
##@@@P_:ftoa.c:171
     f96:	75 44       	LD        R4, [PC + #117]       ;->0x1168  :=0x100002bc
     f98:	44 82       	LD.W      R4, [R4]
     f9a:	4f 37       	SUB       R4, #127			;->0x7F
     f9c:	2d 7a       	LSL       R5, #5			;->0x05
     f9e:	44 58       	MOV       R2, R4
##@@@P_:ftoa.c:173
     fa0:	30 10       	MOV       R3, #0			;->0x0000
##@@@P_:ftoa.c:175
     fa2:	74 41       	LD        R1, [PC + #116]       ;->0x1170  :=0x4fffffff
##@@@F_:_div5():
##@@@P_:ftoa.c:40
     fa4:	05 10       	MOV       R0, #5			;->0x0005
##@@@F_:ftoa():
##@@@P_:ftoa.c:173
     fa6:	3c 04       	SJMP      $+60                  ;->0x101e
##@@@P_:ftoa.c:126
     fa8:	31 10       	MOV       R3, #1			;->0x0001
     faa:	1f 7b       	LSL       R3, #23			;->0x17
     fac:	43 70       	CMP       R4, R3
     fae:	24 f1       	JNZ       $+36                  ;->0xff6
##@@@P_:ftoa.c:129
     fb0:	00 13       	MOV       R0, #48			;->0x0030
     fb2:	9f 00 7b ff 	LJMP      $-133     ;->0xea8  ea8 <_ftoa_put_char>
##@@@P_:ftoa.c:130
     fb6:	5f 11       	MOV       R5, #31			;->0x001F
     fb8:	6e d5       	ANL       R5, R6, R5
     fba:	6f 47       	LD        R7, [PC + #111]       ;->0x1174  :=0x100002b8
     fbc:	75 85       	ST.W      [R7], R5
##@@@P_:ftoa.c:131
     fbe:	50 38       	CMP       R5, #0			;->0x00
     fc0:	05 f1       	JNZ       $+5                   ;->0xfca
##@@@P_:ftoa.c:137
     fc2:	50 14       	MOV       R5, #64			;->0x0040
     fc4:	76 d5       	ANL       R6, R6, R5
     fc6:	e0 f0       	JZ        $-32                  ;->0xf86
     fc8:	0c 04       	SJMP      $+12                  ;->0xfe0
##@@@P_:ftoa.c:133
     fca:	0e 12       	MOV       R0, #46			;->0x002E
     fcc:	02 04       	SJMP      $+2                   ;->0xfd0
##@@@P_:ftoa.c:135
     fce:	00 13       	MOV       R0, #48			;->0x0030
     fd0:	9f 00 6c ff 	LJMP      $-148     ;->0xea8  ea8 <_ftoa_put_char>
##@@@P_:ftoa.c:134
     fd4:	57 82       	LD.W      R5, [R7]
     fd6:	65 cc       	SUB       R4, R5, #1
     fd8:	74 85       	ST.W      [R7], R4
     fda:	50 38       	CMP       R5, #0			;->0x00
     fdc:	f9 f1       	JNZ       $-7                   ;->0xfce
     fde:	f2 07       	SJMP      $-14                  ;->0xfc2
##@@@P_:ftoa.c:139
     fe0:	05 14       	MOV       R0, #69			;->0x0045
     fe2:	9f 00 63 ff 	LJMP      $-157     ;->0xea8  ea8 <_ftoa_put_char>
##@@@P_:ftoa.c:140
     fe6:	0b 12       	MOV       R0, #43			;->0x002B
     fe8:	9f 00 60 ff 	LJMP      $-160     ;->0xea8  ea8 <_ftoa_put_char>
##@@@P_:ftoa.c:141
     fec:	00 13       	MOV       R0, #48			;->0x0030
     fee:	9f 00 5d ff 	LJMP      $-163     ;->0xea8  ea8 <_ftoa_put_char>
##@@@P_:ftoa.c:142
     ff2:	00 13       	MOV       R0, #48			;->0x0030
     ff4:	c7 07       	SJMP      $-57                  ;->0xf82
##@@@P_:ftoa.c:152
     ff6:	41 10       	MOV       R4, #1			;->0x0001
     ff8:	02 04       	SJMP      $+2                   ;->0xffc
##@@@F_:_mul2():
##@@@P_:ftoa.c:35
     ffa:	6d c3       	ADD       R5, R5, R5
     ffc:	64 58       	MOV       R3, R4
     ffe:	64 cc       	SUB       R4, R4, #1
##@@@F_:ftoa():
##@@@P_:ftoa.c:152 (discriminator 1)
    1000:	52 70       	CMP       R5, R2
    1002:	fc f9       	JLS       $-4                   ;->0xffa
    1004:	57 44       	LD        R4, [PC + #87]        ;->0x1160  :=0x100002c0
    1006:	45 85       	ST.W      [R4], R5
    1008:	58 45       	LD        R5, [PC + #88]        ;->0x1168  :=0x100002bc
    100a:	53 85       	ST.W      [R5], R3
    100c:	c3 07       	SJMP      $-61                  ;->0xf92
##@@@P_:ftoa.c:175
    100e:	51 70       	CMP       R5, R1
    1010:	03 f8       	JHI       $+3                   ;->0x1016
##@@@F_:_mul2():
##@@@P_:ftoa.c:35
    1012:	6d c3       	ADD       R5, R5, R5
    1014:	04 04       	SJMP      $+4                   ;->0x101c
##@@@F_:_div5():
##@@@P_:ftoa.c:40
    1016:	ad c0       	ADD       R5, R5, #2
    1018:	2d d2       	DIVU      R5, R5, R0
##@@@F_:ftoa():
##@@@P_:ftoa.c:182
    101a:	5b c0       	ADD       R3, R3, #1
    101c:	52 cc       	SUB       R2, R2, #1
##@@@P_:ftoa.c:173 (discriminator 1)
    101e:	20 38       	CMP       R2, #0			;->0x00
    1020:	f7 fc       	JGT       $-9                   ;->0x100e
##@@@P_:ftoa.c:90
    1022:	44 58       	MOV       R2, R4
    1024:	40 38       	CMP       R4, #0			;->0x00
    1026:	02 f5       	JPL       $+2                   ;->0x102a
    1028:	20 10       	MOV       R2, #0			;->0x0000
    102a:	a4 c6       	SUB       R4, R4, R2
##@@@P_:ftoa.c:188
    102c:	53 42       	LD        R2, [PC + #83]        ;->0x1178  :=0x1fffffff
    102e:	0b 04       	SJMP      $+11                  ;->0x1044
    1030:	52 70       	CMP       R5, R2
    1032:	06 f8       	JHI       $+6                   ;->0x103e
##@@@F_:_mul5():
##@@@P_:ftoa.c:45
    1034:	02 10       	MOV       R0, #2			;->0x0002
    1036:	0d da       	LSL       R1, R5, R0
    1038:	6d c2       	ADD       R5, R5, R1
##@@@F_:ftoa():
##@@@P_:ftoa.c:191
    103a:	5b cc       	SUB       R3, R3, #1
    103c:	03 04       	SJMP      $+3                   ;->0x1042
##@@@F_:_div2():
##@@@P_:ftoa.c:30
    103e:	6d c0       	ADD       R5, R5, #1
    1040:	29 7c       	LSR       R5, #1			;->0x01
    1042:	64 c0       	ADD       R4, R4, #1
##@@@F_:ftoa():
##@@@P_:ftoa.c:186 (discriminator 1)
    1044:	40 38       	CMP       R4, #0			;->0x00
    1046:	f5 f4       	JMI       $-11                  ;->0x1030
    1048:	48 42       	LD        R2, [PC + #72]        ;->0x1168  :=0x100002bc
    104a:	24 85       	ST.W      [R2], R4
##@@@P_:ftoa.c:199
    104c:	4c 42       	LD        R2, [PC + #76]        ;->0x117c  :=0xfffffff
    104e:	05 04       	SJMP      $+5                   ;->0x1058
##@@@F_:_mul10():
##@@@P_:ftoa.c:55
    1050:	12 10       	MOV       R1, #2			;->0x0002
    1052:	65 da       	LSL       R4, R5, R1
    1054:	6c c3       	ADD       R5, R4, R5
    1056:	6d c3       	ADD       R5, R5, R5
    1058:	83 58       	MOV       R4, R3
    105a:	5b cc       	SUB       R3, R3, #1
##@@@F_:ftoa():
##@@@P_:ftoa.c:199 (discriminator 1)
    105c:	52 70       	CMP       R5, R2
    105e:	f9 f9       	JLS       $-7                   ;->0x1050
    1060:	45 43       	LD        R3, [PC + #69]        ;->0x1174  :=0x100002b8
    1062:	34 85       	ST.W      [R3], R4
    1064:	3f 43       	LD        R3, [PC + #63]        ;->0x1160  :=0x100002c0
    1066:	35 85       	ST.W      [R3], R5
##@@@P_:ftoa.c:208
    1068:	50 16       	MOV       R5, #96			;->0x0060
    106a:	6e d5       	ANL       R5, R6, R5
    106c:	0a f1       	JNZ       $+10                  ;->0x1080
##@@@P_:ftoa.c:210
    106e:	53 10       	MOV       R5, #3			;->0x0003
    1070:	55 68       	NOT       R5, R5
    1072:	45 70       	CMP       R4, R5
    1074:	03 fb       	JLT       $+3                   ;->0x107a
##@@@P_:ftoa.c:210 (discriminator 1)
    1076:	46 70       	CMP       R4, R6
    1078:	03 fb       	JLT       $+3                   ;->0x107e
##@@@P_:ftoa.c:211
    107a:	36 48       	SET       R6, #6			;->0x06
    107c:	02 04       	SJMP      $+2                   ;->0x1080
##@@@P_:ftoa.c:213
    107e:	35 48       	SET       R6, #5			;->0x05
##@@@P_:ftoa.c:216
    1080:	50 14       	MOV       R5, #64			;->0x0040
    1082:	6e d5       	ANL       R5, R6, R5
    1084:	7f 11       	MOV       R7, #31			;->0x001F
##@@@P_:ftoa.c:218
    1086:	fe d5       	ANL       R7, R6, R7
##@@@P_:ftoa.c:216
    1088:	50 38       	CMP       R5, #0			;->0x00
    108a:	32 f0       	JZ        $+50                  ;->0x10ee
##@@@P_:ftoa.c:218
    108c:	07 58       	MOV       R0, R7
    108e:	9f 00 2b ff 	LJMP      $-213     ;->0xee4  ee4 <_ftoa_round>
##@@@P_:ftoa.c:219
    1092:	9f 00 13 ff 	LJMP      $-237     ;->0xeb8  eb8 <_ftoa_put_digit>
##@@@P_:ftoa.c:220
    1096:	35 46       	LD        R6, [PC + #53]        ;->0x1168  :=0x100002bc
    1098:	67 85       	ST.W      [R6], R7
##@@@P_:ftoa.c:221
    109a:	70 38       	CMP       R7, #0			;->0x00
    109c:	09 f1       	JNZ       $+9                   ;->0x10ae
##@@@P_:ftoa.c:230
    109e:	05 14       	MOV       R0, #69			;->0x0045
    10a0:	9f 00 04 ff 	LJMP      $-252     ;->0xea8  ea8 <_ftoa_put_char>
##@@@P_:ftoa.c:231
    10a4:	34 46       	LD        R6, [PC + #52]        ;->0x1174  :=0x100002b8
    10a6:	56 82       	LD.W      R5, [R6]
    10a8:	50 38       	CMP       R5, #0			;->0x00
    10aa:	17 f5       	JPL       $+23                  ;->0x10d8
    10ac:	0e 04       	SJMP      $+14                  ;->0x10c8
##@@@P_:ftoa.c:223
    10ae:	0e 12       	MOV       R0, #46			;->0x002E
    10b0:	9f 00 fc fe 	LJMP      $-260     ;->0xea8  ea8 <_ftoa_put_char>
##@@@P_:ftoa.c:224
    10b4:	06 04       	SJMP      $+6                   ;->0x10c0
##@@@P_:ftoa.c:226
    10b6:	9f 00 01 ff 	LJMP      $-255     ;->0xeb8  eb8 <_ftoa_put_digit>
##@@@P_:ftoa.c:227
    10ba:	46 82       	LD.W      R4, [R6]
    10bc:	6c cc       	SUB       R5, R4, #1
    10be:	65 85       	ST.W      [R6], R5
##@@@P_:ftoa.c:224 (discriminator 1)
    10c0:	56 82       	LD.W      R5, [R6]
    10c2:	50 38       	CMP       R5, #0			;->0x00
    10c4:	f9 fc       	JGT       $-7                   ;->0x10b6
    10c6:	ec 07       	SJMP      $-20                  ;->0x109e
##@@@P_:ftoa.c:233
    10c8:	0d 12       	MOV       R0, #45			;->0x002D
    10ca:	9f 00 ef fe 	LJMP      $-273     ;->0xea8  ea8 <_ftoa_put_char>
##@@@P_:ftoa.c:234
    10ce:	50 10       	MOV       R5, #0			;->0x0000
    10d0:	06 82       	LD.W      R0, [R6]
    10d2:	2d c6       	SUB       R5, R5, R0
    10d4:	65 85       	ST.W      [R6], R5
    10d6:	04 04       	SJMP      $+4                   ;->0x10de
##@@@P_:ftoa.c:238
    10d8:	0b 12       	MOV       R0, #43			;->0x002B
    10da:	9f 00 e7 fe 	LJMP      $-281     ;->0xea8  ea8 <_ftoa_put_char>
##@@@P_:ftoa.c:240
    10de:	26 45       	LD        R5, [PC + #38]        ;->0x1174  :=0x100002b8
    10e0:	05 82       	LD.W      R0, [R5]
    10e2:	21 45       	LD        R5, [PC + #33]        ;->0x1164  :=0x100002c4
    10e4:	15 82       	LD.W      R1, [R5]
    10e6:	2a 10       	MOV       R2, #10			;->0x000A
    10e8:	80 00 4c 00 	LJMP      $+76      ;->0x1180  1180 <uitoa>
    10ec:	36 04       	SJMP      $+54                  ;->0x1158
##@@@P_:ftoa.c:245
    10ee:	22 46       	LD        R6, [PC + #34]        ;->0x1174  :=0x100002b8
    10f0:	16 82       	LD.W      R1, [R6]
    10f2:	47 c2       	ADD       R0, R7, R1
    10f4:	9f 00 f8 fe 	LJMP      $-264     ;->0xee4  ee4 <_ftoa_round>
##@@@P_:ftoa.c:247
    10f8:	56 82       	LD.W      R5, [R6]
    10fa:	50 38       	CMP       R5, #0			;->0x00
    10fc:	07 f5       	JPL       $+7                   ;->0x110a
    10fe:	0a 04       	SJMP      $+10                  ;->0x1112
##@@@P_:ftoa.c:251
    1100:	9f 00 dc fe 	LJMP      $-292     ;->0xeb8  eb8 <_ftoa_put_digit>
##@@@P_:ftoa.c:252
    1104:	46 82       	LD.W      R4, [R6]
    1106:	6c cc       	SUB       R5, R4, #1
    1108:	65 85       	ST.W      [R6], R5
##@@@P_:ftoa.c:249 (discriminator 1)
    110a:	56 82       	LD.W      R5, [R6]
    110c:	50 38       	CMP       R5, #0			;->0x00
    110e:	f9 f5       	JPL       $-7                   ;->0x1100
    1110:	04 04       	SJMP      $+4                   ;->0x1118
##@@@P_:ftoa.c:257
    1112:	00 13       	MOV       R0, #48			;->0x0030
    1114:	9f 00 ca fe 	LJMP      $-310     ;->0xea8  ea8 <_ftoa_put_char>
##@@@P_:ftoa.c:259
    1118:	14 46       	LD        R6, [PC + #20]        ;->0x1168  :=0x100002bc
    111a:	67 85       	ST.W      [R6], R7
##@@@P_:ftoa.c:260
    111c:	70 38       	CMP       R7, #0			;->0x00
    111e:	02 f1       	JNZ       $+2                   ;->0x1122
    1120:	33 07       	SJMP      $-205                 ;->0xf86
##@@@P_:ftoa.c:263
    1122:	0e 12       	MOV       R0, #46			;->0x002E
    1124:	9f 00 c2 fe 	LJMP      $-318     ;->0xea8  ea8 <_ftoa_put_char>
##@@@P_:ftoa.c:266
    1128:	13 47       	LD        R7, [PC + #19]        ;->0x1174  :=0x100002b8
    112a:	50 10       	MOV       R5, #0			;->0x0000
    112c:	55 68       	NOT       R5, R5
    112e:	05 59       	MOV       R8, R5
##@@@P_:ftoa.c:264
    1130:	10 04       	SJMP      $+16                  ;->0x1150
##@@@P_:ftoa.c:266
    1132:	57 82       	LD.W      R5, [R7]
    1134:	58 70       	CMP       R5, R8
    1136:	08 fa       	JGE       $+8                   ;->0x1146
##@@@P_:ftoa.c:268
    1138:	00 13       	MOV       R0, #48			;->0x0030
    113a:	9f 00 b7 fe 	LJMP      $-329     ;->0xea8  ea8 <_ftoa_put_char>
##@@@P_:ftoa.c:269
    113e:	07 82       	LD.W      R0, [R7]
    1140:	68 c0       	ADD       R5, R0, #1
    1142:	75 85       	ST.W      [R7], R5
    1144:	03 04       	SJMP      $+3                   ;->0x114a
##@@@P_:ftoa.c:273
    1146:	9f 00 b9 fe 	LJMP      $-327     ;->0xeb8  eb8 <_ftoa_put_digit>
##@@@P_:ftoa.c:275
    114a:	16 82       	LD.W      R1, [R6]
    114c:	69 cc       	SUB       R5, R1, #1
    114e:	65 85       	ST.W      [R6], R5
##@@@P_:ftoa.c:264 (discriminator 1)
    1150:	56 82       	LD.W      R5, [R6]
    1152:	50 38       	CMP       R5, #0			;->0x00
    1154:	ef fc       	JGT       $-17                  ;->0x1132
    1156:	18 07       	SJMP      $-232                 ;->0xf86
##@@@P_:ftoa.c:280
    1158:	07 5e       	POP       {R6-R8}
    115a:	0d 5d       	POP       LR
    115c:	1d 5c       	JMP       LR
    115e:	00 00       	NOP      NOP      
    1160:	c0 02 00 10 	.long     0x100002c0 ->268436160  [!!!@2@:SVC       SVC, #192	@@: MOV       R0, #0
    1164:	c4 02 00 10 	.long     0x100002c4 ->268436164  [!!!@2@:SVC       SVC, #196	@@: MOV       R0, #0
    1168:	bc 02 00 10 	.long     0x100002bc ->268436156  [!!!@2@:SVC       SVC, #188	@@: MOV       R0, #0
    116c:	ff ff 7f 00 	.long     0x007fffff ->008388607 
    1170:	ff ff ff 4f 	.long     0x4fffffff ->1342177279 
    1174:	b8 02 00 10 	.long     0x100002b8 ->268436152  [!!!@2@:SVC       SVC, #184	@@: MOV       R0, #0
    1178:	ff ff ff 1f 	.long     0x1fffffff ->536870911 
    117c:	ff ff ff 0f 	.long     0x0fffffff ->268435455 

00001180 <uitoa>:
##@@@F_:uitoa():
##@@@P_:itoa.c:32
    1180:	2d 5d       	PUSH      LR
##@@@P_:itoa.c:33
    1182:	22 d1       	ZXT.B     R2, R2
    1184:	80 00 04 00 	LJMP      $+4       ;->0x118c  118c <ultoa>
##@@@P_:itoa.c:34
    1188:	0d 5d       	POP       LR
    118a:	1d 5c       	JMP       LR

0000118c <ultoa>:
##@@@F_:ultoa():
##@@@P_:ltoa.c:12
    118c:	03 5f       	PUSH      {R6-R7}
    118e:	e0 32       	SUB       SP, #32			;->0x20
    1190:	22 d1       	ZXT.B     R2, R2
##@@@P_:ltoa.c:17
    1192:	50 12       	MOV       R5, #32			;->0x0020
##@@@P_:ltoa.c:20
    1194:	98 d2       	DIVU      R3, R0, R2
    1196:	a3 ca       	MULS      R4, R3, R2
    1198:	00 00       	NOP      NOP      
    119a:	00 c7       	SUB       R0, R0, R4
    119c:	00 d1       	ZXT.B     R0, R0
    119e:	60 13       	MOV       R6, #48			;->0x0030
    11a0:	a0 c3       	ADD       R4, R0, R6
    11a2:	44 d1       	ZXT.B     R4, R4
##@@@P_:ltoa.c:21
    11a4:	49 3b       	CMP       R4, #57			;->0x39
    11a6:	03 f9       	JLS       $+3                   ;->0x11ac
##@@@P_:ltoa.c:21 (discriminator 1)
    11a8:	07 2d       	ADD       R0, #87			;->0x57
    11aa:	40 d1       	ZXT.B     R4, R0
##@@@P_:ltoa.c:23
    11ac:	6d cc       	SUB       R5, R5, #1
    11ae:	ee 58       	MOV       R7, SP
    11b0:	47 c3       	ADD       R0, R7, R5
    11b2:	04 83       	ST.B      [R0], R4
##@@@P_:ltoa.c:24
    11b4:	03 58       	MOV       R0, R3
##@@@P_:ltoa.c:25
    11b6:	30 38       	CMP       R3, #0			;->0x00
    11b8:	ee f1       	JNZ       $-18                  ;->0x1194
##@@@P_:ltoa.c:28 (discriminator 1)
    11ba:	6e 58       	MOV       R3, SP
    11bc:	63 c3       	ADD       R4, R3, R5
    11be:	44 80       	LD.B      R4, [R4]
    11c0:	14 77       	ST.B      [R1++], R4
    11c2:	6d c0       	ADD       R5, R5, #1
##@@@P_:ltoa.c:29
    11c4:	5f 39       	CMP       R5, #31			;->0x1F
    11c6:	fa f9       	JLS       $-6                   ;->0x11ba
##@@@P_:ltoa.c:31
    11c8:	50 10       	MOV       R5, #0			;->0x0000
    11ca:	15 83       	ST.B      [R1], R5
##@@@P_:ltoa.c:32
    11cc:	e0 2a       	ADD       SP, #32			;->0x20
    11ce:	03 5e       	POP       {R6-R7}
    11d0:	1d 5c       	JMP       LR

000011d2 <ltoa>:
##@@@F_:ltoa():
##@@@P_:ltoa.c:35
    11d2:	2d 5d       	PUSH      LR
    11d4:	22 d1       	ZXT.B     R2, R2
##@@@P_:ltoa.c:37
    11d6:	00 38       	CMP       R0, #0			;->0x00
    11d8:	07 f5       	JPL       $+7                   ;->0x11e6
##@@@P_:ltoa.c:37 (discriminator 1)
    11da:	2a 38       	CMP       R2, #10			;->0x0A
    11dc:	05 f1       	JNZ       $+5                   ;->0x11e6
##@@@P_:ltoa.c:38
    11de:	5d 12       	MOV       R5, #45			;->0x002D
    11e0:	15 77       	ST.B      [R1++], R5
##@@@P_:ltoa.c:39
    11e2:	50 10       	MOV       R5, #0			;->0x0000
    11e4:	05 c6       	SUB       R0, R5, R0
##@@@P_:ltoa.c:42
    11e6:	9f 00 d3 ff 	LJMP      $-45      ;->0x118c  118c <ultoa>
##@@@P_:ltoa.c:43
    11ea:	0d 5d       	POP       LR
    11ec:	1d 5c       	JMP       LR
	...

000011f0 <__truncdfsf2>:
##@@@F_:__truncdfsf2():
    11f0:	03 5f       	PUSH      {R6-R7}
    11f2:	e8 30       	SUB       SP, #8			;->0x08
    11f4:	e0 85       	ST.W      [SP], R0
    11f6:	01 21       	ST.W      [SP + #1], R1
    11f8:	0e 82       	LD.W      R0, [SP]
    11fa:	01 0c       	LD.W      R4, [SP + #1]
    11fc:	41 41       	LD        R1, [PC + #65]        ;->0x1300  :=0xfffff
    11fe:	4c d4       	ANL       R1, R4, R1
    1200:	54 11       	MOV       R5, #20			;->0x0014
    1202:	5c dd       	LSR       R3, R4, R5
    1204:	40 47       	LD        R7, [PC + #64]        ;->0x1304  :=0x7ff
    1206:	db d5       	ANL       R3, R3, R7
    1208:	5f 11       	MOV       R5, #31			;->0x001F
    120a:	74 dd       	LSR       R6, R4, R5
    120c:	0b 7a       	LSL       R1, #3			;->0x03
    120e:	5d 11       	MOV       R5, #29			;->0x001D
    1210:	60 dd       	LSR       R4, R0, R5
    1212:	09 d7       	ORL       R1, R1, R4
    1214:	53 10       	MOV       R5, #3			;->0x0003
    1216:	50 db       	LSL       R2, R0, R5
    1218:	6b c0       	ADD       R5, R3, #1
    121a:	fd d5       	ANL       R7, R5, R7
    121c:	71 38       	CMP       R7, #1			;->0x01
    121e:	37 fd       	JLE       $+55                  ;->0x128c
    1220:	3a 44       	LD        R4, [PC + #58]        ;->0x1308  :=0x380
    1222:	23 c7       	SUB       R4, R3, R4
    1224:	5e 1f       	MOV       R5, #254			;->0x00FE
    1226:	45 70       	CMP       R4, R5
    1228:	43 fc       	JGT       $+67                  ;->0x12ae
    122a:	40 38       	CMP       R4, #0			;->0x00
    122c:	26 fc       	JGT       $+38                  ;->0x1278
    122e:	56 11       	MOV       R5, #22			;->0x0016
    1230:	55 68       	NOT       R5, R5
    1232:	45 70       	CMP       R4, R5
    1234:	40 fb       	JLT       $+64                  ;->0x12b4
    1236:	0f 49       	SET       R1, #23			;->0x17
    1238:	35 44       	LD        R4, [PC + #53]        ;->0x130c  :=0x39e
    123a:	e4 c6       	SUB       R4, R4, R3
    123c:	35 45       	LD        R5, [PC + #53]        ;->0x1310  :=0x37e
    123e:	4f 39       	CMP       R4, #31			;->0x1F
    1240:	0c fc       	JGT       $+12                  ;->0x1258
    1242:	5b c7       	SUB       R3, R3, R5
    1244:	02 dd       	LSR       R0, R2, R4
    1246:	c9 da       	LSL       R1, R1, R3
    1248:	d2 da       	LSL       R2, R2, R3
    124a:	40 10       	MOV       R4, #0			;->0x0000
    124c:	ac c6       	SUB       R5, R4, R2
    124e:	95 d6       	ORL       R2, R5, R2
    1250:	97 7d       	LSR       R2, #31			;->0x1F
    1252:	a9 d6       	ORL       R5, R1, R2
    1254:	2d d6       	ORL       R5, R5, R0
    1256:	31 04       	SJMP      $+49                  ;->0x12b8
    1258:	ed c6       	SUB       R5, R5, R3
    125a:	79 dd       	LSR       R7, R1, R5
    125c:	00 10       	MOV       R0, #0			;->0x0000
    125e:	40 3a       	CMP       R4, #32			;->0x20
    1260:	04 f0       	JZ        $+4                   ;->0x1268
    1262:	2d 40       	LD        R0, [PC + #45]        ;->0x1314  :=0x35e
    1264:	1b c6       	SUB       R3, R3, R0
    1266:	c1 da       	LSL       R0, R1, R3
    1268:	90 d6       	ORL       R2, R0, R2
    126a:	40 10       	MOV       R4, #0			;->0x0000
    126c:	ac c6       	SUB       R5, R4, R2
    126e:	95 d6       	ORL       R2, R5, R2
    1270:	3f 11       	MOV       R3, #31			;->0x001F
    1272:	ea dc       	LSR       R5, R2, R3
    1274:	ed d7       	ORL       R5, R5, R7
    1276:	21 04       	SJMP      $+33                  ;->0x12b8
    1278:	95 7d       	LSR       R2, #29			;->0x1D
    127a:	0b 7a       	LSL       R1, #3			;->0x03
    127c:	06 7a       	LSL       R0, #6			;->0x06
    127e:	50 10       	MOV       R5, #0			;->0x0000
    1280:	2d c6       	SUB       R5, R5, R0
    1282:	05 d6       	ORL       R0, R5, R0
    1284:	87 7d       	LSR       R0, #31			;->0x1F
    1286:	29 d6       	ORL       R5, R1, R0
    1288:	ad d6       	ORL       R5, R5, R2
    128a:	17 04       	SJMP      $+23                  ;->0x12b8
    128c:	91 d6       	ORL       R2, R1, R2
    128e:	30 38       	CMP       R3, #0			;->0x00
    1290:	07 f1       	JNZ       $+7                   ;->0x129e
    1292:	51 10       	MOV       R5, #1			;->0x0001
    1294:	83 58       	MOV       R4, R3
    1296:	20 38       	CMP       R2, #0			;->0x00
    1298:	10 f1       	JNZ       $+16                  ;->0x12b8
    129a:	a3 58       	MOV       R5, R3
    129c:	0e 04       	SJMP      $+14                  ;->0x12b8
    129e:	50 10       	MOV       R5, #0			;->0x0000
    12a0:	4f 1f       	MOV       R4, #255			;->0x00FF
    12a2:	25 70       	CMP       R2, R5
    12a4:	0a f0       	JZ        $+10                  ;->0x12b8
    12a6:	33 10       	MOV       R3, #3			;->0x0003
    12a8:	e9 da       	LSL       R5, R1, R3
    12aa:	a9 49       	SET       R5, #25			;->0x19
    12ac:	06 04       	SJMP      $+6                   ;->0x12b8
    12ae:	50 10       	MOV       R5, #0			;->0x0000
    12b0:	4f 1f       	MOV       R4, #255			;->0x00FF
    12b2:	03 04       	SJMP      $+3                   ;->0x12b8
    12b4:	51 10       	MOV       R5, #1			;->0x0001
    12b6:	40 10       	MOV       R4, #0			;->0x0000
    12b8:	37 10       	MOV       R3, #7			;->0x0007
    12ba:	dd d4       	ANL       R3, R5, R3
    12bc:	06 f0       	JZ        $+6                   ;->0x12c8
    12be:	3f 10       	MOV       R3, #15			;->0x000F
    12c0:	dd d4       	ANL       R3, R5, R3
    12c2:	34 38       	CMP       R3, #4			;->0x04
    12c4:	02 f0       	JZ        $+2                   ;->0x12c8
    12c6:	2d c1       	ADD       R5, R5, #4
    12c8:	31 10       	MOV       R3, #1			;->0x0001
    12ca:	9a 7b       	LSL       R3, #26			;->0x1A
    12cc:	dd d4       	ANL       R3, R5, R3
    12ce:	08 f0       	JZ        $+8                   ;->0x12de
    12d0:	64 c0       	ADD       R4, R4, #1
    12d2:	3f 1f       	MOV       R3, #255			;->0x00FF
    12d4:	43 70       	CMP       R4, R3
    12d6:	03 f0       	JZ        $+3                   ;->0x12dc
    12d8:	aa 4b       	CLR       R5, #26			;->0x1A
    12da:	02 04       	SJMP      $+2                   ;->0x12de
    12dc:	50 10       	MOV       R5, #0			;->0x0000
    12de:	2b 7c       	LSR       R5, #3			;->0x03
    12e0:	3f 1f       	MOV       R3, #255			;->0x00FF
    12e2:	43 70       	CMP       R4, R3
    12e4:	04 f1       	JNZ       $+4                   ;->0x12ec
    12e6:	50 38       	CMP       R5, #0			;->0x00
    12e8:	02 f0       	JZ        $+2                   ;->0x12ec
    12ea:	2e 49       	SET       R5, #22			;->0x16
    12ec:	44 d1       	ZXT.B     R4, R4
    12ee:	27 7b       	LSL       R4, #23			;->0x17
    12f0:	0a 40       	LD        R0, [PC + #10]        ;->0x1318  :=0x7fffff
    12f2:	2d d4       	ANL       R5, R5, R0
    12f4:	b7 7b       	LSL       R6, #31			;->0x1F
    12f6:	05 d7       	ORL       R0, R5, R4
    12f8:	80 d7       	ORL       R0, R0, R6
    12fa:	e8 28       	ADD       SP, #8			;->0x08
    12fc:	03 5e       	POP       {R6-R7}
    12fe:	1d 5c       	JMP       LR
    1300:	ff ff 0f 00 	.long     0x000fffff ->001048575 
    1304:	ff 07 00 00 	.long     0x000007ff ->000002047  [!!!@2@:SJMP      $-1                   ;->0x1302	@@: NOP      
    1308:	80 03 00 00 	.long     0x00000380 ->000000896  [!!!@4@:JMP       $-8388608             ;->0xff001308
    130c:	9e 03 00 00 	.long     0x0000039e ->000000926  [!!!@4@:JMP       $-6422528             ;->0xff3c130c
    1310:	7e 03 00 00 	.long     0x0000037e ->000000894  [!!!@4@:JMP       $+8257536             ;->0xfc1310
    1314:	5e 03 00 00 	.long     0x0000035e ->000000862  [!!!@4@:JMP       $+6160384             ;->0xbc1314
    1318:	ff ff 7f 00 	.long     0x007fffff ->008388607 

0000131c <fputchar>:
##@@@F_:fputchar():
    131c:	c8 a0       	ST.W      [R1 + #3], R0
    131e:	41 10       	MOV       R4, #1			;->0x0001
    1320:	a5 7a       	LSL       R4, #13			;->0x0D
    1322:	a9 98       	LD.W      R5, [R1 + #2]
    1324:	2d d5       	ANL       R5, R5, R4
    1326:	fe f1       	JNZ       $-2                   ;->0x1322
    1328:	41 10       	MOV       R4, #1			;->0x0001
    132a:	a5 7a       	LSL       R4, #13			;->0x0D
    132c:	a9 98       	LD.W      R5, [R1 + #2]
    132e:	2d d5       	ANL       R5, R5, R4
    1330:	fe f0       	JZ        $-2                   ;->0x132c
    1332:	04 10       	MOV       R0, #4			;->0x0004
    1334:	01 30       	SUB       R0, #1			;->0x01
    1336:	ff f1       	JNZ       $-1                   ;->0x1334
    1338:	00 10       	MOV       R0, #0			;->0x0000
    133a:	1d 5c       	JMP       LR

0000133c <GPIO_PIN>:
##@@@F_:.rdata$GPIO_PIN$scode_local_6():
    133c:	20 00 40 00 00 20 00 00                              .@.. ..

00001344 <COM_GPIO_PORT>:
##@@@F_:.rdata$COM_GPIO_PORT$scode_local_8():
    1344:	00 00 00 50 00 00 00 50 00 00 00 50 80 00 00 50     ...P...P...P...P

00001354 <COM_TX_PIN>:
##@@@F_:.rdata$COM_TX_PIN$scode_local_9():
    1354:	08 00 40 00 02 00 00 08                             ..@.....

0000135c <COM_TX_PIN_NUM>:
##@@@F_:.rdata$COM_TX_PIN_NUM$scode_local_10():
    135c:	03 00 06 00 01 00 0b 00                             ........

00001364 <COM_TX_PIN_RMP>:
##@@@F_:.rdata$COM_TX_PIN_RMP$scode_local_11():
    1364:	06 06 05 05                                         ....

00001368 <COM_RX_PIN>:
##@@@F_:.rdata$COM_RX_PIN$scode_local_12():
    1368:	04 00 20 00 01 00 00 04                             .. .....

00001370 <COM_RX_PIN_NUM>:
##@@@F_:.rdata$COM_RX_PIN_NUM$scode_local_13():
    1370:	02 00 05 00 00 00 0a 00                             ........

00001378 <COM_RX_PIN_RMP>:
##@@@F_:.rdata$COM_RX_PIN_RMP$scode_local_14():
    1378:	06 06 05 0b                                         ....

0000137c <COM_BAUD>:
##@@@F_:.rdata$COM_BAUD$scode_local_15():
    137c:	00 c2 01 00 00 c2 01 00 00 c2 01 00 00 c2 01 00     ................

0000138c <COM_USART>:
##@@@F_:.rdata$COM_USART$scode_local_16():
    138c:	00 0b 00 40 80 1e 00 40 80 09 00 40 00 0a 00 40     ...@...@...@...@

0000139c <ctype_tab>:
    139c:	00 80 80 80 80 80 80 80 80 80 40 40 40 40 40 80     ..........@@@@@.
    13ac:	80 80 80 80 80 80 80 80 80 80 80 80 80 80 80 80     ................
    13bc:	80 04 08 08 08 08 08 08 08 08 08 08 08 08 08 08     ................
    13cc:	08 21 21 21 21 21 21 21 21 21 21 08 08 08 08 08     .!!!!!!!!!!.....
    13dc:	08 08 03 03 03 03 03 03 02 02 02 02 02 02 02 02     ................
    13ec:	02 02 02 02 02 02 02 02 02 02 02 02 08 08 08 08     ................
    13fc:	08 08 11 11 11 11 11 11 10 10 10 10 10 10 10 10     ................
    140c:	10 10 10 10 10 10 10 10 10 10 10 10 08 08 08 08     ................
    141c:	80 00 00 00 00 00 00 00 00 00 00 00 00 00 00 00     ................
	...
##@@@F_:.rodata.str1.4$scode_local_1():
    14a0:	72 65 61 64 5f 62 79 74 65 3d 30 78 25 30 32 58     read_byte=0x%02X
    14b0:	0d 0a 00 00                                         ....

Disassembly of section .data:

10000000 <FLASH_Wipe_Configuration_RAM>:
##@@@F_:CHECK_RESTRICTION_RAM():
##@@@P_:kf32f_basic_flash.c:535
##@@@L0530_:{   
##@@@L0531_:    uint32_t tmpreg = 0;   
##@@@L0532_:
##@@@L0533_:    /*---------------- ķģŹńĮ«FLASH_ISPTRGÕ»äÕŁśÕÖ©ISPGOõĮŹ ----------------*/   
##@@@L0534_:    tmpreg = FLASH_ISPTRG_HIGH | FLASH_ISPTRG_ISPGO;   
##@@@L0535_:    FLASH_ISPTRG = SFR_Config_RAM (FLASH_ISPTRG,   
10000000:	02 38       	CMP       R0, #2			;->0x02
10000002:	02 f9       	JLS       $+2                   ;->0x10000006
10000004:	00 04       	SJMP      $+0                   ;->0x10000004
##@@@F_:FLASH_Wipe_Configuration_RAM():
10000006:	44 11       	MOV       R4, #20			;->0x0014
10000008:	29 dd       	LSR       R5, R1, R4
##@@@F_:CHECK_RESTRICTION_RAM():
1000000a:	50 38       	CMP       R5, #0			;->0x00
1000000c:	02 f0       	JZ        $+2                   ;->0x10000010
1000000e:	00 04       	SJMP      $+0                   ;->0x1000000e
##@@@F_:FLASH_Unlock_ISP_RAM():
10000010:	1d 45       	LD        R5, [PC + #29]        ;->0x10000084  :=0x40200100
10000012:	1e 44       	LD        R4, [PC + #30]        ;->0x10000088  :=0x87654321
10000014:	ac a2       	ST.W      [R5 + #10], R4
10000016:	1e 44       	LD        R4, [PC + #30]        ;->0x1000008c  :=0x5040302
10000018:	ac a2       	ST.W      [R5 + #10], R4
##@@@F_:FLASH_Unlock_Code_RAM():
1000001a:	1e 44       	LD        R4, [PC + #30]        ;->0x10000090  :=0x789abcde
1000001c:	ec a2       	ST.W      [R5 + #11], R4
1000001e:	1e 44       	LD        R4, [PC + #30]        ;->0x10000094  :=0x16151413
10000020:	ec a2       	ST.W      [R5 + #11], R4
##@@@F_:FLASH_Unlock_User_Config_RAM():
10000022:	1e 44       	LD        R4, [PC + #30]        ;->0x10000098  :=0x879a43de
10000024:	2c a3       	ST.W      [R5 + #12], R4
10000026:	1e 44       	LD        R4, [PC + #30]        ;->0x1000009c  :=0x27262524
10000028:	2c a3       	ST.W      [R5 + #12], R4
##@@@F_:FLASH_Wipe_Configuration_RAM():
1000002a:	4a 10       	MOV       R4, #10			;->0x000A
1000002c:	02 38       	CMP       R0, #2			;->0x02
1000002e:	05 f0       	JZ        $+5                   ;->0x10000038
10000030:	e9 a1       	ST.W      [R5 + #7], R1
10000032:	4b 11       	MOV       R4, #27			;->0x001B
10000034:	01 38       	CMP       R0, #1			;->0x01
10000036:	41 f0       	JZ        $+65                  ;->0x100000b8
10000038:	13 43       	LD        R3, [PC + #19]        ;->0x10000084  :=0x40200100
1000003a:	93 98       	LD.W      R2, [R3 + #2]
##@@@F_:SFR_Config_RAM():
1000003c:	5f 11       	MOV       R5, #31			;->0x001F
1000003e:	55 68       	NOT       R5, R5
10000040:	6a d5       	ANL       R5, R2, R5
10000042:	64 d7       	ORL       R4, R4, R5
##@@@F_:FLASH_Wipe_Configuration_RAM():
10000044:	9c a0       	ST.W      [R3 + #2], R4
##@@@F_:FLASH_Executive_Cmd_RAM():
10000046:	e3 98       	LD.W      R4, [R3 + #3]
##@@@F_:SFR_Config_RAM():
10000048:	16 45       	LD        R5, [PC + #22]        ;->0x100000a0  :=0xfffe
1000004a:	6c d5       	ANL       R5, R4, R5
1000004c:	16 44       	LD        R4, [PC + #22]        ;->0x100000a4  :=0x50af0001
1000004e:	2d d7       	ORL       R5, R5, R4
##@@@F_:FLASH_Executive_Cmd_RAM():
10000050:	dd a0       	ST.W      [R3 + #3], R5
##@@@F_:FLASH_Get_Wipe_Status_RAM():
10000052:	44 10       	MOV       R4, #4			;->0x0004
10000054:	2b 9a       	LD.W      R5, [R3 + #8]
10000056:	2d d5       	ANL       R5, R5, R4
10000058:	fe f1       	JNZ       $-2                   ;->0x10000054
##@@@F_:FLASH_Zone_Config_RAM():
1000005a:	0b 45       	LD        R5, [PC + #11]        ;->0x10000084  :=0x40200100
1000005c:	2c 4e       	CLR       [R5], #4			;->0x04
##@@@F_:FLASH_Clear_NonVolatile_Memory_Unlock_Status_RAM():
1000005e:	35 82       	LD.W      R3, [R5]
##@@@F_:SFR_Config_RAM():
10000060:	10 44       	LD        R4, [PC + #16]        ;->0x100000a0  :=0xfffe
10000062:	23 d5       	ANL       R4, R3, R4
10000064:	10 43       	LD        R3, [PC + #16]        ;->0x100000a4  :=0x50af0001
10000066:	e4 d6       	ORL       R4, R4, R3
##@@@F_:FLASH_Clear_NonVolatile_Memory_Unlock_Status_RAM():
10000068:	54 85       	ST.W      [R5], R4
##@@@F_:FLASH_Clear_Flash_Unlock_Status_RAM():
1000006a:	35 82       	LD.W      R3, [R5]
##@@@F_:SFR_Config_RAM():
1000006c:	0f 44       	LD        R4, [PC + #15]        ;->0x100000a8  :=0xfffd
1000006e:	23 d5       	ANL       R4, R3, R4
10000070:	0f 43       	LD        R3, [PC + #15]        ;->0x100000ac  :=0x50af0002
10000072:	e4 d6       	ORL       R4, R4, R3
##@@@F_:FLASH_Clear_Flash_Unlock_Status_RAM():
10000074:	54 85       	ST.W      [R5], R4
##@@@F_:FLASH_Clear_Config_Unlock_Status_RAM():
10000076:	35 82       	LD.W      R3, [R5]
##@@@F_:SFR_Config_RAM():
10000078:	0e 44       	LD        R4, [PC + #14]        ;->0x100000b0  :=0xfffb
1000007a:	23 d5       	ANL       R4, R3, R4
1000007c:	0e 43       	LD        R3, [PC + #14]        ;->0x100000b4  :=0x50af0004
1000007e:	e4 d6       	ORL       R4, R4, R3
##@@@F_:FLASH_Clear_Config_Unlock_Status_RAM():
10000080:	54 85       	ST.W      [R5], R4
##@@@F_:FLASH_Wipe_Configuration_RAM():
10000082:	1d 5c       	JMP       LR
10000084:	00 01 20 40 	.long     0x40200100 ->1075839232  [!!!@2@:CMN       R0, R0	@@: LD        R0, [PC + #32]        ;->0x10000104  :=0x38204c2b
10000088:	21 43 65 87 	.long     0x87654321 ->-2023406815  [!!!@2@:LD        R3, [PC + #33]        ;->0x1000010c  :=0x39359900	@@: LDS.B     R6, [R5]
1000008c:	02 03 04 05 	.long     0x05040302 ->084148994  [!!!@4@:JMP       $+132356              ;->0x10040a94
10000090:	de bc 9a 78 	.long     0x789abcde ->2023406814  [!!!@2@:LDP.H     R3, [R6] << #3	@@: ASR       R3, #10
10000094:	13 14 15 16 	.long     0x16151413 ->370480147  [!!!@2@:MOV       R1, #67	@@: MOV       R1, #101
10000098:	de 43 9a 87 	.long     0x879a43de ->-2019933218  [!!!@2@:LD        R3, [PC + #222]       ;->0x10000410  :=0x0	@@: LDS.B     R9, [R10]
1000009c:	24 25 26 27 	.long     0x27262524 ->656811300  [!!!@2@:ST.W      [SP + #36], R5	@@: ST.W      [SP + #38], R7
100000a0:	fe ff 00 00 	.long     0x0000fffe ->000065534 
100000a4:	01 00 af 50 	.long     0x50af0001 ->1353646081  [!!!@2@:.short    0x0001	@@: JB        [R5], #15
100000a8:	fd ff 00 00 	.long     0x0000fffd ->000065533 
100000ac:	02 00 af 50 	.long     0x50af0002 ->1353646082  [!!!@2@:.short    0x0002	@@: JB        [R5], #15
100000b0:	fb ff 00 00 	.long     0x0000fffb ->000065531 
100000b4:	04 00 af 50 	.long     0x50af0004 ->1353646084 
100000b8:	2c 4c       	SET       [R5], #4			;->0x04
100000ba:	bf 07       	SJMP      $-65                  ;->0x10000038

100000bc <FLASH_Program_Configuration_RAM>:
##@@@F_:FLASH_Program_Configuration_RAM():
100000bc:	26 5d       	PUSH      R6
100000be:	30 82       	LD.W      R3, [R0]
100000c0:	35 39       	CMP       R3, #21			;->0x15
100000c2:	04 f0       	JZ        $+4                   ;->0x100000ca
##@@@F_:CHECK_RESTRICTION_RAM():
100000c4:	35 38       	CMP       R3, #5			;->0x05
100000c6:	02 f0       	JZ        $+2                   ;->0x100000ca
100000c8:	00 04       	SJMP      $+0                   ;->0x100000c8
##@@@F_:FLASH_Program_Configuration_RAM():
100000ca:	50 98       	LD.W      R2, [R0 + #1]
##@@@F_:CHECK_RESTRICTION_RAM():
100000cc:	21 38       	CMP       R2, #1			;->0x01
100000ce:	02 f9       	JLS       $+2                   ;->0x100000d2
100000d0:	00 04       	SJMP      $+0                   ;->0x100000d0
##@@@F_:FLASH_Program_Configuration_RAM():
100000d2:	a0 98       	LD.W      R4, [R0 + #2]
100000d4:	14 11       	MOV       R1, #20			;->0x0014
100000d6:	6c dc       	LSR       R5, R4, R1
##@@@F_:CHECK_RESTRICTION_RAM():
100000d8:	50 38       	CMP       R5, #0			;->0x00
100000da:	02 f0       	JZ        $+2                   ;->0x100000de
100000dc:	00 04       	SJMP      $+0                   ;->0x100000dc
##@@@F_:FLASH_Program_Configuration_RAM():
100000de:	c8 98       	LD.W      R1, [R0 + #3]
100000e0:	66 10       	MOV       R6, #6			;->0x0006
100000e2:	a9 dd       	LSR       R5, R1, R6
##@@@F_:CHECK_RESTRICTION_RAM():
100000e4:	50 38       	CMP       R5, #0			;->0x00
100000e6:	02 f0       	JZ        $+2                   ;->0x100000ea
100000e8:	00 04       	SJMP      $+0                   ;->0x100000e8
##@@@F_:FLASH_Unlock_ISP_RAM():
100000ea:	28 45       	LD        R5, [PC + #40]        ;->0x10000188  :=0x40200100
100000ec:	28 46       	LD        R6, [PC + #40]        ;->0x1000018c  :=0x87654321
100000ee:	ae a2       	ST.W      [R5 + #10], R6
100000f0:	28 46       	LD        R6, [PC + #40]        ;->0x10000190  :=0x5040302
100000f2:	ae a2       	ST.W      [R5 + #10], R6
##@@@F_:FLASH_Unlock_User_Config_RAM():
100000f4:	28 46       	LD        R6, [PC + #40]        ;->0x10000194  :=0x879a43de
100000f6:	2e a3       	ST.W      [R5 + #12], R6
100000f8:	28 46       	LD        R6, [PC + #40]        ;->0x10000198  :=0x27262524
100000fa:	2e a3       	ST.W      [R5 + #12], R6
##@@@F_:FLASH_Unlock_Code_RAM():
100000fc:	28 46       	LD        R6, [PC + #40]        ;->0x1000019c  :=0x789abcde
100000fe:	ee a2       	ST.W      [R5 + #11], R6
10000100:	28 46       	LD        R6, [PC + #40]        ;->0x100001a0  :=0x16151413
10000102:	ee a2       	ST.W      [R5 + #11], R6
##@@@F_:FLASH_Program_Configuration_RAM():
10000104:	2b 4c       	SET       [R5], #3			;->0x03
10000106:	20 38       	CMP       R2, #0			;->0x00
10000108:	02 f0       	JZ        $+2                   ;->0x1000010c
1000010a:	2c 4c       	SET       [R5], #4			;->0x04
1000010c:	00 99       	LD.W      R0, [R0 + #4]
1000010e:	35 39       	CMP       R3, #21			;->0x15
10000110:	58 f0       	JZ        $+88                  ;->0x100001c0
10000112:	1e 42       	LD        R2, [PC + #30]        ;->0x10000188  :=0x40200100
10000114:	b2 98       	LD.W      R6, [R2 + #2]
10000116:	0d 7a       	LSL       R1, #5			;->0x05
##@@@F_:SFR_Config_RAM():
10000118:	23 45       	LD        R5, [PC + #35]        ;->0x100001a4  :=0xfffff800
1000011a:	6e d5       	ANL       R5, R6, R5
##@@@F_:FLASH_Program_Configuration_RAM():
1000011c:	49 d7       	ORL       R1, R1, R5
##@@@F_:SFR_Config_RAM():
1000011e:	d9 d6       	ORL       R3, R1, R3
##@@@F_:FLASH_Program_Configuration_RAM():
10000120:	93 a0       	ST.W      [R2 + #2], R3
##@@@F_:FLASH_Executive_Cmd_RAM():
10000122:	da 98       	LD.W      R3, [R2 + #3]
##@@@F_:SFR_Config_RAM():
10000124:	21 45       	LD        R5, [PC + #33]        ;->0x100001a8  :=0xfffe
10000126:	5b d5       	ANL       R3, R3, R5
10000128:	21 45       	LD        R5, [PC + #33]        ;->0x100001ac  :=0x50af0001
1000012a:	6b d7       	ORL       R5, R3, R5
##@@@F_:FLASH_Executive_Cmd_RAM():
1000012c:	d5 a0       	ST.W      [R2 + #3], R5
1000012e:	11 10       	MOV       R1, #1			;->0x0001
10000130:	89 7a       	LSL       R1, #9			;->0x09
10000132:	4c c2       	ADD       R1, R4, R1
10000134:	00 c7       	SUB       R0, R0, R4
##@@@F_:FLASH_Get_Program_Status_RAM():
10000136:	38 10       	MOV       R3, #8			;->0x0008
##@@@F_:FLASH_Program_Configuration_RAM():
10000138:	28 e9       	LD.W      R5, [R0 + R4]
1000013a:	45 85       	ST.W      [R4], R5
1000013c:	2c c1       	ADD       R5, R4, #4
1000013e:	30 c3       	ADD       R6, R0, R4
10000140:	76 98       	LD.W      R6, [R6 + #1]
10000142:	56 85       	ST.W      [R5], R6
10000144:	48 28       	ADD       R4, #8			;->0x08
##@@@F_:FLASH_Get_Program_Status_RAM():
10000146:	2a 9a       	LD.W      R5, [R2 + #8]
10000148:	ed d4       	ANL       R5, R5, R3
1000014a:	fe f1       	JNZ       $-2                   ;->0x10000146
##@@@F_:FLASH_Program_Configuration_RAM():
1000014c:	41 70       	CMP       R4, R1
1000014e:	f5 f1       	JNZ       $-11                  ;->0x10000138
##@@@F_:FLASH_Get_Wipe_Status_RAM():
10000150:	0e 43       	LD        R3, [PC + #14]        ;->0x10000188  :=0x40200100
10000152:	44 10       	MOV       R4, #4			;->0x0004
10000154:	2b 9a       	LD.W      R5, [R3 + #8]
10000156:	2d d5       	ANL       R5, R5, R4
10000158:	fe f1       	JNZ       $-2                   ;->0x10000154
##@@@F_:FLASH_Zone_Config_RAM():
1000015a:	0c 45       	LD        R5, [PC + #12]        ;->0x10000188  :=0x40200100
1000015c:	2c 4e       	CLR       [R5], #4			;->0x04
##@@@F_:FLASH_Data_Write_Enable_RAM():
1000015e:	2b 4e       	CLR       [R5], #3			;->0x03
##@@@F_:FLASH_Clear_NonVolatile_Memory_Unlock_Status_RAM():
10000160:	35 82       	LD.W      R3, [R5]
##@@@F_:SFR_Config_RAM():
10000162:	12 44       	LD        R4, [PC + #18]        ;->0x100001a8  :=0xfffe
10000164:	1b d5       	ANL       R3, R3, R4
10000166:	12 44       	LD        R4, [PC + #18]        ;->0x100001ac  :=0x50af0001
10000168:	23 d7       	ORL       R4, R3, R4
##@@@F_:FLASH_Clear_NonVolatile_Memory_Unlock_Status_RAM():
1000016a:	54 85       	ST.W      [R5], R4
##@@@F_:FLASH_Clear_Flash_Unlock_Status_RAM():
1000016c:	35 82       	LD.W      R3, [R5]
##@@@F_:SFR_Config_RAM():
1000016e:	11 44       	LD        R4, [PC + #17]        ;->0x100001b0  :=0xfffd
10000170:	1b d5       	ANL       R3, R3, R4
10000172:	11 44       	LD        R4, [PC + #17]        ;->0x100001b4  :=0x50af0002
10000174:	23 d7       	ORL       R4, R3, R4
##@@@F_:FLASH_Clear_Flash_Unlock_Status_RAM():
10000176:	54 85       	ST.W      [R5], R4
##@@@F_:FLASH_Clear_Config_Unlock_Status_RAM():
10000178:	35 82       	LD.W      R3, [R5]
##@@@F_:SFR_Config_RAM():
1000017a:	10 44       	LD        R4, [PC + #16]        ;->0x100001b8  :=0xfffb
1000017c:	1b d5       	ANL       R3, R3, R4
1000017e:	10 44       	LD        R4, [PC + #16]        ;->0x100001bc  :=0x50af0004
10000180:	23 d7       	ORL       R4, R3, R4
##@@@F_:FLASH_Clear_Config_Unlock_Status_RAM():
10000182:	54 85       	ST.W      [R5], R4
##@@@F_:FLASH_Program_Configuration_RAM():
10000184:	06 5d       	POP       R6
10000186:	1d 5c       	JMP       LR
10000188:	00 01 20 40 	.long     0x40200100 ->1075839232  [!!!@2@:CMN       R0, R0	@@: LD        R0, [PC + #32]        ;->0x10000208  :=0xa32c4415
1000018c:	21 43 65 87 	.long     0x87654321 ->-2023406815  [!!!@2@:LD        R3, [PC + #33]        ;->0x10000210  :=0xa2ec4415	@@: LDS.B     R6, [R5]
10000190:	02 03 04 05 	.long     0x05040302 ->084148994  [!!!@4@:JMP       $+132356              ;->0x10040b98
10000194:	de 43 9a 87 	.long     0x879a43de ->-2019933218  [!!!@2@:LD        R3, [PC + #222]       ;->0x1000050c  :=0x0	@@: LDS.B     R9, [R10]
10000198:	24 25 26 27 	.long     0x27262524 ->656811300  [!!!@2@:ST.W      [SP + #36], R5	@@: ST.W      [SP + #38], R7
1000019c:	de bc 9a 78 	.long     0x789abcde ->2023406814  [!!!@2@:LDP.H     R3, [R6] << #3	@@: ASR       R3, #10
100001a0:	13 14 15 16 	.long     0x16151413 ->370480147  [!!!@2@:MOV       R1, #67	@@: MOV       R1, #101
100001a4:	00 f8 ff ff 	.long     0xfffff800 ->-00002048 
100001a8:	fe ff 00 00 	.long     0x0000fffe ->000065534 
100001ac:	01 00 af 50 	.long     0x50af0001 ->1353646081  [!!!@2@:.short    0x0001	@@: JB        [R5], #15
100001b0:	fd ff 00 00 	.long     0x0000fffd ->000065533 
100001b4:	02 00 af 50 	.long     0x50af0002 ->1353646082  [!!!@2@:.short    0x0002	@@: JB        [R5], #15
100001b8:	fb ff 00 00 	.long     0x0000fffb ->000065531 
100001bc:	04 00 af 50 	.long     0x50af0004 ->1353646084 
100001c0:	0a 45       	LD        R5, [PC + #10]        ;->0x100001e8  :=0x40200100
100001c2:	8d 98       	LD.W      R1, [R5 + #2]
##@@@F_:SFR_Config_RAM():
100001c4:	2f 11       	MOV       R2, #31			;->0x001F
100001c6:	22 68       	NOT       R2, R2
100001c8:	91 d4       	ANL       R2, R1, R2
100001ca:	da d6       	ORL       R3, R2, R3
##@@@F_:FLASH_Program_Configuration_RAM():
100001cc:	ab a0       	ST.W      [R5 + #2], R3
100001ce:	50 82       	LD.W      R5, [R0]
100001d0:	45 85       	ST.W      [R4], R5
100001d2:	24 c1       	ADD       R4, R4, #4
100001d4:	68 98       	LD.W      R5, [R0 + #1]
100001d6:	45 85       	ST.W      [R4], R5
##@@@F_:FLASH_Executive_Cmd_RAM():
100001d8:	04 45       	LD        R5, [PC + #4]         ;->0x100001e8  :=0x40200100
100001da:	dd 98       	LD.W      R3, [R5 + #3]
##@@@F_:SFR_Config_RAM():
100001dc:	04 44       	LD        R4, [PC + #4]         ;->0x100001ec  :=0xfffe
100001de:	1b d5       	ANL       R3, R3, R4
100001e0:	04 44       	LD        R4, [PC + #4]         ;->0x100001f0  :=0x50af0001
100001e2:	23 d7       	ORL       R4, R3, R4
##@@@F_:FLASH_Executive_Cmd_RAM():
100001e4:	ec a0       	ST.W      [R5 + #3], R4
100001e6:	b5 07       	SJMP      $-75                  ;->0x10000150
##@@@F_:FLASH_Program_Configuration_RAM():
100001e8:	00 01 20 40 	.long     0x40200100 ->1075839232  [!!!@2@:CMN       R0, R0	@@: LD        R0, [PC + #32]        ;->0x10000268  :=0x100002b4
100001ec:	fe ff 00 00 	.long     0x0000fffe ->000065534 
100001f0:	01 00 af 50 	.long     0x50af0001 ->1353646081  [!!!@2@:.short    0x0001	@@: JB        [R5], #15

100001f4 <Read_Flash_or_CFR_RAM>:
##@@@F_:CHECK_RESTRICTION_RAM():
##@@@P_:kf32f_basic_flash.c:52
##@@@L0047_:  */   
##@@@L0048_:
##@@@L0049_:void __attribute__((section(".indata")))   
##@@@L0050_:CHECK_RESTRICTION_RAM(int expr)   
##@@@L0051_:{   
##@@@L0052_:	while(!expr)   
100001f4:	11 38       	CMP       R1, #1			;->0x01
100001f6:	02 f9       	JLS       $+2                   ;->0x100001fa
100001f8:	00 04       	SJMP      $+0                   ;->0x100001f8
##@@@F_:FLASH_Unlock_ISP_RAM():
##@@@P_:kf32f_basic_flash.c:124
##@@@L0119_:  */   
##@@@L0120_:void  __attribute__((section(".indata")))   
##@@@L0121_:FLASH_Unlock_ISP_RAM   (void)   
##@@@L0122_:{   
##@@@L0123_:    /* ÕåÖÕģźKEY1 ÕÆī KEY2 */   
##@@@L0124_:    FLASH_NVMUNLOCK = FLASH_NVMUNLOCK_KEY1;   
100001fa:	15 45       	LD        R5, [PC + #21]        ;->0x1000024c  :=0x40200100
100001fc:	15 44       	LD        R4, [PC + #21]        ;->0x10000250  :=0x87654321
100001fe:	ac a2       	ST.W      [R5 + #10], R4
##@@@P_:kf32f_basic_flash.c:125
##@@@L0125_:    FLASH_NVMUNLOCK = FLASH_NVMUNLOCK_KEY2;   
10000200:	15 44       	LD        R4, [PC + #21]        ;->0x10000254  :=0x5040302
10000202:	ac a2       	ST.W      [R5 + #10], R4
##@@@F_:FLASH_Unlock_User_Config_RAM():
##@@@P_:kf32f_basic_flash.c:278
##@@@L0273_:  */   
##@@@L0274_:void  __attribute__((section(".indata")))   
##@@@L0275_:FLASH_Unlock_User_Config_RAM (void)   
##@@@L0276_:{   
##@@@L0277_:    /* ÕåÖÕģźKEY1 ÕÆī KEY2 */   
##@@@L0278_:    FLASH_CFGUNLOCK = FLASH_CFGUNLOCK_KEY1;   
10000204:	15 44       	LD        R4, [PC + #21]        ;->0x10000258  :=0x879a43de
10000206:	2c a3       	ST.W      [R5 + #12], R4
##@@@P_:kf32f_basic_flash.c:279
##@@@L0279_:    FLASH_CFGUNLOCK = FLASH_CFGUNLOCK_KEY2;   
10000208:	15 44       	LD        R4, [PC + #21]        ;->0x1000025c  :=0x27262524
1000020a:	2c a3       	ST.W      [R5 + #12], R4
##@@@F_:FLASH_Unlock_Code_RAM():
##@@@P_:kf32f_basic_flash.c:201
##@@@L0196_:  */   
##@@@L0197_:void  __attribute__((section(".indata")))   
##@@@L0198_:FLASH_Unlock_Code_RAM (void)   
##@@@L0199_:{   
##@@@L0200_:    /* ÕåÖÕģźKEY1 ÕÆī KEY2 */   
##@@@L0201_:    FLASH_PROUNLOCK = FLASH_PROUNLOCK_KEY1;   
1000020c:	15 44       	LD        R4, [PC + #21]        ;->0x10000260  :=0x789abcde
1000020e:	ec a2       	ST.W      [R5 + #11], R4
##@@@P_:kf32f_basic_flash.c:202
##@@@L0202_:    FLASH_PROUNLOCK = FLASH_PROUNLOCK_KEY2;   
10000210:	15 44       	LD        R4, [PC + #21]        ;->0x10000264  :=0x16151413
10000212:	ec a2       	ST.W      [R5 + #11], R4
##@@@F_:Read_Flash_or_CFR_RAM():
##@@@P_:kf32f_basic_flash.c:1258
##@@@L1253_:	CHECK_RESTRICTION_RAM(CHECK_FLASH_PROGRAM_ZONE(ZoneSelect));   
##@@@L1254_:	//Ķ¦Żķöü   
##@@@L1255_:	FLASH_Unlock_ISP_RAM();   
##@@@L1256_:	FLASH_Unlock_User_Config_RAM();   
##@@@L1257_:	FLASH_Unlock_Code_RAM();   
##@@@L1258_:	if(ZoneSelect!=FLASH_PROGRAM_CFG)   
10000214:	11 38       	CMP       R1, #1			;->0x01
10000216:	37 f1       	JNZ       $+55                  ;->0x10000284
##@@@F_:FLASH_Zone_Config_RAM():
##@@@P_:kf32f_basic_flash.c:335
##@@@L0330_:
##@@@L0331_:    /*---------------- ķģŹńĮ«FLASH_ISPCON0Õ»äÕŁśÕÖ©IFENõĮŹ ----------------*/   
##@@@L0332_:    if (ZoneSelect != FLASH_NVM_CODE_ZONE)   
##@@@L0333_:    {   
##@@@L0334_:        /* NVMµōŹõĮ£ÕŁśÕé©ÕÖ©ķĆēµŗ®FLASHõ┐Īµü»Õī║ */   
##@@@L0335_:        __asm volatile("SET [%0], #%1"::"r"(&(FLASH_ISPCON0)),"i"(FLASH_ISPCON0_IFEN_POS));   
10000218:	2c 4c       	SET       [R5], #4			;->0x04
##@@@F_:Read_Flash_or_CFR_RAM():
##@@@P_:kf32f_basic_flash.c:1267
##@@@L1262_:	}   
##@@@L1263_:	else   
##@@@L1264_:	{   
##@@@L1265_:		FLASH_Zone_Config_RAM (FLASH_NVM_INFORMATION_ZONE);//ÕłćÕł░õ┐Īµü»Õī║   
##@@@L1266_:		read_adr = (uint32_t *)address;   
##@@@L1267_:		read_data = *read_adr;   
1000021a:	00 82       	LD.W      R0, [R0]
1000021c:	13 45       	LD        R5, [PC + #19]        ;->0x10000268  :=0x100002b4
1000021e:	50 85       	ST.W      [R5], R0
##@@@F_:FLASH_Zone_Config_RAM():
##@@@P_:kf32f_basic_flash.c:340
##@@@L0335_:        __asm volatile("SET [%0], #%1"::"r"(&(FLASH_ISPCON0)),"i"(FLASH_ISPCON0_IFEN_POS));   
##@@@L0336_:    }   
##@@@L0337_:    else   
##@@@L0338_:    {   
##@@@L0339_:        /* NVMµōŹõĮ£ÕŁśÕé©ÕÖ©ķĆēµŗ®FLASHń©ŗÕ║ÅÕī║ */   
##@@@L0340_:        __asm volatile("CLR [%0], #%1"::"r"(&(FLASH_ISPCON0)),"i"(FLASH_ISPCON0_IFEN_POS));   
10000220:	0b 45       	LD        R5, [PC + #11]        ;->0x1000024c  :=0x40200100
10000222:	2c 4e       	CLR       [R5], #4			;->0x04
##@@@F_:FLASH_Clear_NonVolatile_Memory_Unlock_Status():
##@@@P_:kf32f_basic_flash.c:111
##@@@L0106_:{   
##@@@L0107_:    uint32_t tmpreg = 0;   
##@@@L0108_:
##@@@L0109_:    /*---------------- ķģŹńĮ«FLASH_ISPCON0Õ»äÕŁśÕÖ©NVMLOCKõĮŹ ----------------*/   
##@@@L0110_:    tmpreg = FLASH_ISPCON0_HIGH | FLASH_ISPCON0_NVMLOCK;   
##@@@L0111_:    FLASH_ISPCON0 = SFR_Config (FLASH_ISPCON0,   
10000224:	0a 45       	LD        R5, [PC + #10]        ;->0x1000024c  :=0x40200100
10000226:	35 82       	LD.W      R3, [R5]
##@@@F_:SFR_Config():
##@@@P_:KF32F_BASIC.h:13336
##@@@L13331_:   ---------------------------------------------------------------------------- */   
##@@@L13332_:/* ÕåÖńē╣µ«ŖÕŖ¤ĶāĮÕ»äÕŁśÕÖ© */   
##@@@L13333_:static inline uint32_t   
##@@@L13334_:SFR_Config (uint32_t SfrMem, uint32_t SfrMask, uint32_t WriteVal)   
##@@@L13335_:{   
##@@@L13336_:    return ((SfrMem & SfrMask) | (WriteVal));   
10000228:	11 44       	LD        R4, [PC + #17]        ;->0x1000026c  :=0xfffe
1000022a:	23 d5       	ANL       R4, R3, R4
1000022c:	11 43       	LD        R3, [PC + #17]        ;->0x10000270  :=0x50af0001
1000022e:	e4 d6       	ORL       R4, R4, R3
##@@@F_:FLASH_Clear_NonVolatile_Memory_Unlock_Status():
##@@@P_:kf32f_basic_flash.c:111
10000230:	54 85       	ST.W      [R5], R4
##@@@F_:FLASH_Clear_Flash_Unlock_Status():
##@@@P_:kf32f_basic_flash.c:188
##@@@L0183_:{   
##@@@L0184_:    uint32_t tmpreg = 0;   
##@@@L0185_:
##@@@L0186_:    /*---------------- ķģŹńĮ«FLASH_ISPCON0Õ»äÕŁśÕÖ©FLASHLOCKõĮŹ ----------------*/   
##@@@L0187_:    tmpreg = FLASH_ISPCON0_HIGH | FLASH_ISPCON0_FLASHLOCK;   
##@@@L0188_:    FLASH_ISPCON0 = SFR_Config (FLASH_ISPCON0,   
10000232:	35 82       	LD.W      R3, [R5]
##@@@F_:SFR_Config():
##@@@P_:KF32F_BASIC.h:13336
10000234:	10 44       	LD        R4, [PC + #16]        ;->0x10000274  :=0xfffd
10000236:	23 d5       	ANL       R4, R3, R4
10000238:	10 43       	LD        R3, [PC + #16]        ;->0x10000278  :=0x50af0002
1000023a:	e4 d6       	ORL       R4, R4, R3
##@@@F_:FLASH_Clear_Flash_Unlock_Status():
##@@@P_:kf32f_basic_flash.c:188
1000023c:	54 85       	ST.W      [R5], R4
##@@@F_:FLASH_Clear_Config_Unlock_Status():
##@@@P_:kf32f_basic_flash.c:265
##@@@L0260_:{   
##@@@L0261_:    uint32_t tmpreg = 0;   
##@@@L0262_:
##@@@L0263_:    /*---------------- ķģŹńĮ«FLASH_ISPCON0Õ»äÕŁśÕÖ©CFGLOCKõĮŹ ----------------*/   
##@@@L0264_:    tmpreg = FLASH_ISPCON0_HIGH | FLASH_ISPCON0_CFGLOCK;   
##@@@L0265_:    FLASH_ISPCON0 = SFR_Config (FLASH_ISPCON0,   
1000023e:	35 82       	LD.W      R3, [R5]
##@@@F_:SFR_Config():
##@@@P_:KF32F_BASIC.h:13336
10000240:	0f 44       	LD        R4, [PC + #15]        ;->0x1000027c  :=0xfffb
10000242:	23 d5       	ANL       R4, R3, R4
10000244:	0f 43       	LD        R3, [PC + #15]        ;->0x10000280  :=0x50af0004
10000246:	e4 d6       	ORL       R4, R4, R3
##@@@F_:FLASH_Clear_Config_Unlock_Status():
##@@@P_:kf32f_basic_flash.c:265
10000248:	54 85       	ST.W      [R5], R4
##@@@F_:Read_Flash_or_CFR_RAM():
##@@@P_:kf32f_basic_flash.c:1276
##@@@L1271_:	FLASH_Clear_NonVolatile_Memory_Unlock_Status ();//µĖģķøČFLASHń╝¢ń©ŗń╗äõ╗ČĶ¦ŻķöüńŖČµĆüõĮŹŃĆé   
##@@@L1272_:	FLASH_Clear_Flash_Unlock_Status ();//µĖģķøČFLASHĶ¦ŻķöüńŖČµĆüõĮŹŃĆé   
##@@@L1273_:	FLASH_Clear_Config_Unlock_Status ();//µĖģķøČFLASHķģŹńĮ«Õī║Ķ¦ŻķöüńŖČµĆüõĮŹŃĆé   
##@@@L1274_:	return read_data;   
##@@@L1275_:
##@@@L1276_:}   
1000024a:	1d 5c       	JMP       LR
1000024c:	00 01 20 40 	.long     0x40200100 ->1075839232  [!!!@2@:CMN       R0, R0	@@: LD        R0, [PC + #32]        ;->0x100002cc  :=0x0
10000250:	21 43 65 87 	.long     0x87654321 ->-2023406815  [!!!@2@:LD        R3, [PC + #33]        ;->0x100002d4  :=0x0	@@: LDS.B     R6, [R5]
10000254:	02 03 04 05 	.long     0x05040302 ->084148994  [!!!@4@:JMP       $+132356              ;->0x10040c5c
10000258:	de 43 9a 87 	.long     0x879a43de ->-2019933218  [!!!@2@:LD        R3, [PC + #222]       ;->0x100005d0  :=0x0	@@: LDS.B     R9, [R10]
1000025c:	24 25 26 27 	.long     0x27262524 ->656811300  [!!!@2@:ST.W      [SP + #36], R5	@@: ST.W      [SP + #38], R7
10000260:	de bc 9a 78 	.long     0x789abcde ->2023406814  [!!!@2@:LDP.H     R3, [R6] << #3	@@: ASR       R3, #10
10000264:	13 14 15 16 	.long     0x16151413 ->370480147  [!!!@2@:MOV       R1, #67	@@: MOV       R1, #101
10000268:	b4 02 00 10 	.long     0x100002b4 ->268436148  [!!!@2@:SVC       SVC, #180	@@: MOV       R0, #0
1000026c:	fe ff 00 00 	.long     0x0000fffe ->000065534 
10000270:	01 00 af 50 	.long     0x50af0001 ->1353646081  [!!!@2@:.short    0x0001	@@: JB        [R5], #15
10000274:	fd ff 00 00 	.long     0x0000fffd ->000065533 
10000278:	02 00 af 50 	.long     0x50af0002 ->1353646082  [!!!@2@:.short    0x0002	@@: JB        [R5], #15
1000027c:	fb ff 00 00 	.long     0x0000fffb ->000065531 
10000280:	04 00 af 50 	.long     0x50af0004 ->1353646084 
##@@@P_:kf32f_basic_flash.c:1261
##@@@L1256_:	FLASH_Unlock_User_Config_RAM();   
##@@@L1257_:	FLASH_Unlock_Code_RAM();   
##@@@L1258_:	if(ZoneSelect!=FLASH_PROGRAM_CFG)   
##@@@L1259_:	{   
##@@@L1260_:		read_adr = (uint32_t *)address;   
##@@@L1261_:		read_data = *read_adr;   
10000284:	00 82       	LD.W      R0, [R0]
10000286:	02 45       	LD        R5, [PC + #2]         ;->0x1000028c  :=0x100002b4
10000288:	50 85       	ST.W      [R5], R0
1000028a:	cd 07       	SJMP      $-51                  ;->0x10000224
1000028c:	b4 02 00 10 	.long     0x100002b4 ->268436148  [!!!@2@:SVC       SVC, #180	@@: MOV       R0, #0

10000290 <GPIO_PORT>:
##@@@F_:.data$init$GPIO_PORT$scode_local_7():
10000290:	c0 01 00 50 c0 01 00 50 c0 00 00 50                 ...P...P...P

1000029c <_Ctype>:
1000029c:	9d 13 00 00                                         ....

100002a0 <flash_write>:
	...

100002b4 <read_data>:
##@@@F_:.bss$comm$read_data$scode_local_53():
100002b4:	00 00 00 00                                         ....

100002b8 <e10>:
100002b8:	00 00 00 00                                         ....

100002bc <e2>:
100002bc:	00 00 00 00                                         ....

100002c0 <lf>:
100002c0:	00 00 00 00                                         ....

100002c4 <S>:
100002c4:	00 00 00 00                                         ....

100002c8 <__Heap_Start__>:
	...
